
key.elf:     file format elf32-littlearm


Disassembly of section .text:

87800000 <__text_start>:
87800000:	e59ff100 	ldr	pc, [pc, #256]	; 87800108 <FIQ_Handler+0x8>
87800004:	e59ff100 	ldr	pc, [pc, #256]	; 8780010c <FIQ_Handler+0xc>
87800008:	e59ff100 	ldr	pc, [pc, #256]	; 87800110 <FIQ_Handler+0x10>
8780000c:	e59ff100 	ldr	pc, [pc, #256]	; 87800114 <FIQ_Handler+0x14>
87800010:	e59ff100 	ldr	pc, [pc, #256]	; 87800118 <FIQ_Handler+0x18>
87800014:	e59ff100 	ldr	pc, [pc, #256]	; 8780011c <FIQ_Handler+0x1c>
87800018:	e59ff100 	ldr	pc, [pc, #256]	; 87800120 <FIQ_Handler+0x20>
8780001c:	e59ff100 	ldr	pc, [pc, #256]	; 87800124 <FIQ_Handler+0x24>

87800020 <Reset_Handler>:
87800020:	f10c0080 	cpsid	i
87800024:	ee110f10 	mrc	15, 0, r0, cr1, cr0, {0}
87800028:	e3c00a01 	bic	r0, r0, #4096	; 0x1000
8780002c:	e3c00004 	bic	r0, r0, #4
87800030:	e3c00002 	bic	r0, r0, #2
87800034:	e3c00b02 	bic	r0, r0, #2048	; 0x800
87800038:	e3c00001 	bic	r0, r0, #1
8780003c:	ee010f10 	mcr	15, 0, r0, cr1, cr0, {0}
87800040:	e10f0000 	mrs	r0, CPSR
87800044:	e3c0001f 	bic	r0, r0, #31
87800048:	e3800012 	orr	r0, r0, #18
8780004c:	e129f000 	msr	CPSR_fc, r0
87800050:	e59fd0d0 	ldr	sp, [pc, #208]	; 87800128 <FIQ_Handler+0x28>
87800054:	e10f0000 	mrs	r0, CPSR
87800058:	e3c0001f 	bic	r0, r0, #31
8780005c:	e380001f 	orr	r0, r0, #31
87800060:	e129f000 	msr	CPSR_fc, r0
87800064:	e59fd0c0 	ldr	sp, [pc, #192]	; 8780012c <FIQ_Handler+0x2c>
87800068:	e10f0000 	mrs	r0, CPSR
8780006c:	e3c0001f 	bic	r0, r0, #31
87800070:	e3800013 	orr	r0, r0, #19
87800074:	e129f000 	msr	CPSR_fc, r0
87800078:	e59fd0b0 	ldr	sp, [pc, #176]	; 87800130 <FIQ_Handler+0x30>
8780007c:	f1080080 	cpsie	i
87800080:	ea001698 	b	87805ae8 <__main_from_arm>

87800084 <Undefined_Handler>:
87800084:	e59f0080 	ldr	r0, [pc, #128]	; 8780010c <FIQ_Handler+0xc>
87800088:	e12fff10 	bx	r0

8780008c <SVC_Handler>:
8780008c:	e59f007c 	ldr	r0, [pc, #124]	; 87800110 <FIQ_Handler+0x10>
87800090:	e12fff10 	bx	r0

87800094 <PrefAbort_Handler>:
87800094:	e59f0078 	ldr	r0, [pc, #120]	; 87800114 <FIQ_Handler+0x14>
87800098:	e12fff10 	bx	r0

8780009c <DataAbort_Handler>:
8780009c:	e59f0074 	ldr	r0, [pc, #116]	; 87800118 <FIQ_Handler+0x18>
878000a0:	e12fff10 	bx	r0

878000a4 <NotUsed_Handler>:
878000a4:	e59f0070 	ldr	r0, [pc, #112]	; 8780011c <FIQ_Handler+0x1c>
878000a8:	e12fff10 	bx	r0

878000ac <IRQ_Handler>:
878000ac:	e52de004 	push	{lr}		; (str lr, [sp, #-4]!)
878000b0:	e92d100f 	push	{r0, r1, r2, r3, ip}
878000b4:	e14f0000 	mrs	r0, SPSR
878000b8:	e52d0004 	push	{r0}		; (str r0, [sp, #-4]!)
878000bc:	ee9f1f10 	mrc	15, 4, r1, cr15, cr0, {0}
878000c0:	e2811a02 	add	r1, r1, #8192	; 0x2000
878000c4:	e591000c 	ldr	r0, [r1, #12]
878000c8:	e92d0003 	push	{r0, r1}
878000cc:	f1020013 	cps	#19
878000d0:	e52de004 	push	{lr}		; (str lr, [sp, #-4]!)
878000d4:	e59f2058 	ldr	r2, [pc, #88]	; 87800134 <FIQ_Handler+0x34>
878000d8:	e12fff32 	blx	r2
878000dc:	e49de004 	pop	{lr}		; (ldr lr, [sp], #4)
878000e0:	f1020012 	cps	#18
878000e4:	e8bd0003 	pop	{r0, r1}
878000e8:	e5810010 	str	r0, [r1, #16]
878000ec:	e49d0004 	pop	{r0}		; (ldr r0, [sp], #4)
878000f0:	e16ff000 	msr	SPSR_fsxc, r0
878000f4:	e8bd100f 	pop	{r0, r1, r2, r3, ip}
878000f8:	e49de004 	pop	{lr}		; (ldr lr, [sp], #4)
878000fc:	e25ef004 	subs	pc, lr, #4

87800100 <FIQ_Handler>:
87800100:	e59f001c 	ldr	r0, [pc, #28]	; 87800124 <FIQ_Handler+0x24>
87800104:	e12fff10 	bx	r0
87800108:	87800020 	strhi	r0, [r0, r0, lsr #32]
8780010c:	87800084 	strhi	r0, [r0, r4, lsl #1]
87800110:	8780008c 	strhi	r0, [r0, ip, lsl #1]
87800114:	87800094 			; <UNDEFINED> instruction: 0x87800094
87800118:	8780009c 			; <UNDEFINED> instruction: 0x8780009c
8780011c:	878000a4 	strhi	r0, [r0, r4, lsr #1]
87800120:	878000ac 	strhi	r0, [r0, ip, lsr #1]
87800124:	87800100 	strhi	r0, [r0, r0, lsl #2]
87800128:	80600000 	rsbhi	r0, r0, r0
8780012c:	80400000 	subhi	r0, r0, r0
87800130:	80200000 	eorhi	r0, r0, r0
87800134:	878056a1 	strhi	r5, [r0, r1, lsr #13]
	...

87800140 <__umodsi3>:
87800140:	e2512001 	subs	r2, r1, #1
87800144:	3a000062 	bcc	878002d4 <Ldiv0>
87800148:	11500001 	cmpne	r0, r1
8780014c:	03a00000 	moveq	r0, #0
87800150:	81110002 	tsthi	r1, r2
87800154:	00000002 	andeq	r0, r0, r2
87800158:	91a0f00e 	movls	pc, lr
8780015c:	e3a02000 	mov	r2, #0
87800160:	e3510201 	cmp	r1, #268435456	; 0x10000000
87800164:	31510000 	cmpcc	r1, r0
87800168:	31a01201 	lslcc	r1, r1, #4
8780016c:	32822004 	addcc	r2, r2, #4
87800170:	3afffffa 	bcc	87800160 <__umodsi3+0x20>
87800174:	e3510102 	cmp	r1, #-2147483648	; 0x80000000
87800178:	31510000 	cmpcc	r1, r0
8780017c:	31a01081 	lslcc	r1, r1, #1
87800180:	32822001 	addcc	r2, r2, #1
87800184:	3afffffa 	bcc	87800174 <__umodsi3+0x34>
87800188:	e2522003 	subs	r2, r2, #3
8780018c:	ba00000e 	blt	878001cc <__umodsi3+0x8c>
87800190:	e1500001 	cmp	r0, r1
87800194:	20400001 	subcs	r0, r0, r1
87800198:	e15000a1 	cmp	r0, r1, lsr #1
8780019c:	204000a1 	subcs	r0, r0, r1, lsr #1
878001a0:	e1500121 	cmp	r0, r1, lsr #2
878001a4:	20400121 	subcs	r0, r0, r1, lsr #2
878001a8:	e15001a1 	cmp	r0, r1, lsr #3
878001ac:	204001a1 	subcs	r0, r0, r1, lsr #3
878001b0:	e3500001 	cmp	r0, #1
878001b4:	e1a01221 	lsr	r1, r1, #4
878001b8:	a2522004 	subsge	r2, r2, #4
878001bc:	aafffff3 	bge	87800190 <__umodsi3+0x50>
878001c0:	e3120003 	tst	r2, #3
878001c4:	13300000 	teqne	r0, #0
878001c8:	0a00000a 	beq	878001f8 <__umodsi3+0xb8>
878001cc:	e3720002 	cmn	r2, #2
878001d0:	ba000006 	blt	878001f0 <__umodsi3+0xb0>
878001d4:	0a000002 	beq	878001e4 <__umodsi3+0xa4>
878001d8:	e1500001 	cmp	r0, r1
878001dc:	20400001 	subcs	r0, r0, r1
878001e0:	e1a010a1 	lsr	r1, r1, #1
878001e4:	e1500001 	cmp	r0, r1
878001e8:	20400001 	subcs	r0, r0, r1
878001ec:	e1a010a1 	lsr	r1, r1, #1
878001f0:	e1500001 	cmp	r0, r1
878001f4:	20400001 	subcs	r0, r0, r1
878001f8:	e1a0f00e 	mov	pc, lr
878001fc:	90909090 	umullsls	r9, r0, r0, r0

87800200 <__modsi3>:
87800200:	e3510000 	cmp	r1, #0
87800204:	0a000032 	beq	878002d4 <Ldiv0>
87800208:	42611000 	rsbmi	r1, r1, #0
8780020c:	e1b0c000 	movs	ip, r0
87800210:	42600000 	rsbmi	r0, r0, #0
87800214:	e2512001 	subs	r2, r1, #1
87800218:	11500001 	cmpne	r0, r1
8780021c:	03a00000 	moveq	r0, #0
87800220:	81110002 	tsthi	r1, r2
87800224:	00000002 	andeq	r0, r0, r2
87800228:	9a000026 	bls	878002c8 <__modsi3+0xc8>
8780022c:	e3a02000 	mov	r2, #0
87800230:	e3510201 	cmp	r1, #268435456	; 0x10000000
87800234:	31510000 	cmpcc	r1, r0
87800238:	31a01201 	lslcc	r1, r1, #4
8780023c:	32822004 	addcc	r2, r2, #4
87800240:	3afffffa 	bcc	87800230 <__modsi3+0x30>
87800244:	e3510102 	cmp	r1, #-2147483648	; 0x80000000
87800248:	31510000 	cmpcc	r1, r0
8780024c:	31a01081 	lslcc	r1, r1, #1
87800250:	32822001 	addcc	r2, r2, #1
87800254:	3afffffa 	bcc	87800244 <__modsi3+0x44>
87800258:	e2522003 	subs	r2, r2, #3
8780025c:	ba00000e 	blt	8780029c <__modsi3+0x9c>
87800260:	e1500001 	cmp	r0, r1
87800264:	20400001 	subcs	r0, r0, r1
87800268:	e15000a1 	cmp	r0, r1, lsr #1
8780026c:	204000a1 	subcs	r0, r0, r1, lsr #1
87800270:	e1500121 	cmp	r0, r1, lsr #2
87800274:	20400121 	subcs	r0, r0, r1, lsr #2
87800278:	e15001a1 	cmp	r0, r1, lsr #3
8780027c:	204001a1 	subcs	r0, r0, r1, lsr #3
87800280:	e3500001 	cmp	r0, #1
87800284:	e1a01221 	lsr	r1, r1, #4
87800288:	a2522004 	subsge	r2, r2, #4
8780028c:	aafffff3 	bge	87800260 <__modsi3+0x60>
87800290:	e3120003 	tst	r2, #3
87800294:	13300000 	teqne	r0, #0
87800298:	0a00000a 	beq	878002c8 <__modsi3+0xc8>
8780029c:	e3720002 	cmn	r2, #2
878002a0:	ba000006 	blt	878002c0 <__modsi3+0xc0>
878002a4:	0a000002 	beq	878002b4 <__modsi3+0xb4>
878002a8:	e1500001 	cmp	r0, r1
878002ac:	20400001 	subcs	r0, r0, r1
878002b0:	e1a010a1 	lsr	r1, r1, #1
878002b4:	e1500001 	cmp	r0, r1
878002b8:	20400001 	subcs	r0, r0, r1
878002bc:	e1a010a1 	lsr	r1, r1, #1
878002c0:	e1500001 	cmp	r0, r1
878002c4:	20400001 	subcs	r0, r0, r1
878002c8:	e35c0000 	cmp	ip, #0
878002cc:	42600000 	rsbmi	r0, r0, #0
878002d0:	e1a0f00e 	mov	pc, lr

878002d4 <Ldiv0>:
878002d4:	e52de004 	push	{lr}		; (str lr, [sp, #-4]!)
878002d8:	e3a00000 	mov	r0, #0
878002dc:	e49df004 	pop	{pc}		; (ldr pc, [sp], #4)

878002e0 <main>:
878002e0:	b5f0      	push	{r4, r5, r6, r7, lr}
878002e2:	b0ab      	sub	sp, #172	; 0xac
878002e4:	af04      	add	r7, sp, #16
878002e6:	4c6c      	ldr	r4, [pc, #432]	; (87800498 <main+0x1b8>)
878002e8:	447c      	add	r4, pc
878002ea:	2300      	movs	r3, #0
878002ec:	f8c7 3094 	str.w	r3, [r7, #148]	; 0x94
878002f0:	2300      	movs	r3, #0
878002f2:	f8c7 308c 	str.w	r3, [r7, #140]	; 0x8c
878002f6:	f005 f947 	bl	87805588 <int_init>
878002fa:	f000 f911 	bl	87800520 <init_io_led>
878002fe:	f000 f9be 	bl	8780067e <init_io_beep>
87800302:	f000 f932 	bl	8780056a <init_led>
87800306:	f000 f9dd 	bl	878006c4 <init_beep>
8780030a:	f000 fdf5 	bl	87800ef8 <filterkey_init>
8780030e:	f000 fbd9 	bl	87800ac4 <delay_init>
87800312:	f000 ff3d 	bl	87801190 <uart_init>
87800316:	4b61      	ldr	r3, [pc, #388]	; (8780049c <main+0x1bc>)
87800318:	447b      	add	r3, pc
8780031a:	4619      	mov	r1, r3
8780031c:	4b60      	ldr	r3, [pc, #384]	; (878004a0 <main+0x1c0>)
8780031e:	447b      	add	r3, pc
87800320:	4618      	mov	r0, r3
87800322:	f003 f897 	bl	87803454 <printf>
87800326:	f001 fc61 	bl	87801bec <lcd_init>
8780032a:	f002 fd55 	bl	87802dd8 <rtc_enable>
8780032e:	f002 fe3b 	bl	87802fa8 <rtc_getseconds>
87800332:	4603      	mov	r3, r0
87800334:	f8c7 308c 	str.w	r3, [r7, #140]	; 0x8c
87800338:	f8d7 108c 	ldr.w	r1, [r7, #140]	; 0x8c
8780033c:	4b59      	ldr	r3, [pc, #356]	; (878004a4 <main+0x1c4>)
8780033e:	447b      	add	r3, pc
87800340:	4618      	mov	r0, r3
87800342:	f003 f887 	bl	87803454 <printf>
87800346:	2300      	movs	r3, #0
87800348:	f8c7 3090 	str.w	r3, [r7, #144]	; 0x90
8780034c:	e00f      	b.n	8780036e <main+0x8e>
8780034e:	f8d7 3090 	ldr.w	r3, [r7, #144]	; 0x90
87800352:	b29b      	uxth	r3, r3
87800354:	f8d7 2090 	ldr.w	r2, [r7, #144]	; 0x90
87800358:	b291      	uxth	r1, r2
8780035a:	f44f 027f 	mov.w	r2, #16711680	; 0xff0000
8780035e:	4618      	mov	r0, r3
87800360:	f002 fc56 	bl	87802c10 <lcd_drawpoint>
87800364:	f8d7 3090 	ldr.w	r3, [r7, #144]	; 0x90
87800368:	3301      	adds	r3, #1
8780036a:	f8c7 3090 	str.w	r3, [r7, #144]	; 0x90
8780036e:	f8d7 3090 	ldr.w	r3, [r7, #144]	; 0x90
87800372:	2b63      	cmp	r3, #99	; 0x63
87800374:	ddeb      	ble.n	8780034e <main+0x6e>
87800376:	23ff      	movs	r3, #255	; 0xff
87800378:	9300      	str	r3, [sp, #0]
8780037a:	2396      	movs	r3, #150	; 0x96
8780037c:	2296      	movs	r2, #150	; 0x96
8780037e:	2164      	movs	r1, #100	; 0x64
87800380:	2064      	movs	r0, #100	; 0x64
87800382:	f002 fcc9 	bl	87802d18 <lcd_fillrect>
87800386:	2003      	movs	r0, #3
87800388:	f000 fc43 	bl	87800c12 <delay>
8780038c:	20ff      	movs	r0, #255	; 0xff
8780038e:	f002 fc91 	bl	87802cb4 <lcd_clear>
87800392:	4b45      	ldr	r3, [pc, #276]	; (878004a8 <main+0x1c8>)
87800394:	58e3      	ldr	r3, [r4, r3]
87800396:	22ff      	movs	r2, #255	; 0xff
87800398:	61da      	str	r2, [r3, #28]
8780039a:	4b43      	ldr	r3, [pc, #268]	; (878004a8 <main+0x1c8>)
8780039c:	58e3      	ldr	r3, [r4, r3]
8780039e:	2200      	movs	r2, #0
878003a0:	619a      	str	r2, [r3, #24]
878003a2:	2001      	movs	r0, #1
878003a4:	f000 fc1c 	bl	87800be0 <delayms>
878003a8:	4b40      	ldr	r3, [pc, #256]	; (878004ac <main+0x1cc>)
878003aa:	447b      	add	r3, pc
878003ac:	9301      	str	r3, [sp, #4]
878003ae:	2320      	movs	r3, #32
878003b0:	9300      	str	r3, [sp, #0]
878003b2:	2320      	movs	r3, #32
878003b4:	f44f 7282 	mov.w	r2, #260	; 0x104
878003b8:	2128      	movs	r1, #40	; 0x28
878003ba:	20c8      	movs	r0, #200	; 0xc8
878003bc:	f001 fb96 	bl	87801aec <lcd_show_string>
878003c0:	2300      	movs	r3, #0
878003c2:	607b      	str	r3, [r7, #4]
878003c4:	f107 0308 	add.w	r3, r7, #8
878003c8:	223c      	movs	r2, #60	; 0x3c
878003ca:	2100      	movs	r1, #0
878003cc:	4618      	mov	r0, r3
878003ce:	f003 fb1b 	bl	87803a08 <memset>
878003d2:	1d3b      	adds	r3, r7, #4
878003d4:	f8d7 2094 	ldr.w	r2, [r7, #148]	; 0x94
878003d8:	4935      	ldr	r1, [pc, #212]	; (878004b0 <main+0x1d0>)
878003da:	4479      	add	r1, pc
878003dc:	4618      	mov	r0, r3
878003de:	f004 fd2e 	bl	87804e3e <sprintf>
878003e2:	1d3b      	adds	r3, r7, #4
878003e4:	9301      	str	r3, [sp, #4]
878003e6:	2318      	movs	r3, #24
878003e8:	9300      	str	r3, [sp, #0]
878003ea:	2318      	movs	r3, #24
878003ec:	22f0      	movs	r2, #240	; 0xf0
878003ee:	2150      	movs	r1, #80	; 0x50
878003f0:	20c8      	movs	r0, #200	; 0xc8
878003f2:	f001 fb7b 	bl	87801aec <lcd_show_string>
878003f6:	4b2f      	ldr	r3, [pc, #188]	; (878004b4 <main+0x1d4>)
878003f8:	447b      	add	r3, pc
878003fa:	9301      	str	r3, [sp, #4]
878003fc:	2310      	movs	r3, #16
878003fe:	9300      	str	r3, [sp, #0]
87800400:	2310      	movs	r3, #16
87800402:	22f0      	movs	r2, #240	; 0xf0
87800404:	216e      	movs	r1, #110	; 0x6e
87800406:	20c8      	movs	r0, #200	; 0xc8
87800408:	f001 fb70 	bl	87801aec <lcd_show_string>
8780040c:	f107 0384 	add.w	r3, r7, #132	; 0x84
87800410:	4618      	mov	r0, r3
87800412:	f002 ff07 	bl	87803224 <rtc_getdatetime>
87800416:	2300      	movs	r3, #0
87800418:	647b      	str	r3, [r7, #68]	; 0x44
8780041a:	f107 0348 	add.w	r3, r7, #72	; 0x48
8780041e:	223c      	movs	r2, #60	; 0x3c
87800420:	2100      	movs	r1, #0
87800422:	4618      	mov	r0, r3
87800424:	f003 faf0 	bl	87803a08 <memset>
87800428:	f8b7 3084 	ldrh.w	r3, [r7, #132]	; 0x84
8780042c:	461e      	mov	r6, r3
8780042e:	f897 3086 	ldrb.w	r3, [r7, #134]	; 0x86
87800432:	469c      	mov	ip, r3
87800434:	f897 3087 	ldrb.w	r3, [r7, #135]	; 0x87
87800438:	f897 2088 	ldrb.w	r2, [r7, #136]	; 0x88
8780043c:	f897 1089 	ldrb.w	r1, [r7, #137]	; 0x89
87800440:	f897 008a 	ldrb.w	r0, [r7, #138]	; 0x8a
87800444:	4605      	mov	r5, r0
87800446:	f107 0044 	add.w	r0, r7, #68	; 0x44
8780044a:	9503      	str	r5, [sp, #12]
8780044c:	9102      	str	r1, [sp, #8]
8780044e:	9201      	str	r2, [sp, #4]
87800450:	9300      	str	r3, [sp, #0]
87800452:	4663      	mov	r3, ip
87800454:	4632      	mov	r2, r6
87800456:	4918      	ldr	r1, [pc, #96]	; (878004b8 <main+0x1d8>)
87800458:	4479      	add	r1, pc
8780045a:	f004 fcf0 	bl	87804e3e <sprintf>
8780045e:	f107 0344 	add.w	r3, r7, #68	; 0x44
87800462:	9301      	str	r3, [sp, #4]
87800464:	230c      	movs	r3, #12
87800466:	9300      	str	r3, [sp, #0]
87800468:	230c      	movs	r3, #12
8780046a:	22f0      	movs	r2, #240	; 0xf0
8780046c:	2182      	movs	r1, #130	; 0x82
8780046e:	20c8      	movs	r0, #200	; 0xc8
87800470:	f001 fb3c 	bl	87801aec <lcd_show_string>
87800474:	f8d7 3094 	ldr.w	r3, [r7, #148]	; 0x94
87800478:	3301      	adds	r3, #1
8780047a:	f8c7 3094 	str.w	r3, [r7, #148]	; 0x94
8780047e:	f8d7 3094 	ldr.w	r3, [r7, #148]	; 0x94
87800482:	2b0a      	cmp	r3, #10
87800484:	d102      	bne.n	8780048c <main+0x1ac>
87800486:	2300      	movs	r3, #0
87800488:	f8c7 3094 	str.w	r3, [r7, #148]	; 0x94
8780048c:	20c8      	movs	r0, #200	; 0xc8
8780048e:	f000 fba7 	bl	87800be0 <delayms>
87800492:	f000 f8af 	bl	878005f4 <switch_led>
87800496:	e77c      	b.n	87800392 <main+0xb2>
87800498:	0000a110 	andeq	sl, r0, r0, lsl r1
8780049c:	000057d4 	ldrdeq	r5, [r0], -r4
878004a0:	000057da 	ldrdeq	r5, [r0], -sl
878004a4:	000057c2 	andeq	r5, r0, r2, asr #15
878004a8:	00000004 	andeq	r0, r0, r4
878004ac:	0000576a 	andeq	r5, r0, sl, ror #14
878004b0:	00005746 	andeq	r5, r0, r6, asr #14
878004b4:	00005738 	andeq	r5, r0, r8, lsr r7
878004b8:	000056e0 	andeq	r5, r0, r0, ror #13

878004bc <IOMUXC_SetPinMux>:
878004bc:	b480      	push	{r7}
878004be:	b085      	sub	sp, #20
878004c0:	af00      	add	r7, sp, #0
878004c2:	60f8      	str	r0, [r7, #12]
878004c4:	60b9      	str	r1, [r7, #8]
878004c6:	607a      	str	r2, [r7, #4]
878004c8:	603b      	str	r3, [r7, #0]
878004ca:	68bb      	ldr	r3, [r7, #8]
878004cc:	f003 010f 	and.w	r1, r3, #15
878004d0:	69fb      	ldr	r3, [r7, #28]
878004d2:	011b      	lsls	r3, r3, #4
878004d4:	f003 0210 	and.w	r2, r3, #16
878004d8:	68fb      	ldr	r3, [r7, #12]
878004da:	430a      	orrs	r2, r1
878004dc:	601a      	str	r2, [r3, #0]
878004de:	687b      	ldr	r3, [r7, #4]
878004e0:	2b00      	cmp	r3, #0
878004e2:	d004      	beq.n	878004ee <IOMUXC_SetPinMux+0x32>
878004e4:	687b      	ldr	r3, [r7, #4]
878004e6:	683a      	ldr	r2, [r7, #0]
878004e8:	f002 0207 	and.w	r2, r2, #7
878004ec:	601a      	str	r2, [r3, #0]
878004ee:	bf00      	nop
878004f0:	3714      	adds	r7, #20
878004f2:	46bd      	mov	sp, r7
878004f4:	f85d 7b04 	ldr.w	r7, [sp], #4
878004f8:	4770      	bx	lr

878004fa <IOMUXC_SetPinConfig>:
878004fa:	b480      	push	{r7}
878004fc:	b085      	sub	sp, #20
878004fe:	af00      	add	r7, sp, #0
87800500:	60f8      	str	r0, [r7, #12]
87800502:	60b9      	str	r1, [r7, #8]
87800504:	607a      	str	r2, [r7, #4]
87800506:	603b      	str	r3, [r7, #0]
87800508:	69bb      	ldr	r3, [r7, #24]
8780050a:	2b00      	cmp	r3, #0
8780050c:	d002      	beq.n	87800514 <IOMUXC_SetPinConfig+0x1a>
8780050e:	69bb      	ldr	r3, [r7, #24]
87800510:	69fa      	ldr	r2, [r7, #28]
87800512:	601a      	str	r2, [r3, #0]
87800514:	bf00      	nop
87800516:	3714      	adds	r7, #20
87800518:	46bd      	mov	sp, r7
8780051a:	f85d 7b04 	ldr.w	r7, [sp], #4
8780051e:	4770      	bx	lr

87800520 <init_io_led>:
87800520:	b580      	push	{r7, lr}
87800522:	b082      	sub	sp, #8
87800524:	af02      	add	r7, sp, #8
87800526:	2300      	movs	r3, #0
87800528:	9301      	str	r3, [sp, #4]
8780052a:	f44f 733d 	mov.w	r3, #756	; 0x2f4
8780052e:	f2c0 230e 	movt	r3, #526	; 0x20e
87800532:	9300      	str	r3, [sp, #0]
87800534:	2300      	movs	r3, #0
87800536:	2200      	movs	r2, #0
87800538:	2105      	movs	r1, #5
8780053a:	2068      	movs	r0, #104	; 0x68
8780053c:	f2c0 200e 	movt	r0, #526	; 0x20e
87800540:	f7ff ffbc 	bl	878004bc <IOMUXC_SetPinMux>
87800544:	f241 03b0 	movw	r3, #4272	; 0x10b0
87800548:	9301      	str	r3, [sp, #4]
8780054a:	f44f 733d 	mov.w	r3, #756	; 0x2f4
8780054e:	f2c0 230e 	movt	r3, #526	; 0x20e
87800552:	9300      	str	r3, [sp, #0]
87800554:	2300      	movs	r3, #0
87800556:	2200      	movs	r2, #0
87800558:	2105      	movs	r1, #5
8780055a:	2068      	movs	r0, #104	; 0x68
8780055c:	f2c0 200e 	movt	r0, #526	; 0x20e
87800560:	f7ff ffcb 	bl	878004fa <IOMUXC_SetPinConfig>
87800564:	bf00      	nop
87800566:	46bd      	mov	sp, r7
87800568:	bd80      	pop	{r7, pc}

8780056a <init_led>:
8780056a:	b480      	push	{r7}
8780056c:	af00      	add	r7, sp, #0
8780056e:	f44f 4340 	mov.w	r3, #49152	; 0xc000
87800572:	f2c0 2309 	movt	r3, #521	; 0x209
87800576:	685a      	ldr	r2, [r3, #4]
87800578:	f44f 4340 	mov.w	r3, #49152	; 0xc000
8780057c:	f2c0 2309 	movt	r3, #521	; 0x209
87800580:	f042 0208 	orr.w	r2, r2, #8
87800584:	605a      	str	r2, [r3, #4]
87800586:	f44f 4340 	mov.w	r3, #49152	; 0xc000
8780058a:	f2c0 2309 	movt	r3, #521	; 0x209
8780058e:	681a      	ldr	r2, [r3, #0]
87800590:	f44f 4340 	mov.w	r3, #49152	; 0xc000
87800594:	f2c0 2309 	movt	r3, #521	; 0x209
87800598:	f022 0208 	bic.w	r2, r2, #8
8780059c:	601a      	str	r2, [r3, #0]
8780059e:	bf00      	nop
878005a0:	46bd      	mov	sp, r7
878005a2:	f85d 7b04 	ldr.w	r7, [sp], #4
878005a6:	4770      	bx	lr

878005a8 <turn_on_led>:
878005a8:	b480      	push	{r7}
878005aa:	af00      	add	r7, sp, #0
878005ac:	f44f 4340 	mov.w	r3, #49152	; 0xc000
878005b0:	f2c0 2309 	movt	r3, #521	; 0x209
878005b4:	681a      	ldr	r2, [r3, #0]
878005b6:	f44f 4340 	mov.w	r3, #49152	; 0xc000
878005ba:	f2c0 2309 	movt	r3, #521	; 0x209
878005be:	f022 0208 	bic.w	r2, r2, #8
878005c2:	601a      	str	r2, [r3, #0]
878005c4:	bf00      	nop
878005c6:	46bd      	mov	sp, r7
878005c8:	f85d 7b04 	ldr.w	r7, [sp], #4
878005cc:	4770      	bx	lr

878005ce <turn_off_led>:
878005ce:	b480      	push	{r7}
878005d0:	af00      	add	r7, sp, #0
878005d2:	f44f 4340 	mov.w	r3, #49152	; 0xc000
878005d6:	f2c0 2309 	movt	r3, #521	; 0x209
878005da:	681a      	ldr	r2, [r3, #0]
878005dc:	f44f 4340 	mov.w	r3, #49152	; 0xc000
878005e0:	f2c0 2309 	movt	r3, #521	; 0x209
878005e4:	f042 0208 	orr.w	r2, r2, #8
878005e8:	601a      	str	r2, [r3, #0]
878005ea:	bf00      	nop
878005ec:	46bd      	mov	sp, r7
878005ee:	f85d 7b04 	ldr.w	r7, [sp], #4
878005f2:	4770      	bx	lr

878005f4 <switch_led>:
878005f4:	b480      	push	{r7}
878005f6:	af00      	add	r7, sp, #0
878005f8:	f44f 4340 	mov.w	r3, #49152	; 0xc000
878005fc:	f2c0 2309 	movt	r3, #521	; 0x209
87800600:	681a      	ldr	r2, [r3, #0]
87800602:	f44f 4340 	mov.w	r3, #49152	; 0xc000
87800606:	f2c0 2309 	movt	r3, #521	; 0x209
8780060a:	f082 0208 	eor.w	r2, r2, #8
8780060e:	601a      	str	r2, [r3, #0]
87800610:	bf00      	nop
87800612:	46bd      	mov	sp, r7
87800614:	f85d 7b04 	ldr.w	r7, [sp], #4
87800618:	4770      	bx	lr

8780061a <IOMUXC_SetPinMux>:
8780061a:	b480      	push	{r7}
8780061c:	b085      	sub	sp, #20
8780061e:	af00      	add	r7, sp, #0
87800620:	60f8      	str	r0, [r7, #12]
87800622:	60b9      	str	r1, [r7, #8]
87800624:	607a      	str	r2, [r7, #4]
87800626:	603b      	str	r3, [r7, #0]
87800628:	68bb      	ldr	r3, [r7, #8]
8780062a:	f003 010f 	and.w	r1, r3, #15
8780062e:	69fb      	ldr	r3, [r7, #28]
87800630:	011b      	lsls	r3, r3, #4
87800632:	f003 0210 	and.w	r2, r3, #16
87800636:	68fb      	ldr	r3, [r7, #12]
87800638:	430a      	orrs	r2, r1
8780063a:	601a      	str	r2, [r3, #0]
8780063c:	687b      	ldr	r3, [r7, #4]
8780063e:	2b00      	cmp	r3, #0
87800640:	d004      	beq.n	8780064c <IOMUXC_SetPinMux+0x32>
87800642:	687b      	ldr	r3, [r7, #4]
87800644:	683a      	ldr	r2, [r7, #0]
87800646:	f002 0207 	and.w	r2, r2, #7
8780064a:	601a      	str	r2, [r3, #0]
8780064c:	bf00      	nop
8780064e:	3714      	adds	r7, #20
87800650:	46bd      	mov	sp, r7
87800652:	f85d 7b04 	ldr.w	r7, [sp], #4
87800656:	4770      	bx	lr

87800658 <IOMUXC_SetPinConfig>:
87800658:	b480      	push	{r7}
8780065a:	b085      	sub	sp, #20
8780065c:	af00      	add	r7, sp, #0
8780065e:	60f8      	str	r0, [r7, #12]
87800660:	60b9      	str	r1, [r7, #8]
87800662:	607a      	str	r2, [r7, #4]
87800664:	603b      	str	r3, [r7, #0]
87800666:	69bb      	ldr	r3, [r7, #24]
87800668:	2b00      	cmp	r3, #0
8780066a:	d002      	beq.n	87800672 <IOMUXC_SetPinConfig+0x1a>
8780066c:	69bb      	ldr	r3, [r7, #24]
8780066e:	69fa      	ldr	r2, [r7, #28]
87800670:	601a      	str	r2, [r3, #0]
87800672:	bf00      	nop
87800674:	3714      	adds	r7, #20
87800676:	46bd      	mov	sp, r7
87800678:	f85d 7b04 	ldr.w	r7, [sp], #4
8780067c:	4770      	bx	lr

8780067e <init_io_beep>:
8780067e:	b580      	push	{r7, lr}
87800680:	b082      	sub	sp, #8
87800682:	af02      	add	r7, sp, #8
87800684:	2300      	movs	r3, #0
87800686:	9301      	str	r3, [sp, #4]
87800688:	2350      	movs	r3, #80	; 0x50
8780068a:	f2c0 2329 	movt	r3, #553	; 0x229
8780068e:	9300      	str	r3, [sp, #0]
87800690:	2300      	movs	r3, #0
87800692:	2200      	movs	r2, #0
87800694:	2105      	movs	r1, #5
87800696:	200c      	movs	r0, #12
87800698:	f2c0 2029 	movt	r0, #553	; 0x229
8780069c:	f7ff ffbd 	bl	8780061a <IOMUXC_SetPinMux>
878006a0:	f241 03b0 	movw	r3, #4272	; 0x10b0
878006a4:	9301      	str	r3, [sp, #4]
878006a6:	2350      	movs	r3, #80	; 0x50
878006a8:	f2c0 2329 	movt	r3, #553	; 0x229
878006ac:	9300      	str	r3, [sp, #0]
878006ae:	2300      	movs	r3, #0
878006b0:	2200      	movs	r2, #0
878006b2:	2105      	movs	r1, #5
878006b4:	200c      	movs	r0, #12
878006b6:	f2c0 2029 	movt	r0, #553	; 0x229
878006ba:	f7ff ffcd 	bl	87800658 <IOMUXC_SetPinConfig>
878006be:	bf00      	nop
878006c0:	46bd      	mov	sp, r7
878006c2:	bd80      	pop	{r7, pc}

878006c4 <init_beep>:
878006c4:	b480      	push	{r7}
878006c6:	af00      	add	r7, sp, #0
878006c8:	f44f 4340 	mov.w	r3, #49152	; 0xc000
878006cc:	f2c0 230a 	movt	r3, #522	; 0x20a
878006d0:	685a      	ldr	r2, [r3, #4]
878006d2:	f44f 4340 	mov.w	r3, #49152	; 0xc000
878006d6:	f2c0 230a 	movt	r3, #522	; 0x20a
878006da:	f042 0202 	orr.w	r2, r2, #2
878006de:	605a      	str	r2, [r3, #4]
878006e0:	f44f 4340 	mov.w	r3, #49152	; 0xc000
878006e4:	f2c0 230a 	movt	r3, #522	; 0x20a
878006e8:	681a      	ldr	r2, [r3, #0]
878006ea:	f44f 4340 	mov.w	r3, #49152	; 0xc000
878006ee:	f2c0 230a 	movt	r3, #522	; 0x20a
878006f2:	f042 0202 	orr.w	r2, r2, #2
878006f6:	601a      	str	r2, [r3, #0]
878006f8:	bf00      	nop
878006fa:	46bd      	mov	sp, r7
878006fc:	f85d 7b04 	ldr.w	r7, [sp], #4
87800700:	4770      	bx	lr

87800702 <switch_beep>:
87800702:	b480      	push	{r7}
87800704:	af00      	add	r7, sp, #0
87800706:	f44f 4340 	mov.w	r3, #49152	; 0xc000
8780070a:	f2c0 230a 	movt	r3, #522	; 0x20a
8780070e:	681a      	ldr	r2, [r3, #0]
87800710:	f44f 4340 	mov.w	r3, #49152	; 0xc000
87800714:	f2c0 230a 	movt	r3, #522	; 0x20a
87800718:	f082 0202 	eor.w	r2, r2, #2
8780071c:	601a      	str	r2, [r3, #0]
8780071e:	bf00      	nop
87800720:	46bd      	mov	sp, r7
87800722:	f85d 7b04 	ldr.w	r7, [sp], #4
87800726:	4770      	bx	lr

87800728 <turn_on_beep>:
87800728:	b480      	push	{r7}
8780072a:	af00      	add	r7, sp, #0
8780072c:	f44f 4340 	mov.w	r3, #49152	; 0xc000
87800730:	f2c0 230a 	movt	r3, #522	; 0x20a
87800734:	681a      	ldr	r2, [r3, #0]
87800736:	f44f 4340 	mov.w	r3, #49152	; 0xc000
8780073a:	f2c0 230a 	movt	r3, #522	; 0x20a
8780073e:	f022 0202 	bic.w	r2, r2, #2
87800742:	601a      	str	r2, [r3, #0]
87800744:	bf00      	nop
87800746:	46bd      	mov	sp, r7
87800748:	f85d 7b04 	ldr.w	r7, [sp], #4
8780074c:	4770      	bx	lr

8780074e <turn_off_beep>:
8780074e:	b480      	push	{r7}
87800750:	af00      	add	r7, sp, #0
87800752:	f44f 4340 	mov.w	r3, #49152	; 0xc000
87800756:	f2c0 230a 	movt	r3, #522	; 0x20a
8780075a:	681a      	ldr	r2, [r3, #0]
8780075c:	f44f 4340 	mov.w	r3, #49152	; 0xc000
87800760:	f2c0 230a 	movt	r3, #522	; 0x20a
87800764:	f042 0202 	orr.w	r2, r2, #2
87800768:	601a      	str	r2, [r3, #0]
8780076a:	bf00      	nop
8780076c:	46bd      	mov	sp, r7
8780076e:	f85d 7b04 	ldr.w	r7, [sp], #4
87800772:	4770      	bx	lr

87800774 <IOMUXC_SetPinMux>:
87800774:	b480      	push	{r7}
87800776:	b085      	sub	sp, #20
87800778:	af00      	add	r7, sp, #0
8780077a:	60f8      	str	r0, [r7, #12]
8780077c:	60b9      	str	r1, [r7, #8]
8780077e:	607a      	str	r2, [r7, #4]
87800780:	603b      	str	r3, [r7, #0]
87800782:	68bb      	ldr	r3, [r7, #8]
87800784:	f003 010f 	and.w	r1, r3, #15
87800788:	69fb      	ldr	r3, [r7, #28]
8780078a:	011b      	lsls	r3, r3, #4
8780078c:	f003 0210 	and.w	r2, r3, #16
87800790:	68fb      	ldr	r3, [r7, #12]
87800792:	430a      	orrs	r2, r1
87800794:	601a      	str	r2, [r3, #0]
87800796:	687b      	ldr	r3, [r7, #4]
87800798:	2b00      	cmp	r3, #0
8780079a:	d004      	beq.n	878007a6 <IOMUXC_SetPinMux+0x32>
8780079c:	687b      	ldr	r3, [r7, #4]
8780079e:	683a      	ldr	r2, [r7, #0]
878007a0:	f002 0207 	and.w	r2, r2, #7
878007a4:	601a      	str	r2, [r3, #0]
878007a6:	bf00      	nop
878007a8:	3714      	adds	r7, #20
878007aa:	46bd      	mov	sp, r7
878007ac:	f85d 7b04 	ldr.w	r7, [sp], #4
878007b0:	4770      	bx	lr

878007b2 <IOMUXC_SetPinConfig>:
878007b2:	b480      	push	{r7}
878007b4:	b085      	sub	sp, #20
878007b6:	af00      	add	r7, sp, #0
878007b8:	60f8      	str	r0, [r7, #12]
878007ba:	60b9      	str	r1, [r7, #8]
878007bc:	607a      	str	r2, [r7, #4]
878007be:	603b      	str	r3, [r7, #0]
878007c0:	69bb      	ldr	r3, [r7, #24]
878007c2:	2b00      	cmp	r3, #0
878007c4:	d002      	beq.n	878007cc <IOMUXC_SetPinConfig+0x1a>
878007c6:	69bb      	ldr	r3, [r7, #24]
878007c8:	69fa      	ldr	r2, [r7, #28]
878007ca:	601a      	str	r2, [r3, #0]
878007cc:	bf00      	nop
878007ce:	3714      	adds	r7, #20
878007d0:	46bd      	mov	sp, r7
878007d2:	f85d 7b04 	ldr.w	r7, [sp], #4
878007d6:	4770      	bx	lr

878007d8 <init_io_key>:
878007d8:	b580      	push	{r7, lr}
878007da:	b082      	sub	sp, #8
878007dc:	af02      	add	r7, sp, #8
878007de:	2300      	movs	r3, #0
878007e0:	9301      	str	r3, [sp, #4]
878007e2:	f44f 7346 	mov.w	r3, #792	; 0x318
878007e6:	f2c0 230e 	movt	r3, #526	; 0x20e
878007ea:	9300      	str	r3, [sp, #0]
878007ec:	2300      	movs	r3, #0
878007ee:	2200      	movs	r2, #0
878007f0:	2105      	movs	r1, #5
878007f2:	208c      	movs	r0, #140	; 0x8c
878007f4:	f2c0 200e 	movt	r0, #526	; 0x20e
878007f8:	f7ff ffbc 	bl	87800774 <IOMUXC_SetPinMux>
878007fc:	f24f 0380 	movw	r3, #61568	; 0xf080
87800800:	f2c0 0301 	movt	r3, #1
87800804:	9301      	str	r3, [sp, #4]
87800806:	f44f 7346 	mov.w	r3, #792	; 0x318
8780080a:	f2c0 230e 	movt	r3, #526	; 0x20e
8780080e:	9300      	str	r3, [sp, #0]
87800810:	2300      	movs	r3, #0
87800812:	2200      	movs	r2, #0
87800814:	2105      	movs	r1, #5
87800816:	208c      	movs	r0, #140	; 0x8c
87800818:	f2c0 200e 	movt	r0, #526	; 0x20e
8780081c:	f7ff ffc9 	bl	878007b2 <IOMUXC_SetPinConfig>
87800820:	bf00      	nop
87800822:	46bd      	mov	sp, r7
87800824:	bd80      	pop	{r7, pc}

87800826 <init_key>:
87800826:	b480      	push	{r7}
87800828:	af00      	add	r7, sp, #0
8780082a:	f44f 4340 	mov.w	r3, #49152	; 0xc000
8780082e:	f2c0 2309 	movt	r3, #521	; 0x209
87800832:	685a      	ldr	r2, [r3, #4]
87800834:	f44f 4340 	mov.w	r3, #49152	; 0xc000
87800838:	f2c0 2309 	movt	r3, #521	; 0x209
8780083c:	f422 2280 	bic.w	r2, r2, #262144	; 0x40000
87800840:	605a      	str	r2, [r3, #4]
87800842:	bf00      	nop
87800844:	46bd      	mov	sp, r7
87800846:	f85d 7b04 	ldr.w	r7, [sp], #4
8780084a:	4770      	bx	lr

8780084c <read_key>:
8780084c:	b480      	push	{r7}
8780084e:	af00      	add	r7, sp, #0
87800850:	f44f 4340 	mov.w	r3, #49152	; 0xc000
87800854:	f2c0 2309 	movt	r3, #521	; 0x209
87800858:	681b      	ldr	r3, [r3, #0]
8780085a:	0c9b      	lsrs	r3, r3, #18
8780085c:	f003 0301 	and.w	r3, r3, #1
87800860:	4618      	mov	r0, r3
87800862:	46bd      	mov	sp, r7
87800864:	f85d 7b04 	ldr.w	r7, [sp], #4
87800868:	4770      	bx	lr
	...

8780086c <gpio_init>:
8780086c:	b580      	push	{r7, lr}
8780086e:	b084      	sub	sp, #16
87800870:	af00      	add	r7, sp, #0
87800872:	60f8      	str	r0, [r7, #12]
87800874:	60b9      	str	r1, [r7, #8]
87800876:	607a      	str	r2, [r7, #4]
87800878:	68fb      	ldr	r3, [r7, #12]
8780087a:	695a      	ldr	r2, [r3, #20]
8780087c:	2101      	movs	r1, #1
8780087e:	68bb      	ldr	r3, [r7, #8]
87800880:	fa01 f303 	lsl.w	r3, r1, r3
87800884:	43db      	mvns	r3, r3
87800886:	401a      	ands	r2, r3
87800888:	68fb      	ldr	r3, [r7, #12]
8780088a:	615a      	str	r2, [r3, #20]
8780088c:	687b      	ldr	r3, [r7, #4]
8780088e:	681b      	ldr	r3, [r3, #0]
87800890:	2b00      	cmp	r3, #0
87800892:	d10a      	bne.n	878008aa <gpio_init+0x3e>
87800894:	68fb      	ldr	r3, [r7, #12]
87800896:	685a      	ldr	r2, [r3, #4]
87800898:	2101      	movs	r1, #1
8780089a:	68bb      	ldr	r3, [r7, #8]
8780089c:	fa01 f303 	lsl.w	r3, r1, r3
878008a0:	43db      	mvns	r3, r3
878008a2:	401a      	ands	r2, r3
878008a4:	68fb      	ldr	r3, [r7, #12]
878008a6:	605a      	str	r2, [r3, #4]
878008a8:	e00f      	b.n	878008ca <gpio_init+0x5e>
878008aa:	68fb      	ldr	r3, [r7, #12]
878008ac:	685a      	ldr	r2, [r3, #4]
878008ae:	2101      	movs	r1, #1
878008b0:	68bb      	ldr	r3, [r7, #8]
878008b2:	fa01 f303 	lsl.w	r3, r1, r3
878008b6:	431a      	orrs	r2, r3
878008b8:	68fb      	ldr	r3, [r7, #12]
878008ba:	605a      	str	r2, [r3, #4]
878008bc:	687b      	ldr	r3, [r7, #4]
878008be:	791b      	ldrb	r3, [r3, #4]
878008c0:	461a      	mov	r2, r3
878008c2:	68b9      	ldr	r1, [r7, #8]
878008c4:	68f8      	ldr	r0, [r7, #12]
878008c6:	f000 f81d 	bl	87800904 <gpio_pinwrite>
878008ca:	68b9      	ldr	r1, [r7, #8]
878008cc:	687b      	ldr	r3, [r7, #4]
878008ce:	689b      	ldr	r3, [r3, #8]
878008d0:	461a      	mov	r2, r3
878008d2:	68f8      	ldr	r0, [r7, #12]
878008d4:	f000 f839 	bl	8780094a <gpio_intconfig>
878008d8:	bf00      	nop
878008da:	3710      	adds	r7, #16
878008dc:	46bd      	mov	sp, r7
878008de:	bd80      	pop	{r7, pc}

878008e0 <gpio_pinread>:
878008e0:	b480      	push	{r7}
878008e2:	b083      	sub	sp, #12
878008e4:	af00      	add	r7, sp, #0
878008e6:	6078      	str	r0, [r7, #4]
878008e8:	6039      	str	r1, [r7, #0]
878008ea:	687b      	ldr	r3, [r7, #4]
878008ec:	681a      	ldr	r2, [r3, #0]
878008ee:	683b      	ldr	r3, [r7, #0]
878008f0:	fa22 f303 	lsr.w	r3, r2, r3
878008f4:	f003 0301 	and.w	r3, r3, #1
878008f8:	4618      	mov	r0, r3
878008fa:	370c      	adds	r7, #12
878008fc:	46bd      	mov	sp, r7
878008fe:	f85d 7b04 	ldr.w	r7, [sp], #4
87800902:	4770      	bx	lr

87800904 <gpio_pinwrite>:
87800904:	b480      	push	{r7}
87800906:	b085      	sub	sp, #20
87800908:	af00      	add	r7, sp, #0
8780090a:	60f8      	str	r0, [r7, #12]
8780090c:	60b9      	str	r1, [r7, #8]
8780090e:	607a      	str	r2, [r7, #4]
87800910:	687b      	ldr	r3, [r7, #4]
87800912:	2b00      	cmp	r3, #0
87800914:	d10a      	bne.n	8780092c <gpio_pinwrite+0x28>
87800916:	68fb      	ldr	r3, [r7, #12]
87800918:	681a      	ldr	r2, [r3, #0]
8780091a:	2101      	movs	r1, #1
8780091c:	68bb      	ldr	r3, [r7, #8]
8780091e:	fa01 f303 	lsl.w	r3, r1, r3
87800922:	43db      	mvns	r3, r3
87800924:	401a      	ands	r2, r3
87800926:	68fb      	ldr	r3, [r7, #12]
87800928:	601a      	str	r2, [r3, #0]
8780092a:	e008      	b.n	8780093e <gpio_pinwrite+0x3a>
8780092c:	68fb      	ldr	r3, [r7, #12]
8780092e:	681a      	ldr	r2, [r3, #0]
87800930:	2101      	movs	r1, #1
87800932:	68bb      	ldr	r3, [r7, #8]
87800934:	fa01 f303 	lsl.w	r3, r1, r3
87800938:	431a      	orrs	r2, r3
8780093a:	68fb      	ldr	r3, [r7, #12]
8780093c:	601a      	str	r2, [r3, #0]
8780093e:	bf00      	nop
87800940:	3714      	adds	r7, #20
87800942:	46bd      	mov	sp, r7
87800944:	f85d 7b04 	ldr.w	r7, [sp], #4
87800948:	4770      	bx	lr

8780094a <gpio_intconfig>:
8780094a:	b480      	push	{r7}
8780094c:	b087      	sub	sp, #28
8780094e:	af00      	add	r7, sp, #0
87800950:	60f8      	str	r0, [r7, #12]
87800952:	60b9      	str	r1, [r7, #8]
87800954:	607a      	str	r2, [r7, #4]
87800956:	68bb      	ldr	r3, [r7, #8]
87800958:	613b      	str	r3, [r7, #16]
8780095a:	68fb      	ldr	r3, [r7, #12]
8780095c:	69da      	ldr	r2, [r3, #28]
8780095e:	2101      	movs	r1, #1
87800960:	68bb      	ldr	r3, [r7, #8]
87800962:	fa01 f303 	lsl.w	r3, r1, r3
87800966:	43db      	mvns	r3, r3
87800968:	401a      	ands	r2, r3
8780096a:	68fb      	ldr	r3, [r7, #12]
8780096c:	61da      	str	r2, [r3, #28]
8780096e:	68bb      	ldr	r3, [r7, #8]
87800970:	2b0f      	cmp	r3, #15
87800972:	d803      	bhi.n	8780097c <gpio_intconfig+0x32>
87800974:	68fb      	ldr	r3, [r7, #12]
87800976:	330c      	adds	r3, #12
87800978:	617b      	str	r3, [r7, #20]
8780097a:	e005      	b.n	87800988 <gpio_intconfig+0x3e>
8780097c:	68fb      	ldr	r3, [r7, #12]
8780097e:	3310      	adds	r3, #16
87800980:	617b      	str	r3, [r7, #20]
87800982:	693b      	ldr	r3, [r7, #16]
87800984:	3b10      	subs	r3, #16
87800986:	613b      	str	r3, [r7, #16]
87800988:	687b      	ldr	r3, [r7, #4]
8780098a:	3b01      	subs	r3, #1
8780098c:	2b04      	cmp	r3, #4
8780098e:	d854      	bhi.n	87800a3a <gpio_intconfig+0xf0>
87800990:	a202      	add	r2, pc, #8	; (adr r2, 8780099c <gpio_intconfig+0x52>)
87800992:	f852 3023 	ldr.w	r3, [r2, r3, lsl #2]
87800996:	441a      	add	r2, r3
87800998:	4710      	bx	r2
8780099a:	bf00      	nop
8780099c:	00000015 	andeq	r0, r0, r5, lsl r0
878009a0:	0000002d 	andeq	r0, r0, sp, lsr #32
878009a4:	00000051 	andeq	r0, r0, r1, asr r0
878009a8:	00000075 	andeq	r0, r0, r5, ror r0
878009ac:	0000008b 	andeq	r0, r0, fp, lsl #1
878009b0:	697b      	ldr	r3, [r7, #20]
878009b2:	681a      	ldr	r2, [r3, #0]
878009b4:	693b      	ldr	r3, [r7, #16]
878009b6:	005b      	lsls	r3, r3, #1
878009b8:	2103      	movs	r1, #3
878009ba:	fa01 f303 	lsl.w	r3, r1, r3
878009be:	43db      	mvns	r3, r3
878009c0:	401a      	ands	r2, r3
878009c2:	697b      	ldr	r3, [r7, #20]
878009c4:	601a      	str	r2, [r3, #0]
878009c6:	e039      	b.n	87800a3c <gpio_intconfig+0xf2>
878009c8:	697b      	ldr	r3, [r7, #20]
878009ca:	681a      	ldr	r2, [r3, #0]
878009cc:	693b      	ldr	r3, [r7, #16]
878009ce:	005b      	lsls	r3, r3, #1
878009d0:	2103      	movs	r1, #3
878009d2:	fa01 f303 	lsl.w	r3, r1, r3
878009d6:	43db      	mvns	r3, r3
878009d8:	401a      	ands	r2, r3
878009da:	693b      	ldr	r3, [r7, #16]
878009dc:	005b      	lsls	r3, r3, #1
878009de:	2101      	movs	r1, #1
878009e0:	fa01 f303 	lsl.w	r3, r1, r3
878009e4:	431a      	orrs	r2, r3
878009e6:	697b      	ldr	r3, [r7, #20]
878009e8:	601a      	str	r2, [r3, #0]
878009ea:	e027      	b.n	87800a3c <gpio_intconfig+0xf2>
878009ec:	697b      	ldr	r3, [r7, #20]
878009ee:	681a      	ldr	r2, [r3, #0]
878009f0:	693b      	ldr	r3, [r7, #16]
878009f2:	005b      	lsls	r3, r3, #1
878009f4:	2103      	movs	r1, #3
878009f6:	fa01 f303 	lsl.w	r3, r1, r3
878009fa:	43db      	mvns	r3, r3
878009fc:	401a      	ands	r2, r3
878009fe:	693b      	ldr	r3, [r7, #16]
87800a00:	005b      	lsls	r3, r3, #1
87800a02:	2102      	movs	r1, #2
87800a04:	fa01 f303 	lsl.w	r3, r1, r3
87800a08:	431a      	orrs	r2, r3
87800a0a:	697b      	ldr	r3, [r7, #20]
87800a0c:	601a      	str	r2, [r3, #0]
87800a0e:	e015      	b.n	87800a3c <gpio_intconfig+0xf2>
87800a10:	697b      	ldr	r3, [r7, #20]
87800a12:	681a      	ldr	r2, [r3, #0]
87800a14:	693b      	ldr	r3, [r7, #16]
87800a16:	005b      	lsls	r3, r3, #1
87800a18:	2103      	movs	r1, #3
87800a1a:	fa01 f303 	lsl.w	r3, r1, r3
87800a1e:	431a      	orrs	r2, r3
87800a20:	697b      	ldr	r3, [r7, #20]
87800a22:	601a      	str	r2, [r3, #0]
87800a24:	e00a      	b.n	87800a3c <gpio_intconfig+0xf2>
87800a26:	68fb      	ldr	r3, [r7, #12]
87800a28:	69da      	ldr	r2, [r3, #28]
87800a2a:	2101      	movs	r1, #1
87800a2c:	68bb      	ldr	r3, [r7, #8]
87800a2e:	fa01 f303 	lsl.w	r3, r1, r3
87800a32:	431a      	orrs	r2, r3
87800a34:	68fb      	ldr	r3, [r7, #12]
87800a36:	61da      	str	r2, [r3, #28]
87800a38:	e000      	b.n	87800a3c <gpio_intconfig+0xf2>
87800a3a:	bf00      	nop
87800a3c:	bf00      	nop
87800a3e:	371c      	adds	r7, #28
87800a40:	46bd      	mov	sp, r7
87800a42:	f85d 7b04 	ldr.w	r7, [sp], #4
87800a46:	4770      	bx	lr

87800a48 <gpio_enableint>:
87800a48:	b480      	push	{r7}
87800a4a:	b083      	sub	sp, #12
87800a4c:	af00      	add	r7, sp, #0
87800a4e:	6078      	str	r0, [r7, #4]
87800a50:	6039      	str	r1, [r7, #0]
87800a52:	687b      	ldr	r3, [r7, #4]
87800a54:	695a      	ldr	r2, [r3, #20]
87800a56:	2101      	movs	r1, #1
87800a58:	683b      	ldr	r3, [r7, #0]
87800a5a:	fa01 f303 	lsl.w	r3, r1, r3
87800a5e:	431a      	orrs	r2, r3
87800a60:	687b      	ldr	r3, [r7, #4]
87800a62:	615a      	str	r2, [r3, #20]
87800a64:	bf00      	nop
87800a66:	370c      	adds	r7, #12
87800a68:	46bd      	mov	sp, r7
87800a6a:	f85d 7b04 	ldr.w	r7, [sp], #4
87800a6e:	4770      	bx	lr

87800a70 <gpio_disableint>:
87800a70:	b480      	push	{r7}
87800a72:	b083      	sub	sp, #12
87800a74:	af00      	add	r7, sp, #0
87800a76:	6078      	str	r0, [r7, #4]
87800a78:	6039      	str	r1, [r7, #0]
87800a7a:	687b      	ldr	r3, [r7, #4]
87800a7c:	695b      	ldr	r3, [r3, #20]
87800a7e:	2101      	movs	r1, #1
87800a80:	683a      	ldr	r2, [r7, #0]
87800a82:	fa01 f202 	lsl.w	r2, r1, r2
87800a86:	43d2      	mvns	r2, r2
87800a88:	401a      	ands	r2, r3
87800a8a:	687b      	ldr	r3, [r7, #4]
87800a8c:	615a      	str	r2, [r3, #20]
87800a8e:	bf00      	nop
87800a90:	370c      	adds	r7, #12
87800a92:	46bd      	mov	sp, r7
87800a94:	f85d 7b04 	ldr.w	r7, [sp], #4
87800a98:	4770      	bx	lr

87800a9a <gpio_clearintflags>:
87800a9a:	b480      	push	{r7}
87800a9c:	b083      	sub	sp, #12
87800a9e:	af00      	add	r7, sp, #0
87800aa0:	6078      	str	r0, [r7, #4]
87800aa2:	6039      	str	r1, [r7, #0]
87800aa4:	687b      	ldr	r3, [r7, #4]
87800aa6:	699b      	ldr	r3, [r3, #24]
87800aa8:	2101      	movs	r1, #1
87800aaa:	683a      	ldr	r2, [r7, #0]
87800aac:	fa01 f202 	lsl.w	r2, r1, r2
87800ab0:	431a      	orrs	r2, r3
87800ab2:	687b      	ldr	r3, [r7, #4]
87800ab4:	619a      	str	r2, [r3, #24]
87800ab6:	bf00      	nop
87800ab8:	370c      	adds	r7, #12
87800aba:	46bd      	mov	sp, r7
87800abc:	f85d 7b04 	ldr.w	r7, [sp], #4
87800ac0:	4770      	bx	lr
87800ac2:	bf00      	nop

87800ac4 <delay_init>:
87800ac4:	b480      	push	{r7}
87800ac6:	af00      	add	r7, sp, #0
87800ac8:	f44f 4300 	mov.w	r3, #32768	; 0x8000
87800acc:	f2c0 2309 	movt	r3, #521	; 0x209
87800ad0:	2200      	movs	r2, #0
87800ad2:	601a      	str	r2, [r3, #0]
87800ad4:	f44f 4300 	mov.w	r3, #32768	; 0x8000
87800ad8:	f2c0 2309 	movt	r3, #521	; 0x209
87800adc:	f44f 4200 	mov.w	r2, #32768	; 0x8000
87800ae0:	601a      	str	r2, [r3, #0]
87800ae2:	bf00      	nop
87800ae4:	f44f 4300 	mov.w	r3, #32768	; 0x8000
87800ae8:	f2c0 2309 	movt	r3, #521	; 0x209
87800aec:	681b      	ldr	r3, [r3, #0]
87800aee:	f403 4300 	and.w	r3, r3, #32768	; 0x8000
87800af2:	2b00      	cmp	r3, #0
87800af4:	d1f6      	bne.n	87800ae4 <delay_init+0x20>
87800af6:	f44f 4300 	mov.w	r3, #32768	; 0x8000
87800afa:	f2c0 2309 	movt	r3, #521	; 0x209
87800afe:	2240      	movs	r2, #64	; 0x40
87800b00:	601a      	str	r2, [r3, #0]
87800b02:	f44f 4300 	mov.w	r3, #32768	; 0x8000
87800b06:	f2c0 2309 	movt	r3, #521	; 0x209
87800b0a:	2241      	movs	r2, #65	; 0x41
87800b0c:	605a      	str	r2, [r3, #4]
87800b0e:	f44f 4300 	mov.w	r3, #32768	; 0x8000
87800b12:	f2c0 2309 	movt	r3, #521	; 0x209
87800b16:	f04f 32ff 	mov.w	r2, #4294967295	; 0xffffffff
87800b1a:	611a      	str	r2, [r3, #16]
87800b1c:	f44f 4300 	mov.w	r3, #32768	; 0x8000
87800b20:	f2c0 2309 	movt	r3, #521	; 0x209
87800b24:	681a      	ldr	r2, [r3, #0]
87800b26:	f44f 4300 	mov.w	r3, #32768	; 0x8000
87800b2a:	f2c0 2309 	movt	r3, #521	; 0x209
87800b2e:	f042 0201 	orr.w	r2, r2, #1
87800b32:	601a      	str	r2, [r3, #0]
87800b34:	bf00      	nop
87800b36:	46bd      	mov	sp, r7
87800b38:	f85d 7b04 	ldr.w	r7, [sp], #4
87800b3c:	4770      	bx	lr

87800b3e <gpt1_irqhandler>:
87800b3e:	b580      	push	{r7, lr}
87800b40:	af00      	add	r7, sp, #0
87800b42:	f44f 4300 	mov.w	r3, #32768	; 0x8000
87800b46:	f2c0 2309 	movt	r3, #521	; 0x209
87800b4a:	689b      	ldr	r3, [r3, #8]
87800b4c:	f003 0301 	and.w	r3, r3, #1
87800b50:	2b00      	cmp	r3, #0
87800b52:	d001      	beq.n	87800b58 <gpt1_irqhandler+0x1a>
87800b54:	f7ff fd4e 	bl	878005f4 <switch_led>
87800b58:	f44f 4300 	mov.w	r3, #32768	; 0x8000
87800b5c:	f2c0 2309 	movt	r3, #521	; 0x209
87800b60:	689a      	ldr	r2, [r3, #8]
87800b62:	f44f 4300 	mov.w	r3, #32768	; 0x8000
87800b66:	f2c0 2309 	movt	r3, #521	; 0x209
87800b6a:	f042 0201 	orr.w	r2, r2, #1
87800b6e:	609a      	str	r2, [r3, #8]
87800b70:	bf00      	nop
87800b72:	bd80      	pop	{r7, pc}

87800b74 <delayus>:
87800b74:	b480      	push	{r7}
87800b76:	b087      	sub	sp, #28
87800b78:	af00      	add	r7, sp, #0
87800b7a:	6078      	str	r0, [r7, #4]
87800b7c:	2300      	movs	r3, #0
87800b7e:	613b      	str	r3, [r7, #16]
87800b80:	f44f 4300 	mov.w	r3, #32768	; 0x8000
87800b84:	f2c0 2309 	movt	r3, #521	; 0x209
87800b88:	6a5b      	ldr	r3, [r3, #36]	; 0x24
87800b8a:	617b      	str	r3, [r7, #20]
87800b8c:	f44f 4300 	mov.w	r3, #32768	; 0x8000
87800b90:	f2c0 2309 	movt	r3, #521	; 0x209
87800b94:	6a5b      	ldr	r3, [r3, #36]	; 0x24
87800b96:	60fb      	str	r3, [r7, #12]
87800b98:	68fa      	ldr	r2, [r7, #12]
87800b9a:	697b      	ldr	r3, [r7, #20]
87800b9c:	429a      	cmp	r2, r3
87800b9e:	d0f5      	beq.n	87800b8c <delayus+0x18>
87800ba0:	68fa      	ldr	r2, [r7, #12]
87800ba2:	697b      	ldr	r3, [r7, #20]
87800ba4:	429a      	cmp	r2, r3
87800ba6:	d906      	bls.n	87800bb6 <delayus+0x42>
87800ba8:	68fa      	ldr	r2, [r7, #12]
87800baa:	697b      	ldr	r3, [r7, #20]
87800bac:	1ad3      	subs	r3, r2, r3
87800bae:	693a      	ldr	r2, [r7, #16]
87800bb0:	4413      	add	r3, r2
87800bb2:	613b      	str	r3, [r7, #16]
87800bb4:	e006      	b.n	87800bc4 <delayus+0x50>
87800bb6:	68fa      	ldr	r2, [r7, #12]
87800bb8:	697b      	ldr	r3, [r7, #20]
87800bba:	1ad2      	subs	r2, r2, r3
87800bbc:	693b      	ldr	r3, [r7, #16]
87800bbe:	4413      	add	r3, r2
87800bc0:	3b01      	subs	r3, #1
87800bc2:	613b      	str	r3, [r7, #16]
87800bc4:	68fb      	ldr	r3, [r7, #12]
87800bc6:	617b      	str	r3, [r7, #20]
87800bc8:	687b      	ldr	r3, [r7, #4]
87800bca:	693a      	ldr	r2, [r7, #16]
87800bcc:	429a      	cmp	r2, r3
87800bce:	d800      	bhi.n	87800bd2 <delayus+0x5e>
87800bd0:	e7dc      	b.n	87800b8c <delayus+0x18>
87800bd2:	bf00      	nop
87800bd4:	bf00      	nop
87800bd6:	371c      	adds	r7, #28
87800bd8:	46bd      	mov	sp, r7
87800bda:	f85d 7b04 	ldr.w	r7, [sp], #4
87800bde:	4770      	bx	lr

87800be0 <delayms>:
87800be0:	b580      	push	{r7, lr}
87800be2:	b084      	sub	sp, #16
87800be4:	af00      	add	r7, sp, #0
87800be6:	6078      	str	r0, [r7, #4]
87800be8:	2300      	movs	r3, #0
87800bea:	60fb      	str	r3, [r7, #12]
87800bec:	2300      	movs	r3, #0
87800bee:	60fb      	str	r3, [r7, #12]
87800bf0:	e006      	b.n	87800c00 <delayms+0x20>
87800bf2:	f44f 707a 	mov.w	r0, #1000	; 0x3e8
87800bf6:	f7ff ffbd 	bl	87800b74 <delayus>
87800bfa:	68fb      	ldr	r3, [r7, #12]
87800bfc:	3301      	adds	r3, #1
87800bfe:	60fb      	str	r3, [r7, #12]
87800c00:	68fa      	ldr	r2, [r7, #12]
87800c02:	687b      	ldr	r3, [r7, #4]
87800c04:	429a      	cmp	r2, r3
87800c06:	d3f4      	bcc.n	87800bf2 <delayms+0x12>
87800c08:	bf00      	nop
87800c0a:	bf00      	nop
87800c0c:	3710      	adds	r7, #16
87800c0e:	46bd      	mov	sp, r7
87800c10:	bd80      	pop	{r7, pc}

87800c12 <delay>:
87800c12:	b580      	push	{r7, lr}
87800c14:	b084      	sub	sp, #16
87800c16:	af00      	add	r7, sp, #0
87800c18:	6078      	str	r0, [r7, #4]
87800c1a:	2300      	movs	r3, #0
87800c1c:	60fb      	str	r3, [r7, #12]
87800c1e:	2300      	movs	r3, #0
87800c20:	60fb      	str	r3, [r7, #12]
87800c22:	e006      	b.n	87800c32 <delay+0x20>
87800c24:	f44f 707a 	mov.w	r0, #1000	; 0x3e8
87800c28:	f7ff ffda 	bl	87800be0 <delayms>
87800c2c:	68fb      	ldr	r3, [r7, #12]
87800c2e:	3301      	adds	r3, #1
87800c30:	60fb      	str	r3, [r7, #12]
87800c32:	68fa      	ldr	r2, [r7, #12]
87800c34:	687b      	ldr	r3, [r7, #4]
87800c36:	429a      	cmp	r2, r3
87800c38:	d3f4      	bcc.n	87800c24 <delay+0x12>
87800c3a:	bf00      	nop
87800c3c:	bf00      	nop
87800c3e:	3710      	adds	r7, #16
87800c40:	46bd      	mov	sp, r7
87800c42:	bd80      	pop	{r7, pc}

87800c44 <IOMUXC_SetPinMux>:
87800c44:	b480      	push	{r7}
87800c46:	b085      	sub	sp, #20
87800c48:	af00      	add	r7, sp, #0
87800c4a:	60f8      	str	r0, [r7, #12]
87800c4c:	60b9      	str	r1, [r7, #8]
87800c4e:	607a      	str	r2, [r7, #4]
87800c50:	603b      	str	r3, [r7, #0]
87800c52:	68bb      	ldr	r3, [r7, #8]
87800c54:	f003 010f 	and.w	r1, r3, #15
87800c58:	69fb      	ldr	r3, [r7, #28]
87800c5a:	011b      	lsls	r3, r3, #4
87800c5c:	f003 0210 	and.w	r2, r3, #16
87800c60:	68fb      	ldr	r3, [r7, #12]
87800c62:	430a      	orrs	r2, r1
87800c64:	601a      	str	r2, [r3, #0]
87800c66:	687b      	ldr	r3, [r7, #4]
87800c68:	2b00      	cmp	r3, #0
87800c6a:	d004      	beq.n	87800c76 <IOMUXC_SetPinMux+0x32>
87800c6c:	687b      	ldr	r3, [r7, #4]
87800c6e:	683a      	ldr	r2, [r7, #0]
87800c70:	f002 0207 	and.w	r2, r2, #7
87800c74:	601a      	str	r2, [r3, #0]
87800c76:	bf00      	nop
87800c78:	3714      	adds	r7, #20
87800c7a:	46bd      	mov	sp, r7
87800c7c:	f85d 7b04 	ldr.w	r7, [sp], #4
87800c80:	4770      	bx	lr

87800c82 <IOMUXC_SetPinConfig>:
87800c82:	b480      	push	{r7}
87800c84:	b085      	sub	sp, #20
87800c86:	af00      	add	r7, sp, #0
87800c88:	60f8      	str	r0, [r7, #12]
87800c8a:	60b9      	str	r1, [r7, #8]
87800c8c:	607a      	str	r2, [r7, #4]
87800c8e:	603b      	str	r3, [r7, #0]
87800c90:	69bb      	ldr	r3, [r7, #24]
87800c92:	2b00      	cmp	r3, #0
87800c94:	d002      	beq.n	87800c9c <IOMUXC_SetPinConfig+0x1a>
87800c96:	69bb      	ldr	r3, [r7, #24]
87800c98:	69fa      	ldr	r2, [r7, #28]
87800c9a:	601a      	str	r2, [r3, #0]
87800c9c:	bf00      	nop
87800c9e:	3714      	adds	r7, #20
87800ca0:	46bd      	mov	sp, r7
87800ca2:	f85d 7b04 	ldr.w	r7, [sp], #4
87800ca6:	4770      	bx	lr

87800ca8 <exit_init>:
87800ca8:	b580      	push	{r7, lr}
87800caa:	b088      	sub	sp, #32
87800cac:	af02      	add	r7, sp, #8
87800cae:	2300      	movs	r3, #0
87800cb0:	9301      	str	r3, [sp, #4]
87800cb2:	f44f 7346 	mov.w	r3, #792	; 0x318
87800cb6:	f2c0 230e 	movt	r3, #526	; 0x20e
87800cba:	9300      	str	r3, [sp, #0]
87800cbc:	2300      	movs	r3, #0
87800cbe:	2200      	movs	r2, #0
87800cc0:	2105      	movs	r1, #5
87800cc2:	208c      	movs	r0, #140	; 0x8c
87800cc4:	f2c0 200e 	movt	r0, #526	; 0x20e
87800cc8:	f7ff ffbc 	bl	87800c44 <IOMUXC_SetPinMux>
87800ccc:	f24f 0380 	movw	r3, #61568	; 0xf080
87800cd0:	f2c0 0301 	movt	r3, #1
87800cd4:	9301      	str	r3, [sp, #4]
87800cd6:	f44f 7346 	mov.w	r3, #792	; 0x318
87800cda:	f2c0 230e 	movt	r3, #526	; 0x20e
87800cde:	9300      	str	r3, [sp, #0]
87800ce0:	2300      	movs	r3, #0
87800ce2:	2200      	movs	r2, #0
87800ce4:	2105      	movs	r1, #5
87800ce6:	208c      	movs	r0, #140	; 0x8c
87800ce8:	f2c0 200e 	movt	r0, #526	; 0x20e
87800cec:	f7ff ffc9 	bl	87800c82 <IOMUXC_SetPinConfig>
87800cf0:	2300      	movs	r3, #0
87800cf2:	603b      	str	r3, [r7, #0]
87800cf4:	2304      	movs	r3, #4
87800cf6:	60bb      	str	r3, [r7, #8]
87800cf8:	2300      	movs	r3, #0
87800cfa:	713b      	strb	r3, [r7, #4]
87800cfc:	463b      	mov	r3, r7
87800cfe:	461a      	mov	r2, r3
87800d00:	2112      	movs	r1, #18
87800d02:	f44f 4040 	mov.w	r0, #49152	; 0xc000
87800d06:	f2c0 2009 	movt	r0, #521	; 0x209
87800d0a:	f7ff fdaf 	bl	8780086c <gpio_init>
87800d0e:	2363      	movs	r3, #99	; 0x63
87800d10:	617b      	str	r3, [r7, #20]
87800d12:	ee9f 3f10 	mrc	15, 4, r3, cr15, cr0, {0}
87800d16:	613b      	str	r3, [r7, #16]
87800d18:	693b      	ldr	r3, [r7, #16]
87800d1a:	bf00      	nop
87800d1c:	0c1b      	lsrs	r3, r3, #16
87800d1e:	041b      	lsls	r3, r3, #16
87800d20:	60fb      	str	r3, [r7, #12]
87800d22:	697b      	ldr	r3, [r7, #20]
87800d24:	f003 031f 	and.w	r3, r3, #31
87800d28:	697a      	ldr	r2, [r7, #20]
87800d2a:	0952      	lsrs	r2, r2, #5
87800d2c:	2101      	movs	r1, #1
87800d2e:	4099      	lsls	r1, r3
87800d30:	68fb      	ldr	r3, [r7, #12]
87800d32:	f502 6288 	add.w	r2, r2, #1088	; 0x440
87800d36:	f843 1022 	str.w	r1, [r3, r2, lsl #2]
87800d3a:	bf00      	nop
87800d3c:	2200      	movs	r2, #0
87800d3e:	4b0c      	ldr	r3, [pc, #48]	; (87800d70 <exit_init+0xc8>)
87800d40:	447b      	add	r3, pc
87800d42:	4619      	mov	r1, r3
87800d44:	2063      	movs	r0, #99	; 0x63
87800d46:	f004 fc8d 	bl	87805664 <system_register_irqhandler>
87800d4a:	2112      	movs	r1, #18
87800d4c:	f44f 4040 	mov.w	r0, #49152	; 0xc000
87800d50:	f2c0 2009 	movt	r0, #521	; 0x209
87800d54:	f7ff fea1 	bl	87800a9a <gpio_clearintflags>
87800d58:	2112      	movs	r1, #18
87800d5a:	f44f 4040 	mov.w	r0, #49152	; 0xc000
87800d5e:	f2c0 2009 	movt	r0, #521	; 0x209
87800d62:	f7ff fe71 	bl	87800a48 <gpio_enableint>
87800d66:	bf00      	nop
87800d68:	3718      	adds	r7, #24
87800d6a:	46bd      	mov	sp, r7
87800d6c:	bd80      	pop	{r7, pc}
87800d6e:	bf00      	nop
87800d70:	00000031 	andeq	r0, r0, r1, lsr r0

87800d74 <gpio1_io18_irqhandler>:
87800d74:	b580      	push	{r7, lr}
87800d76:	af00      	add	r7, sp, #0
87800d78:	4b06      	ldr	r3, [pc, #24]	; (87800d94 <gpio1_io18_irqhandler+0x20>)
87800d7a:	447b      	add	r3, pc
87800d7c:	2201      	movs	r2, #1
87800d7e:	701a      	strb	r2, [r3, #0]
87800d80:	2112      	movs	r1, #18
87800d82:	f44f 4040 	mov.w	r0, #49152	; 0xc000
87800d86:	f2c0 2009 	movt	r0, #521	; 0x209
87800d8a:	f7ff fe86 	bl	87800a9a <gpio_clearintflags>
87800d8e:	bf00      	nop
87800d90:	bd80      	pop	{r7, pc}
87800d92:	bf00      	nop
87800d94:	00009692 	muleq	r0, r2, r6

87800d98 <epit1_init>:
87800d98:	b580      	push	{r7, lr}
87800d9a:	b086      	sub	sp, #24
87800d9c:	af00      	add	r7, sp, #0
87800d9e:	6078      	str	r0, [r7, #4]
87800da0:	6039      	str	r1, [r7, #0]
87800da2:	687b      	ldr	r3, [r7, #4]
87800da4:	f5b3 3f80 	cmp.w	r3, #65536	; 0x10000
87800da8:	d302      	bcc.n	87800db0 <epit1_init+0x18>
87800daa:	f64f 73ff 	movw	r3, #65535	; 0xffff
87800dae:	607b      	str	r3, [r7, #4]
87800db0:	2300      	movs	r3, #0
87800db2:	f2c0 230d 	movt	r3, #525	; 0x20d
87800db6:	2200      	movs	r2, #0
87800db8:	601a      	str	r2, [r3, #0]
87800dba:	687b      	ldr	r3, [r7, #4]
87800dbc:	011b      	lsls	r3, r3, #4
87800dbe:	2200      	movs	r2, #0
87800dc0:	f2c0 220d 	movt	r2, #525	; 0x20d
87800dc4:	f043 7380 	orr.w	r3, r3, #16777216	; 0x1000000
87800dc8:	f043 030e 	orr.w	r3, r3, #14
87800dcc:	6013      	str	r3, [r2, #0]
87800dce:	2300      	movs	r3, #0
87800dd0:	f2c0 230d 	movt	r3, #525	; 0x20d
87800dd4:	683a      	ldr	r2, [r7, #0]
87800dd6:	609a      	str	r2, [r3, #8]
87800dd8:	2300      	movs	r3, #0
87800dda:	f2c0 230d 	movt	r3, #525	; 0x20d
87800dde:	2200      	movs	r2, #0
87800de0:	60da      	str	r2, [r3, #12]
87800de2:	2358      	movs	r3, #88	; 0x58
87800de4:	617b      	str	r3, [r7, #20]
87800de6:	ee9f 3f10 	mrc	15, 4, r3, cr15, cr0, {0}
87800dea:	613b      	str	r3, [r7, #16]
87800dec:	693b      	ldr	r3, [r7, #16]
87800dee:	bf00      	nop
87800df0:	0c1b      	lsrs	r3, r3, #16
87800df2:	041b      	lsls	r3, r3, #16
87800df4:	60fb      	str	r3, [r7, #12]
87800df6:	697b      	ldr	r3, [r7, #20]
87800df8:	f003 031f 	and.w	r3, r3, #31
87800dfc:	697a      	ldr	r2, [r7, #20]
87800dfe:	0952      	lsrs	r2, r2, #5
87800e00:	2101      	movs	r1, #1
87800e02:	4099      	lsls	r1, r3
87800e04:	68fb      	ldr	r3, [r7, #12]
87800e06:	f502 6288 	add.w	r2, r2, #1088	; 0x440
87800e0a:	f843 1022 	str.w	r1, [r3, r2, lsl #2]
87800e0e:	bf00      	nop
87800e10:	2200      	movs	r2, #0
87800e12:	4b0a      	ldr	r3, [pc, #40]	; (87800e3c <epit1_init+0xa4>)
87800e14:	447b      	add	r3, pc
87800e16:	4619      	mov	r1, r3
87800e18:	2058      	movs	r0, #88	; 0x58
87800e1a:	f004 fc23 	bl	87805664 <system_register_irqhandler>
87800e1e:	2300      	movs	r3, #0
87800e20:	f2c0 230d 	movt	r3, #525	; 0x20d
87800e24:	681a      	ldr	r2, [r3, #0]
87800e26:	2300      	movs	r3, #0
87800e28:	f2c0 230d 	movt	r3, #525	; 0x20d
87800e2c:	f042 0201 	orr.w	r2, r2, #1
87800e30:	601a      	str	r2, [r3, #0]
87800e32:	bf00      	nop
87800e34:	3718      	adds	r7, #24
87800e36:	46bd      	mov	sp, r7
87800e38:	bd80      	pop	{r7, pc}
87800e3a:	bf00      	nop
87800e3c:	00000029 	andeq	r0, r0, r9, lsr #32

87800e40 <epit1_irqhandler>:
87800e40:	b580      	push	{r7, lr}
87800e42:	af00      	add	r7, sp, #0
87800e44:	4b10      	ldr	r3, [pc, #64]	; (87800e88 <epit1_irqhandler+0x48>)
87800e46:	447b      	add	r3, pc
87800e48:	f993 3000 	ldrsb.w	r3, [r3]
87800e4c:	b2db      	uxtb	r3, r3
87800e4e:	425b      	negs	r3, r3
87800e50:	b2db      	uxtb	r3, r3
87800e52:	b25a      	sxtb	r2, r3
87800e54:	4b0d      	ldr	r3, [pc, #52]	; (87800e8c <epit1_irqhandler+0x4c>)
87800e56:	447b      	add	r3, pc
87800e58:	701a      	strb	r2, [r3, #0]
87800e5a:	4b0d      	ldr	r3, [pc, #52]	; (87800e90 <epit1_irqhandler+0x50>)
87800e5c:	447b      	add	r3, pc
87800e5e:	f993 3000 	ldrsb.w	r3, [r3]
87800e62:	2b00      	cmp	r3, #0
87800e64:	dd02      	ble.n	87800e6c <epit1_irqhandler+0x2c>
87800e66:	f7ff fb9f 	bl	878005a8 <turn_on_led>
87800e6a:	e001      	b.n	87800e70 <epit1_irqhandler+0x30>
87800e6c:	f7ff fbaf 	bl	878005ce <turn_off_led>
87800e70:	2300      	movs	r3, #0
87800e72:	f2c0 230d 	movt	r3, #525	; 0x20d
87800e76:	685a      	ldr	r2, [r3, #4]
87800e78:	2300      	movs	r3, #0
87800e7a:	f2c0 230d 	movt	r3, #525	; 0x20d
87800e7e:	f042 0201 	orr.w	r2, r2, #1
87800e82:	605a      	str	r2, [r3, #4]
87800e84:	bf00      	nop
87800e86:	bd80      	pop	{r7, pc}
87800e88:	000094ae 	andeq	r9, r0, lr, lsr #9
87800e8c:	0000949e 	muleq	r0, lr, r4
87800e90:	00009498 	muleq	r0, r8, r4

87800e94 <IOMUXC_SetPinMux>:
87800e94:	b480      	push	{r7}
87800e96:	b085      	sub	sp, #20
87800e98:	af00      	add	r7, sp, #0
87800e9a:	60f8      	str	r0, [r7, #12]
87800e9c:	60b9      	str	r1, [r7, #8]
87800e9e:	607a      	str	r2, [r7, #4]
87800ea0:	603b      	str	r3, [r7, #0]
87800ea2:	68bb      	ldr	r3, [r7, #8]
87800ea4:	f003 010f 	and.w	r1, r3, #15
87800ea8:	69fb      	ldr	r3, [r7, #28]
87800eaa:	011b      	lsls	r3, r3, #4
87800eac:	f003 0210 	and.w	r2, r3, #16
87800eb0:	68fb      	ldr	r3, [r7, #12]
87800eb2:	430a      	orrs	r2, r1
87800eb4:	601a      	str	r2, [r3, #0]
87800eb6:	687b      	ldr	r3, [r7, #4]
87800eb8:	2b00      	cmp	r3, #0
87800eba:	d004      	beq.n	87800ec6 <IOMUXC_SetPinMux+0x32>
87800ebc:	687b      	ldr	r3, [r7, #4]
87800ebe:	683a      	ldr	r2, [r7, #0]
87800ec0:	f002 0207 	and.w	r2, r2, #7
87800ec4:	601a      	str	r2, [r3, #0]
87800ec6:	bf00      	nop
87800ec8:	3714      	adds	r7, #20
87800eca:	46bd      	mov	sp, r7
87800ecc:	f85d 7b04 	ldr.w	r7, [sp], #4
87800ed0:	4770      	bx	lr

87800ed2 <IOMUXC_SetPinConfig>:
87800ed2:	b480      	push	{r7}
87800ed4:	b085      	sub	sp, #20
87800ed6:	af00      	add	r7, sp, #0
87800ed8:	60f8      	str	r0, [r7, #12]
87800eda:	60b9      	str	r1, [r7, #8]
87800edc:	607a      	str	r2, [r7, #4]
87800ede:	603b      	str	r3, [r7, #0]
87800ee0:	69bb      	ldr	r3, [r7, #24]
87800ee2:	2b00      	cmp	r3, #0
87800ee4:	d002      	beq.n	87800eec <IOMUXC_SetPinConfig+0x1a>
87800ee6:	69bb      	ldr	r3, [r7, #24]
87800ee8:	69fa      	ldr	r2, [r7, #28]
87800eea:	601a      	str	r2, [r3, #0]
87800eec:	bf00      	nop
87800eee:	3714      	adds	r7, #20
87800ef0:	46bd      	mov	sp, r7
87800ef2:	f85d 7b04 	ldr.w	r7, [sp], #4
87800ef6:	4770      	bx	lr

87800ef8 <filterkey_init>:
87800ef8:	b580      	push	{r7, lr}
87800efa:	b088      	sub	sp, #32
87800efc:	af02      	add	r7, sp, #8
87800efe:	2300      	movs	r3, #0
87800f00:	9301      	str	r3, [sp, #4]
87800f02:	f44f 7346 	mov.w	r3, #792	; 0x318
87800f06:	f2c0 230e 	movt	r3, #526	; 0x20e
87800f0a:	9300      	str	r3, [sp, #0]
87800f0c:	2300      	movs	r3, #0
87800f0e:	2200      	movs	r2, #0
87800f10:	2105      	movs	r1, #5
87800f12:	208c      	movs	r0, #140	; 0x8c
87800f14:	f2c0 200e 	movt	r0, #526	; 0x20e
87800f18:	f7ff ffbc 	bl	87800e94 <IOMUXC_SetPinMux>
87800f1c:	f24f 0380 	movw	r3, #61568	; 0xf080
87800f20:	9301      	str	r3, [sp, #4]
87800f22:	f44f 7346 	mov.w	r3, #792	; 0x318
87800f26:	f2c0 230e 	movt	r3, #526	; 0x20e
87800f2a:	9300      	str	r3, [sp, #0]
87800f2c:	2300      	movs	r3, #0
87800f2e:	2200      	movs	r2, #0
87800f30:	2105      	movs	r1, #5
87800f32:	208c      	movs	r0, #140	; 0x8c
87800f34:	f2c0 200e 	movt	r0, #526	; 0x20e
87800f38:	f7ff ffcb 	bl	87800ed2 <IOMUXC_SetPinConfig>
87800f3c:	2300      	movs	r3, #0
87800f3e:	603b      	str	r3, [r7, #0]
87800f40:	2304      	movs	r3, #4
87800f42:	60bb      	str	r3, [r7, #8]
87800f44:	2301      	movs	r3, #1
87800f46:	713b      	strb	r3, [r7, #4]
87800f48:	463b      	mov	r3, r7
87800f4a:	461a      	mov	r2, r3
87800f4c:	2112      	movs	r1, #18
87800f4e:	f44f 4040 	mov.w	r0, #49152	; 0xc000
87800f52:	f2c0 2009 	movt	r0, #521	; 0x209
87800f56:	f7ff fc89 	bl	8780086c <gpio_init>
87800f5a:	2363      	movs	r3, #99	; 0x63
87800f5c:	617b      	str	r3, [r7, #20]
87800f5e:	ee9f 3f10 	mrc	15, 4, r3, cr15, cr0, {0}
87800f62:	613b      	str	r3, [r7, #16]
87800f64:	693b      	ldr	r3, [r7, #16]
87800f66:	bf00      	nop
87800f68:	0c1b      	lsrs	r3, r3, #16
87800f6a:	041b      	lsls	r3, r3, #16
87800f6c:	60fb      	str	r3, [r7, #12]
87800f6e:	697b      	ldr	r3, [r7, #20]
87800f70:	f003 031f 	and.w	r3, r3, #31
87800f74:	697a      	ldr	r2, [r7, #20]
87800f76:	0952      	lsrs	r2, r2, #5
87800f78:	2101      	movs	r1, #1
87800f7a:	4099      	lsls	r1, r3
87800f7c:	68fb      	ldr	r3, [r7, #12]
87800f7e:	f502 6288 	add.w	r2, r2, #1088	; 0x440
87800f82:	f843 1022 	str.w	r1, [r3, r2, lsl #2]
87800f86:	bf00      	nop
87800f88:	2200      	movs	r2, #0
87800f8a:	4b0b      	ldr	r3, [pc, #44]	; (87800fb8 <filterkey_init+0xc0>)
87800f8c:	447b      	add	r3, pc
87800f8e:	4619      	mov	r1, r3
87800f90:	2063      	movs	r0, #99	; 0x63
87800f92:	f004 fb67 	bl	87805664 <system_register_irqhandler>
87800f96:	2112      	movs	r1, #18
87800f98:	f44f 4040 	mov.w	r0, #49152	; 0xc000
87800f9c:	f2c0 2009 	movt	r0, #521	; 0x209
87800fa0:	f7ff fd52 	bl	87800a48 <gpio_enableint>
87800fa4:	f44f 5091 	mov.w	r0, #4640	; 0x1220
87800fa8:	f2c0 000a 	movt	r0, #10
87800fac:	f000 f806 	bl	87800fbc <filtertimer_init>
87800fb0:	bf00      	nop
87800fb2:	3718      	adds	r7, #24
87800fb4:	46bd      	mov	sp, r7
87800fb6:	bd80      	pop	{r7, pc}
87800fb8:	00000179 	andeq	r0, r0, r9, ror r1

87800fbc <filtertimer_init>:
87800fbc:	b580      	push	{r7, lr}
87800fbe:	b086      	sub	sp, #24
87800fc0:	af00      	add	r7, sp, #0
87800fc2:	6078      	str	r0, [r7, #4]
87800fc4:	2300      	movs	r3, #0
87800fc6:	f2c0 230d 	movt	r3, #525	; 0x20d
87800fca:	2200      	movs	r2, #0
87800fcc:	601a      	str	r2, [r3, #0]
87800fce:	2300      	movs	r3, #0
87800fd0:	f2c0 230d 	movt	r3, #525	; 0x20d
87800fd4:	220e      	movs	r2, #14
87800fd6:	f2c0 1200 	movt	r2, #256	; 0x100
87800fda:	601a      	str	r2, [r3, #0]
87800fdc:	2300      	movs	r3, #0
87800fde:	f2c0 230d 	movt	r3, #525	; 0x20d
87800fe2:	687a      	ldr	r2, [r7, #4]
87800fe4:	609a      	str	r2, [r3, #8]
87800fe6:	2300      	movs	r3, #0
87800fe8:	f2c0 230d 	movt	r3, #525	; 0x20d
87800fec:	2200      	movs	r2, #0
87800fee:	60da      	str	r2, [r3, #12]
87800ff0:	2358      	movs	r3, #88	; 0x58
87800ff2:	617b      	str	r3, [r7, #20]
87800ff4:	ee9f 3f10 	mrc	15, 4, r3, cr15, cr0, {0}
87800ff8:	613b      	str	r3, [r7, #16]
87800ffa:	693b      	ldr	r3, [r7, #16]
87800ffc:	bf00      	nop
87800ffe:	0c1b      	lsrs	r3, r3, #16
87801000:	041b      	lsls	r3, r3, #16
87801002:	60fb      	str	r3, [r7, #12]
87801004:	697b      	ldr	r3, [r7, #20]
87801006:	f003 031f 	and.w	r3, r3, #31
8780100a:	697a      	ldr	r2, [r7, #20]
8780100c:	0952      	lsrs	r2, r2, #5
8780100e:	2101      	movs	r1, #1
87801010:	4099      	lsls	r1, r3
87801012:	68fb      	ldr	r3, [r7, #12]
87801014:	f502 6288 	add.w	r2, r2, #1088	; 0x440
87801018:	f843 1022 	str.w	r1, [r3, r2, lsl #2]
8780101c:	bf00      	nop
8780101e:	2200      	movs	r2, #0
87801020:	4b04      	ldr	r3, [pc, #16]	; (87801034 <filtertimer_init+0x78>)
87801022:	447b      	add	r3, pc
87801024:	4619      	mov	r1, r3
87801026:	2058      	movs	r0, #88	; 0x58
87801028:	f004 fb1c 	bl	87805664 <system_register_irqhandler>
8780102c:	bf00      	nop
8780102e:	3718      	adds	r7, #24
87801030:	46bd      	mov	sp, r7
87801032:	bd80      	pop	{r7, pc}
87801034:	0000007b 	andeq	r0, r0, fp, ror r0

87801038 <filtertimer_stop>:
87801038:	b480      	push	{r7}
8780103a:	af00      	add	r7, sp, #0
8780103c:	2300      	movs	r3, #0
8780103e:	f2c0 230d 	movt	r3, #525	; 0x20d
87801042:	681a      	ldr	r2, [r3, #0]
87801044:	2300      	movs	r3, #0
87801046:	f2c0 230d 	movt	r3, #525	; 0x20d
8780104a:	f022 0201 	bic.w	r2, r2, #1
8780104e:	601a      	str	r2, [r3, #0]
87801050:	bf00      	nop
87801052:	46bd      	mov	sp, r7
87801054:	f85d 7b04 	ldr.w	r7, [sp], #4
87801058:	4770      	bx	lr

8780105a <filtertimer_restart>:
8780105a:	b480      	push	{r7}
8780105c:	b083      	sub	sp, #12
8780105e:	af00      	add	r7, sp, #0
87801060:	6078      	str	r0, [r7, #4]
87801062:	2300      	movs	r3, #0
87801064:	f2c0 230d 	movt	r3, #525	; 0x20d
87801068:	681a      	ldr	r2, [r3, #0]
8780106a:	2300      	movs	r3, #0
8780106c:	f2c0 230d 	movt	r3, #525	; 0x20d
87801070:	f022 0201 	bic.w	r2, r2, #1
87801074:	601a      	str	r2, [r3, #0]
87801076:	2300      	movs	r3, #0
87801078:	f2c0 230d 	movt	r3, #525	; 0x20d
8780107c:	687a      	ldr	r2, [r7, #4]
8780107e:	609a      	str	r2, [r3, #8]
87801080:	2300      	movs	r3, #0
87801082:	f2c0 230d 	movt	r3, #525	; 0x20d
87801086:	681a      	ldr	r2, [r3, #0]
87801088:	2300      	movs	r3, #0
8780108a:	f2c0 230d 	movt	r3, #525	; 0x20d
8780108e:	f042 0201 	orr.w	r2, r2, #1
87801092:	601a      	str	r2, [r3, #0]
87801094:	bf00      	nop
87801096:	370c      	adds	r7, #12
87801098:	46bd      	mov	sp, r7
8780109a:	f85d 7b04 	ldr.w	r7, [sp], #4
8780109e:	4770      	bx	lr

878010a0 <filtertimer_irqhandler>:
878010a0:	b580      	push	{r7, lr}
878010a2:	b082      	sub	sp, #8
878010a4:	af00      	add	r7, sp, #0
878010a6:	2300      	movs	r3, #0
878010a8:	f2c0 230d 	movt	r3, #525	; 0x20d
878010ac:	685b      	ldr	r3, [r3, #4]
878010ae:	f003 0301 	and.w	r3, r3, #1
878010b2:	2b00      	cmp	r3, #0
878010b4:	d018      	beq.n	878010e8 <filtertimer_irqhandler+0x48>
878010b6:	f7ff ffbf 	bl	87801038 <filtertimer_stop>
878010ba:	2112      	movs	r1, #18
878010bc:	f44f 4040 	mov.w	r0, #49152	; 0xc000
878010c0:	f2c0 2009 	movt	r0, #521	; 0x209
878010c4:	f7ff fc0c 	bl	878008e0 <gpio_pinread>
878010c8:	4603      	mov	r3, r0
878010ca:	2b00      	cmp	r3, #0
878010cc:	d10c      	bne.n	878010e8 <filtertimer_irqhandler+0x48>
878010ce:	f7ff fb18 	bl	87800702 <switch_beep>
878010d2:	4a0c      	ldr	r2, [pc, #48]	; (87801104 <filtertimer_irqhandler+0x64>)
878010d4:	447a      	add	r2, pc
878010d6:	463b      	mov	r3, r7
878010d8:	e892 0003 	ldmia.w	r2, {r0, r1}
878010dc:	e883 0003 	stmia.w	r3, {r0, r1}
878010e0:	463b      	mov	r3, r7
878010e2:	4618      	mov	r0, r3
878010e4:	f001 ff7a 	bl	87802fdc <rtc_setdatetime>
878010e8:	2300      	movs	r3, #0
878010ea:	f2c0 230d 	movt	r3, #525	; 0x20d
878010ee:	685a      	ldr	r2, [r3, #4]
878010f0:	2300      	movs	r3, #0
878010f2:	f2c0 230d 	movt	r3, #525	; 0x20d
878010f6:	f042 0201 	orr.w	r2, r2, #1
878010fa:	605a      	str	r2, [r3, #4]
878010fc:	bf00      	nop
878010fe:	3708      	adds	r7, #8
87801100:	46bd      	mov	sp, r7
87801102:	bd80      	pop	{r7, pc}
87801104:	00004a7c 	andeq	r4, r0, ip, ror sl

87801108 <gpio1_16_31_irqhandler>:
87801108:	b580      	push	{r7, lr}
8780110a:	af00      	add	r7, sp, #0
8780110c:	f44f 5091 	mov.w	r0, #4640	; 0x1220
87801110:	f2c0 000a 	movt	r0, #10
87801114:	f7ff ffa1 	bl	8780105a <filtertimer_restart>
87801118:	2112      	movs	r1, #18
8780111a:	f44f 4040 	mov.w	r0, #49152	; 0xc000
8780111e:	f2c0 2009 	movt	r0, #521	; 0x209
87801122:	f7ff fcba 	bl	87800a9a <gpio_clearintflags>
87801126:	bf00      	nop
87801128:	bd80      	pop	{r7, pc}
8780112a:	bf00      	nop

8780112c <IOMUXC_SetPinMux>:
8780112c:	b480      	push	{r7}
8780112e:	b085      	sub	sp, #20
87801130:	af00      	add	r7, sp, #0
87801132:	60f8      	str	r0, [r7, #12]
87801134:	60b9      	str	r1, [r7, #8]
87801136:	607a      	str	r2, [r7, #4]
87801138:	603b      	str	r3, [r7, #0]
8780113a:	68bb      	ldr	r3, [r7, #8]
8780113c:	f003 010f 	and.w	r1, r3, #15
87801140:	69fb      	ldr	r3, [r7, #28]
87801142:	011b      	lsls	r3, r3, #4
87801144:	f003 0210 	and.w	r2, r3, #16
87801148:	68fb      	ldr	r3, [r7, #12]
8780114a:	430a      	orrs	r2, r1
8780114c:	601a      	str	r2, [r3, #0]
8780114e:	687b      	ldr	r3, [r7, #4]
87801150:	2b00      	cmp	r3, #0
87801152:	d004      	beq.n	8780115e <IOMUXC_SetPinMux+0x32>
87801154:	687b      	ldr	r3, [r7, #4]
87801156:	683a      	ldr	r2, [r7, #0]
87801158:	f002 0207 	and.w	r2, r2, #7
8780115c:	601a      	str	r2, [r3, #0]
8780115e:	bf00      	nop
87801160:	3714      	adds	r7, #20
87801162:	46bd      	mov	sp, r7
87801164:	f85d 7b04 	ldr.w	r7, [sp], #4
87801168:	4770      	bx	lr

8780116a <IOMUXC_SetPinConfig>:
8780116a:	b480      	push	{r7}
8780116c:	b085      	sub	sp, #20
8780116e:	af00      	add	r7, sp, #0
87801170:	60f8      	str	r0, [r7, #12]
87801172:	60b9      	str	r1, [r7, #8]
87801174:	607a      	str	r2, [r7, #4]
87801176:	603b      	str	r3, [r7, #0]
87801178:	69bb      	ldr	r3, [r7, #24]
8780117a:	2b00      	cmp	r3, #0
8780117c:	d002      	beq.n	87801184 <IOMUXC_SetPinConfig+0x1a>
8780117e:	69bb      	ldr	r3, [r7, #24]
87801180:	69fa      	ldr	r2, [r7, #28]
87801182:	601a      	str	r2, [r3, #0]
87801184:	bf00      	nop
87801186:	3714      	adds	r7, #20
87801188:	46bd      	mov	sp, r7
8780118a:	f85d 7b04 	ldr.w	r7, [sp], #4
8780118e:	4770      	bx	lr

87801190 <uart_init>:
87801190:	b580      	push	{r7, lr}
87801192:	af00      	add	r7, sp, #0
87801194:	f000 f851 	bl	8780123a <uart_io_init>
87801198:	2000      	movs	r0, #0
8780119a:	f2c0 2002 	movt	r0, #514	; 0x202
8780119e:	f000 f896 	bl	878012ce <uart_disable>
878011a2:	2000      	movs	r0, #0
878011a4:	f2c0 2002 	movt	r0, #514	; 0x202
878011a8:	f000 f8b5 	bl	87801316 <uart_softreset>
878011ac:	2300      	movs	r3, #0
878011ae:	f2c0 2302 	movt	r3, #514	; 0x202
878011b2:	2200      	movs	r2, #0
878011b4:	f8c3 2080 	str.w	r2, [r3, #128]	; 0x80
878011b8:	2300      	movs	r3, #0
878011ba:	f2c0 2302 	movt	r3, #514	; 0x202
878011be:	f8d3 2080 	ldr.w	r2, [r3, #128]	; 0x80
878011c2:	2300      	movs	r3, #0
878011c4:	f2c0 2302 	movt	r3, #514	; 0x202
878011c8:	f422 4280 	bic.w	r2, r2, #16384	; 0x4000
878011cc:	f8c3 2080 	str.w	r2, [r3, #128]	; 0x80
878011d0:	2300      	movs	r3, #0
878011d2:	f2c0 2302 	movt	r3, #514	; 0x202
878011d6:	f8d3 3084 	ldr.w	r3, [r3, #132]	; 0x84
878011da:	2200      	movs	r2, #0
878011dc:	f2c0 2202 	movt	r2, #514	; 0x202
878011e0:	f443 4380 	orr.w	r3, r3, #16384	; 0x4000
878011e4:	f043 0326 	orr.w	r3, r3, #38	; 0x26
878011e8:	f8c2 3084 	str.w	r3, [r2, #132]	; 0x84
878011ec:	2300      	movs	r3, #0
878011ee:	f2c0 2302 	movt	r3, #514	; 0x202
878011f2:	f8d3 2088 	ldr.w	r2, [r3, #136]	; 0x88
878011f6:	2300      	movs	r3, #0
878011f8:	f2c0 2302 	movt	r3, #514	; 0x202
878011fc:	f042 0204 	orr.w	r2, r2, #4
87801200:	f8c3 2088 	str.w	r2, [r3, #136]	; 0x88
87801204:	2300      	movs	r3, #0
87801206:	f2c0 2302 	movt	r3, #514	; 0x202
8780120a:	f44f 7220 	mov.w	r2, #640	; 0x280
8780120e:	f8c3 2090 	str.w	r2, [r3, #144]	; 0x90
87801212:	2300      	movs	r3, #0
87801214:	f2c0 2302 	movt	r3, #514	; 0x202
87801218:	2247      	movs	r2, #71	; 0x47
8780121a:	f8c3 20a4 	str.w	r2, [r3, #164]	; 0xa4
8780121e:	2300      	movs	r3, #0
87801220:	f2c0 2302 	movt	r3, #514	; 0x202
87801224:	f640 4234 	movw	r2, #3124	; 0xc34
87801228:	f8c3 20a8 	str.w	r2, [r3, #168]	; 0xa8
8780122c:	2000      	movs	r0, #0
8780122e:	f2c0 2002 	movt	r0, #514	; 0x202
87801232:	f000 f85e 	bl	878012f2 <uart_enable>
87801236:	bf00      	nop
87801238:	bd80      	pop	{r7, pc}

8780123a <uart_io_init>:
8780123a:	b580      	push	{r7, lr}
8780123c:	b082      	sub	sp, #8
8780123e:	af02      	add	r7, sp, #8
87801240:	2300      	movs	r3, #0
87801242:	9301      	str	r3, [sp, #4]
87801244:	f44f 7344 	mov.w	r3, #784	; 0x310
87801248:	f2c0 230e 	movt	r3, #526	; 0x20e
8780124c:	9300      	str	r3, [sp, #0]
8780124e:	2300      	movs	r3, #0
87801250:	2200      	movs	r2, #0
87801252:	2100      	movs	r1, #0
87801254:	2084      	movs	r0, #132	; 0x84
87801256:	f2c0 200e 	movt	r0, #526	; 0x20e
8780125a:	f7ff ff67 	bl	8780112c <IOMUXC_SetPinMux>
8780125e:	2300      	movs	r3, #0
87801260:	9301      	str	r3, [sp, #4]
87801262:	f44f 7345 	mov.w	r3, #788	; 0x314
87801266:	f2c0 230e 	movt	r3, #526	; 0x20e
8780126a:	9300      	str	r3, [sp, #0]
8780126c:	2303      	movs	r3, #3
8780126e:	f240 6224 	movw	r2, #1572	; 0x624
87801272:	f2c0 220e 	movt	r2, #526	; 0x20e
87801276:	2100      	movs	r1, #0
87801278:	2088      	movs	r0, #136	; 0x88
8780127a:	f2c0 200e 	movt	r0, #526	; 0x20e
8780127e:	f7ff ff55 	bl	8780112c <IOMUXC_SetPinMux>
87801282:	f241 03b0 	movw	r3, #4272	; 0x10b0
87801286:	9301      	str	r3, [sp, #4]
87801288:	f44f 7344 	mov.w	r3, #784	; 0x310
8780128c:	f2c0 230e 	movt	r3, #526	; 0x20e
87801290:	9300      	str	r3, [sp, #0]
87801292:	2300      	movs	r3, #0
87801294:	2200      	movs	r2, #0
87801296:	2100      	movs	r1, #0
87801298:	2084      	movs	r0, #132	; 0x84
8780129a:	f2c0 200e 	movt	r0, #526	; 0x20e
8780129e:	f7ff ff64 	bl	8780116a <IOMUXC_SetPinConfig>
878012a2:	f241 03b0 	movw	r3, #4272	; 0x10b0
878012a6:	9301      	str	r3, [sp, #4]
878012a8:	f44f 7345 	mov.w	r3, #788	; 0x314
878012ac:	f2c0 230e 	movt	r3, #526	; 0x20e
878012b0:	9300      	str	r3, [sp, #0]
878012b2:	2303      	movs	r3, #3
878012b4:	f240 6224 	movw	r2, #1572	; 0x624
878012b8:	f2c0 220e 	movt	r2, #526	; 0x20e
878012bc:	2100      	movs	r1, #0
878012be:	2088      	movs	r0, #136	; 0x88
878012c0:	f2c0 200e 	movt	r0, #526	; 0x20e
878012c4:	f7ff ff51 	bl	8780116a <IOMUXC_SetPinConfig>
878012c8:	bf00      	nop
878012ca:	46bd      	mov	sp, r7
878012cc:	bd80      	pop	{r7, pc}

878012ce <uart_disable>:
878012ce:	b480      	push	{r7}
878012d0:	b083      	sub	sp, #12
878012d2:	af00      	add	r7, sp, #0
878012d4:	6078      	str	r0, [r7, #4]
878012d6:	687b      	ldr	r3, [r7, #4]
878012d8:	f8d3 3080 	ldr.w	r3, [r3, #128]	; 0x80
878012dc:	f023 0201 	bic.w	r2, r3, #1
878012e0:	687b      	ldr	r3, [r7, #4]
878012e2:	f8c3 2080 	str.w	r2, [r3, #128]	; 0x80
878012e6:	bf00      	nop
878012e8:	370c      	adds	r7, #12
878012ea:	46bd      	mov	sp, r7
878012ec:	f85d 7b04 	ldr.w	r7, [sp], #4
878012f0:	4770      	bx	lr

878012f2 <uart_enable>:
878012f2:	b480      	push	{r7}
878012f4:	b083      	sub	sp, #12
878012f6:	af00      	add	r7, sp, #0
878012f8:	6078      	str	r0, [r7, #4]
878012fa:	687b      	ldr	r3, [r7, #4]
878012fc:	f8d3 3080 	ldr.w	r3, [r3, #128]	; 0x80
87801300:	f043 0201 	orr.w	r2, r3, #1
87801304:	687b      	ldr	r3, [r7, #4]
87801306:	f8c3 2080 	str.w	r2, [r3, #128]	; 0x80
8780130a:	bf00      	nop
8780130c:	370c      	adds	r7, #12
8780130e:	46bd      	mov	sp, r7
87801310:	f85d 7b04 	ldr.w	r7, [sp], #4
87801314:	4770      	bx	lr

87801316 <uart_softreset>:
87801316:	b480      	push	{r7}
87801318:	b083      	sub	sp, #12
8780131a:	af00      	add	r7, sp, #0
8780131c:	6078      	str	r0, [r7, #4]
8780131e:	687b      	ldr	r3, [r7, #4]
87801320:	f8d3 3084 	ldr.w	r3, [r3, #132]	; 0x84
87801324:	f023 0201 	bic.w	r2, r3, #1
87801328:	687b      	ldr	r3, [r7, #4]
8780132a:	f8c3 2084 	str.w	r2, [r3, #132]	; 0x84
8780132e:	bf00      	nop
87801330:	687b      	ldr	r3, [r7, #4]
87801332:	f8d3 3084 	ldr.w	r3, [r3, #132]	; 0x84
87801336:	f003 0301 	and.w	r3, r3, #1
8780133a:	2b00      	cmp	r3, #0
8780133c:	d0f8      	beq.n	87801330 <uart_softreset+0x1a>
8780133e:	bf00      	nop
87801340:	bf00      	nop
87801342:	370c      	adds	r7, #12
87801344:	46bd      	mov	sp, r7
87801346:	f85d 7b04 	ldr.w	r7, [sp], #4
8780134a:	4770      	bx	lr

8780134c <uart_setbaudrate>:
8780134c:	b480      	push	{r7}
8780134e:	b083      	sub	sp, #12
87801350:	af00      	add	r7, sp, #0
87801352:	6078      	str	r0, [r7, #4]
87801354:	6039      	str	r1, [r7, #0]
87801356:	bf00      	nop
87801358:	370c      	adds	r7, #12
8780135a:	46bd      	mov	sp, r7
8780135c:	f85d 7b04 	ldr.w	r7, [sp], #4
87801360:	4770      	bx	lr

87801362 <putc>:
87801362:	b480      	push	{r7}
87801364:	b083      	sub	sp, #12
87801366:	af00      	add	r7, sp, #0
87801368:	4603      	mov	r3, r0
8780136a:	71fb      	strb	r3, [r7, #7]
8780136c:	bf00      	nop
8780136e:	2300      	movs	r3, #0
87801370:	f2c0 2302 	movt	r3, #514	; 0x202
87801374:	f8d3 3098 	ldr.w	r3, [r3, #152]	; 0x98
87801378:	f003 0308 	and.w	r3, r3, #8
8780137c:	2b00      	cmp	r3, #0
8780137e:	d0f6      	beq.n	8780136e <putc+0xc>
87801380:	2300      	movs	r3, #0
87801382:	f2c0 2302 	movt	r3, #514	; 0x202
87801386:	79fa      	ldrb	r2, [r7, #7]
87801388:	641a      	str	r2, [r3, #64]	; 0x40
8780138a:	bf00      	nop
8780138c:	370c      	adds	r7, #12
8780138e:	46bd      	mov	sp, r7
87801390:	f85d 7b04 	ldr.w	r7, [sp], #4
87801394:	4770      	bx	lr

87801396 <puts>:
87801396:	b580      	push	{r7, lr}
87801398:	b084      	sub	sp, #16
8780139a:	af00      	add	r7, sp, #0
8780139c:	6078      	str	r0, [r7, #4]
8780139e:	687b      	ldr	r3, [r7, #4]
878013a0:	60fb      	str	r3, [r7, #12]
878013a2:	e006      	b.n	878013b2 <puts+0x1c>
878013a4:	68fb      	ldr	r3, [r7, #12]
878013a6:	1c5a      	adds	r2, r3, #1
878013a8:	60fa      	str	r2, [r7, #12]
878013aa:	781b      	ldrb	r3, [r3, #0]
878013ac:	4618      	mov	r0, r3
878013ae:	f7ff ffd8 	bl	87801362 <putc>
878013b2:	68fb      	ldr	r3, [r7, #12]
878013b4:	781b      	ldrb	r3, [r3, #0]
878013b6:	2b00      	cmp	r3, #0
878013b8:	d1f4      	bne.n	878013a4 <puts+0xe>
878013ba:	bf00      	nop
878013bc:	bf00      	nop
878013be:	3710      	adds	r7, #16
878013c0:	46bd      	mov	sp, r7
878013c2:	bd80      	pop	{r7, pc}

878013c4 <getc>:
878013c4:	b480      	push	{r7}
878013c6:	af00      	add	r7, sp, #0
878013c8:	bf00      	nop
878013ca:	2300      	movs	r3, #0
878013cc:	f2c0 2302 	movt	r3, #514	; 0x202
878013d0:	f8d3 3098 	ldr.w	r3, [r3, #152]	; 0x98
878013d4:	f003 0301 	and.w	r3, r3, #1
878013d8:	2b00      	cmp	r3, #0
878013da:	d0f6      	beq.n	878013ca <getc+0x6>
878013dc:	2300      	movs	r3, #0
878013de:	f2c0 2302 	movt	r3, #514	; 0x202
878013e2:	681b      	ldr	r3, [r3, #0]
878013e4:	b2db      	uxtb	r3, r3
878013e6:	4618      	mov	r0, r3
878013e8:	46bd      	mov	sp, r7
878013ea:	f85d 7b04 	ldr.w	r7, [sp], #4
878013ee:	4770      	bx	lr

878013f0 <raise>:
878013f0:	b480      	push	{r7}
878013f2:	b083      	sub	sp, #12
878013f4:	af00      	add	r7, sp, #0
878013f6:	6078      	str	r0, [r7, #4]
878013f8:	bf00      	nop
878013fa:	370c      	adds	r7, #12
878013fc:	46bd      	mov	sp, r7
878013fe:	f85d 7b04 	ldr.w	r7, [sp], #4
87801402:	4770      	bx	lr

87801404 <lcd_drawline>:
87801404:	b590      	push	{r4, r7, lr}
87801406:	b08d      	sub	sp, #52	; 0x34
87801408:	af00      	add	r7, sp, #0
8780140a:	4604      	mov	r4, r0
8780140c:	4608      	mov	r0, r1
8780140e:	4611      	mov	r1, r2
87801410:	461a      	mov	r2, r3
87801412:	4623      	mov	r3, r4
87801414:	80fb      	strh	r3, [r7, #6]
87801416:	4603      	mov	r3, r0
87801418:	80bb      	strh	r3, [r7, #4]
8780141a:	460b      	mov	r3, r1
8780141c:	807b      	strh	r3, [r7, #2]
8780141e:	4613      	mov	r3, r2
87801420:	803b      	strh	r3, [r7, #0]
87801422:	4c3c      	ldr	r4, [pc, #240]	; (87801514 <lcd_drawline+0x110>)
87801424:	447c      	add	r4, pc
87801426:	2300      	movs	r3, #0
87801428:	62bb      	str	r3, [r7, #40]	; 0x28
8780142a:	2300      	movs	r3, #0
8780142c:	627b      	str	r3, [r7, #36]	; 0x24
8780142e:	887a      	ldrh	r2, [r7, #2]
87801430:	88fb      	ldrh	r3, [r7, #6]
87801432:	1ad3      	subs	r3, r2, r3
87801434:	623b      	str	r3, [r7, #32]
87801436:	883a      	ldrh	r2, [r7, #0]
87801438:	88bb      	ldrh	r3, [r7, #4]
8780143a:	1ad3      	subs	r3, r2, r3
8780143c:	61fb      	str	r3, [r7, #28]
8780143e:	88fb      	ldrh	r3, [r7, #6]
87801440:	60fb      	str	r3, [r7, #12]
87801442:	88bb      	ldrh	r3, [r7, #4]
87801444:	60bb      	str	r3, [r7, #8]
87801446:	6a3b      	ldr	r3, [r7, #32]
87801448:	2b00      	cmp	r3, #0
8780144a:	dd02      	ble.n	87801452 <lcd_drawline+0x4e>
8780144c:	2301      	movs	r3, #1
8780144e:	617b      	str	r3, [r7, #20]
87801450:	e00b      	b.n	8780146a <lcd_drawline+0x66>
87801452:	6a3b      	ldr	r3, [r7, #32]
87801454:	2b00      	cmp	r3, #0
87801456:	d102      	bne.n	8780145e <lcd_drawline+0x5a>
87801458:	2300      	movs	r3, #0
8780145a:	617b      	str	r3, [r7, #20]
8780145c:	e005      	b.n	8780146a <lcd_drawline+0x66>
8780145e:	f04f 33ff 	mov.w	r3, #4294967295	; 0xffffffff
87801462:	617b      	str	r3, [r7, #20]
87801464:	6a3b      	ldr	r3, [r7, #32]
87801466:	425b      	negs	r3, r3
87801468:	623b      	str	r3, [r7, #32]
8780146a:	69fb      	ldr	r3, [r7, #28]
8780146c:	2b00      	cmp	r3, #0
8780146e:	dd02      	ble.n	87801476 <lcd_drawline+0x72>
87801470:	2301      	movs	r3, #1
87801472:	613b      	str	r3, [r7, #16]
87801474:	e00b      	b.n	8780148e <lcd_drawline+0x8a>
87801476:	69fb      	ldr	r3, [r7, #28]
87801478:	2b00      	cmp	r3, #0
8780147a:	d102      	bne.n	87801482 <lcd_drawline+0x7e>
8780147c:	2300      	movs	r3, #0
8780147e:	613b      	str	r3, [r7, #16]
87801480:	e005      	b.n	8780148e <lcd_drawline+0x8a>
87801482:	f04f 33ff 	mov.w	r3, #4294967295	; 0xffffffff
87801486:	613b      	str	r3, [r7, #16]
87801488:	69fb      	ldr	r3, [r7, #28]
8780148a:	425b      	negs	r3, r3
8780148c:	61fb      	str	r3, [r7, #28]
8780148e:	6a3a      	ldr	r2, [r7, #32]
87801490:	69fb      	ldr	r3, [r7, #28]
87801492:	429a      	cmp	r2, r3
87801494:	dd02      	ble.n	8780149c <lcd_drawline+0x98>
87801496:	6a3b      	ldr	r3, [r7, #32]
87801498:	61bb      	str	r3, [r7, #24]
8780149a:	e001      	b.n	878014a0 <lcd_drawline+0x9c>
8780149c:	69fb      	ldr	r3, [r7, #28]
8780149e:	61bb      	str	r3, [r7, #24]
878014a0:	2300      	movs	r3, #0
878014a2:	85fb      	strh	r3, [r7, #46]	; 0x2e
878014a4:	e02c      	b.n	87801500 <lcd_drawline+0xfc>
878014a6:	68fb      	ldr	r3, [r7, #12]
878014a8:	b298      	uxth	r0, r3
878014aa:	68bb      	ldr	r3, [r7, #8]
878014ac:	b299      	uxth	r1, r3
878014ae:	4b1a      	ldr	r3, [pc, #104]	; (87801518 <lcd_drawline+0x114>)
878014b0:	58e3      	ldr	r3, [r4, r3]
878014b2:	699b      	ldr	r3, [r3, #24]
878014b4:	461a      	mov	r2, r3
878014b6:	f001 fbab 	bl	87802c10 <lcd_drawpoint>
878014ba:	6aba      	ldr	r2, [r7, #40]	; 0x28
878014bc:	6a3b      	ldr	r3, [r7, #32]
878014be:	4413      	add	r3, r2
878014c0:	62bb      	str	r3, [r7, #40]	; 0x28
878014c2:	6a7a      	ldr	r2, [r7, #36]	; 0x24
878014c4:	69fb      	ldr	r3, [r7, #28]
878014c6:	4413      	add	r3, r2
878014c8:	627b      	str	r3, [r7, #36]	; 0x24
878014ca:	6aba      	ldr	r2, [r7, #40]	; 0x28
878014cc:	69bb      	ldr	r3, [r7, #24]
878014ce:	429a      	cmp	r2, r3
878014d0:	dd07      	ble.n	878014e2 <lcd_drawline+0xde>
878014d2:	6aba      	ldr	r2, [r7, #40]	; 0x28
878014d4:	69bb      	ldr	r3, [r7, #24]
878014d6:	1ad3      	subs	r3, r2, r3
878014d8:	62bb      	str	r3, [r7, #40]	; 0x28
878014da:	68fa      	ldr	r2, [r7, #12]
878014dc:	697b      	ldr	r3, [r7, #20]
878014de:	4413      	add	r3, r2
878014e0:	60fb      	str	r3, [r7, #12]
878014e2:	6a7a      	ldr	r2, [r7, #36]	; 0x24
878014e4:	69bb      	ldr	r3, [r7, #24]
878014e6:	429a      	cmp	r2, r3
878014e8:	dd07      	ble.n	878014fa <lcd_drawline+0xf6>
878014ea:	6a7a      	ldr	r2, [r7, #36]	; 0x24
878014ec:	69bb      	ldr	r3, [r7, #24]
878014ee:	1ad3      	subs	r3, r2, r3
878014f0:	627b      	str	r3, [r7, #36]	; 0x24
878014f2:	68ba      	ldr	r2, [r7, #8]
878014f4:	693b      	ldr	r3, [r7, #16]
878014f6:	4413      	add	r3, r2
878014f8:	60bb      	str	r3, [r7, #8]
878014fa:	8dfb      	ldrh	r3, [r7, #46]	; 0x2e
878014fc:	3301      	adds	r3, #1
878014fe:	85fb      	strh	r3, [r7, #46]	; 0x2e
87801500:	8dfa      	ldrh	r2, [r7, #46]	; 0x2e
87801502:	69bb      	ldr	r3, [r7, #24]
87801504:	3301      	adds	r3, #1
87801506:	429a      	cmp	r2, r3
87801508:	ddcd      	ble.n	878014a6 <lcd_drawline+0xa2>
8780150a:	bf00      	nop
8780150c:	bf00      	nop
8780150e:	3734      	adds	r7, #52	; 0x34
87801510:	46bd      	mov	sp, r7
87801512:	bd90      	pop	{r4, r7, pc}
87801514:	00008fd4 	ldrdeq	r8, [r0], -r4
87801518:	00000004 	andeq	r0, r0, r4

8780151c <lcd_draw_rectangle>:
8780151c:	b590      	push	{r4, r7, lr}
8780151e:	b083      	sub	sp, #12
87801520:	af00      	add	r7, sp, #0
87801522:	4604      	mov	r4, r0
87801524:	4608      	mov	r0, r1
87801526:	4611      	mov	r1, r2
87801528:	461a      	mov	r2, r3
8780152a:	4623      	mov	r3, r4
8780152c:	80fb      	strh	r3, [r7, #6]
8780152e:	4603      	mov	r3, r0
87801530:	80bb      	strh	r3, [r7, #4]
87801532:	460b      	mov	r3, r1
87801534:	807b      	strh	r3, [r7, #2]
87801536:	4613      	mov	r3, r2
87801538:	803b      	strh	r3, [r7, #0]
8780153a:	88bb      	ldrh	r3, [r7, #4]
8780153c:	887a      	ldrh	r2, [r7, #2]
8780153e:	88b9      	ldrh	r1, [r7, #4]
87801540:	88f8      	ldrh	r0, [r7, #6]
87801542:	f7ff ff5f 	bl	87801404 <lcd_drawline>
87801546:	883b      	ldrh	r3, [r7, #0]
87801548:	88fa      	ldrh	r2, [r7, #6]
8780154a:	88b9      	ldrh	r1, [r7, #4]
8780154c:	88f8      	ldrh	r0, [r7, #6]
8780154e:	f7ff ff59 	bl	87801404 <lcd_drawline>
87801552:	883b      	ldrh	r3, [r7, #0]
87801554:	887a      	ldrh	r2, [r7, #2]
87801556:	8839      	ldrh	r1, [r7, #0]
87801558:	88f8      	ldrh	r0, [r7, #6]
8780155a:	f7ff ff53 	bl	87801404 <lcd_drawline>
8780155e:	883b      	ldrh	r3, [r7, #0]
87801560:	887a      	ldrh	r2, [r7, #2]
87801562:	88b9      	ldrh	r1, [r7, #4]
87801564:	8878      	ldrh	r0, [r7, #2]
87801566:	f7ff ff4d 	bl	87801404 <lcd_drawline>
8780156a:	bf00      	nop
8780156c:	370c      	adds	r7, #12
8780156e:	46bd      	mov	sp, r7
87801570:	bd90      	pop	{r4, r7, pc}

87801572 <lcd_draw_Circle>:
87801572:	b590      	push	{r4, r7, lr}
87801574:	b089      	sub	sp, #36	; 0x24
87801576:	af00      	add	r7, sp, #0
87801578:	4603      	mov	r3, r0
8780157a:	80fb      	strh	r3, [r7, #6]
8780157c:	460b      	mov	r3, r1
8780157e:	80bb      	strh	r3, [r7, #4]
87801580:	4613      	mov	r3, r2
87801582:	70fb      	strb	r3, [r7, #3]
87801584:	4c60      	ldr	r4, [pc, #384]	; (87801708 <lcd_draw_Circle+0x196>)
87801586:	447c      	add	r4, pc
87801588:	88fb      	ldrh	r3, [r7, #6]
8780158a:	613b      	str	r3, [r7, #16]
8780158c:	88bb      	ldrh	r3, [r7, #4]
8780158e:	60fb      	str	r3, [r7, #12]
87801590:	2300      	movs	r3, #0
87801592:	61fb      	str	r3, [r7, #28]
87801594:	78fb      	ldrb	r3, [r7, #3]
87801596:	61bb      	str	r3, [r7, #24]
87801598:	78fb      	ldrb	r3, [r7, #3]
8780159a:	f1c3 0301 	rsb	r3, r3, #1
8780159e:	617b      	str	r3, [r7, #20]
878015a0:	e0a7      	b.n	878016f2 <lcd_draw_Circle+0x180>
878015a2:	69fb      	ldr	r3, [r7, #28]
878015a4:	b29a      	uxth	r2, r3
878015a6:	693b      	ldr	r3, [r7, #16]
878015a8:	b29b      	uxth	r3, r3
878015aa:	4413      	add	r3, r2
878015ac:	b298      	uxth	r0, r3
878015ae:	69bb      	ldr	r3, [r7, #24]
878015b0:	b29a      	uxth	r2, r3
878015b2:	68fb      	ldr	r3, [r7, #12]
878015b4:	b29b      	uxth	r3, r3
878015b6:	4413      	add	r3, r2
878015b8:	b299      	uxth	r1, r3
878015ba:	4b54      	ldr	r3, [pc, #336]	; (8780170c <lcd_draw_Circle+0x19a>)
878015bc:	58e3      	ldr	r3, [r4, r3]
878015be:	699b      	ldr	r3, [r3, #24]
878015c0:	461a      	mov	r2, r3
878015c2:	f001 fb25 	bl	87802c10 <lcd_drawpoint>
878015c6:	69bb      	ldr	r3, [r7, #24]
878015c8:	b29a      	uxth	r2, r3
878015ca:	693b      	ldr	r3, [r7, #16]
878015cc:	b29b      	uxth	r3, r3
878015ce:	4413      	add	r3, r2
878015d0:	b298      	uxth	r0, r3
878015d2:	69fb      	ldr	r3, [r7, #28]
878015d4:	b29a      	uxth	r2, r3
878015d6:	68fb      	ldr	r3, [r7, #12]
878015d8:	b29b      	uxth	r3, r3
878015da:	4413      	add	r3, r2
878015dc:	b299      	uxth	r1, r3
878015de:	4b4b      	ldr	r3, [pc, #300]	; (8780170c <lcd_draw_Circle+0x19a>)
878015e0:	58e3      	ldr	r3, [r4, r3]
878015e2:	699b      	ldr	r3, [r3, #24]
878015e4:	461a      	mov	r2, r3
878015e6:	f001 fb13 	bl	87802c10 <lcd_drawpoint>
878015ea:	693b      	ldr	r3, [r7, #16]
878015ec:	b29a      	uxth	r2, r3
878015ee:	69fb      	ldr	r3, [r7, #28]
878015f0:	b29b      	uxth	r3, r3
878015f2:	1ad3      	subs	r3, r2, r3
878015f4:	b298      	uxth	r0, r3
878015f6:	69bb      	ldr	r3, [r7, #24]
878015f8:	b29a      	uxth	r2, r3
878015fa:	68fb      	ldr	r3, [r7, #12]
878015fc:	b29b      	uxth	r3, r3
878015fe:	4413      	add	r3, r2
87801600:	b299      	uxth	r1, r3
87801602:	4b42      	ldr	r3, [pc, #264]	; (8780170c <lcd_draw_Circle+0x19a>)
87801604:	58e3      	ldr	r3, [r4, r3]
87801606:	699b      	ldr	r3, [r3, #24]
87801608:	461a      	mov	r2, r3
8780160a:	f001 fb01 	bl	87802c10 <lcd_drawpoint>
8780160e:	693b      	ldr	r3, [r7, #16]
87801610:	b29a      	uxth	r2, r3
87801612:	69bb      	ldr	r3, [r7, #24]
87801614:	b29b      	uxth	r3, r3
87801616:	1ad3      	subs	r3, r2, r3
87801618:	b298      	uxth	r0, r3
8780161a:	69fb      	ldr	r3, [r7, #28]
8780161c:	b29a      	uxth	r2, r3
8780161e:	68fb      	ldr	r3, [r7, #12]
87801620:	b29b      	uxth	r3, r3
87801622:	4413      	add	r3, r2
87801624:	b299      	uxth	r1, r3
87801626:	4b39      	ldr	r3, [pc, #228]	; (8780170c <lcd_draw_Circle+0x19a>)
87801628:	58e3      	ldr	r3, [r4, r3]
8780162a:	699b      	ldr	r3, [r3, #24]
8780162c:	461a      	mov	r2, r3
8780162e:	f001 faef 	bl	87802c10 <lcd_drawpoint>
87801632:	693b      	ldr	r3, [r7, #16]
87801634:	b29a      	uxth	r2, r3
87801636:	69fb      	ldr	r3, [r7, #28]
87801638:	b29b      	uxth	r3, r3
8780163a:	1ad3      	subs	r3, r2, r3
8780163c:	b298      	uxth	r0, r3
8780163e:	68fb      	ldr	r3, [r7, #12]
87801640:	b29a      	uxth	r2, r3
87801642:	69bb      	ldr	r3, [r7, #24]
87801644:	b29b      	uxth	r3, r3
87801646:	1ad3      	subs	r3, r2, r3
87801648:	b299      	uxth	r1, r3
8780164a:	4b30      	ldr	r3, [pc, #192]	; (8780170c <lcd_draw_Circle+0x19a>)
8780164c:	58e3      	ldr	r3, [r4, r3]
8780164e:	699b      	ldr	r3, [r3, #24]
87801650:	461a      	mov	r2, r3
87801652:	f001 fadd 	bl	87802c10 <lcd_drawpoint>
87801656:	693b      	ldr	r3, [r7, #16]
87801658:	b29a      	uxth	r2, r3
8780165a:	69bb      	ldr	r3, [r7, #24]
8780165c:	b29b      	uxth	r3, r3
8780165e:	1ad3      	subs	r3, r2, r3
87801660:	b298      	uxth	r0, r3
87801662:	68fb      	ldr	r3, [r7, #12]
87801664:	b29a      	uxth	r2, r3
87801666:	69fb      	ldr	r3, [r7, #28]
87801668:	b29b      	uxth	r3, r3
8780166a:	1ad3      	subs	r3, r2, r3
8780166c:	b299      	uxth	r1, r3
8780166e:	4b27      	ldr	r3, [pc, #156]	; (8780170c <lcd_draw_Circle+0x19a>)
87801670:	58e3      	ldr	r3, [r4, r3]
87801672:	699b      	ldr	r3, [r3, #24]
87801674:	461a      	mov	r2, r3
87801676:	f001 facb 	bl	87802c10 <lcd_drawpoint>
8780167a:	69fb      	ldr	r3, [r7, #28]
8780167c:	b29a      	uxth	r2, r3
8780167e:	693b      	ldr	r3, [r7, #16]
87801680:	b29b      	uxth	r3, r3
87801682:	4413      	add	r3, r2
87801684:	b298      	uxth	r0, r3
87801686:	68fb      	ldr	r3, [r7, #12]
87801688:	b29a      	uxth	r2, r3
8780168a:	69bb      	ldr	r3, [r7, #24]
8780168c:	b29b      	uxth	r3, r3
8780168e:	1ad3      	subs	r3, r2, r3
87801690:	b299      	uxth	r1, r3
87801692:	4b1e      	ldr	r3, [pc, #120]	; (8780170c <lcd_draw_Circle+0x19a>)
87801694:	58e3      	ldr	r3, [r4, r3]
87801696:	699b      	ldr	r3, [r3, #24]
87801698:	461a      	mov	r2, r3
8780169a:	f001 fab9 	bl	87802c10 <lcd_drawpoint>
8780169e:	69bb      	ldr	r3, [r7, #24]
878016a0:	b29a      	uxth	r2, r3
878016a2:	693b      	ldr	r3, [r7, #16]
878016a4:	b29b      	uxth	r3, r3
878016a6:	4413      	add	r3, r2
878016a8:	b298      	uxth	r0, r3
878016aa:	68fb      	ldr	r3, [r7, #12]
878016ac:	b29a      	uxth	r2, r3
878016ae:	69fb      	ldr	r3, [r7, #28]
878016b0:	b29b      	uxth	r3, r3
878016b2:	1ad3      	subs	r3, r2, r3
878016b4:	b299      	uxth	r1, r3
878016b6:	4b15      	ldr	r3, [pc, #84]	; (8780170c <lcd_draw_Circle+0x19a>)
878016b8:	58e3      	ldr	r3, [r4, r3]
878016ba:	699b      	ldr	r3, [r3, #24]
878016bc:	461a      	mov	r2, r3
878016be:	f001 faa7 	bl	87802c10 <lcd_drawpoint>
878016c2:	697b      	ldr	r3, [r7, #20]
878016c4:	2b00      	cmp	r3, #0
878016c6:	da06      	bge.n	878016d6 <lcd_draw_Circle+0x164>
878016c8:	69fb      	ldr	r3, [r7, #28]
878016ca:	005a      	lsls	r2, r3, #1
878016cc:	697b      	ldr	r3, [r7, #20]
878016ce:	4413      	add	r3, r2
878016d0:	3303      	adds	r3, #3
878016d2:	617b      	str	r3, [r7, #20]
878016d4:	e00a      	b.n	878016ec <lcd_draw_Circle+0x17a>
878016d6:	69fa      	ldr	r2, [r7, #28]
878016d8:	69bb      	ldr	r3, [r7, #24]
878016da:	1ad3      	subs	r3, r2, r3
878016dc:	005a      	lsls	r2, r3, #1
878016de:	697b      	ldr	r3, [r7, #20]
878016e0:	4413      	add	r3, r2
878016e2:	3305      	adds	r3, #5
878016e4:	617b      	str	r3, [r7, #20]
878016e6:	69bb      	ldr	r3, [r7, #24]
878016e8:	3b01      	subs	r3, #1
878016ea:	61bb      	str	r3, [r7, #24]
878016ec:	69fb      	ldr	r3, [r7, #28]
878016ee:	3301      	adds	r3, #1
878016f0:	61fb      	str	r3, [r7, #28]
878016f2:	69ba      	ldr	r2, [r7, #24]
878016f4:	69fb      	ldr	r3, [r7, #28]
878016f6:	429a      	cmp	r2, r3
878016f8:	f73f af53 	bgt.w	878015a2 <lcd_draw_Circle+0x30>
878016fc:	bf00      	nop
878016fe:	bf00      	nop
87801700:	3724      	adds	r7, #36	; 0x24
87801702:	46bd      	mov	sp, r7
87801704:	bd90      	pop	{r4, r7, pc}
87801706:	bf00      	nop
87801708:	00008e72 	andeq	r8, r0, r2, ror lr
8780170c:	00000004 	andeq	r0, r0, r4

87801710 <lcd_showchar>:
87801710:	b590      	push	{r4, r7, lr}
87801712:	b085      	sub	sp, #20
87801714:	af00      	add	r7, sp, #0
87801716:	4604      	mov	r4, r0
87801718:	4608      	mov	r0, r1
8780171a:	4611      	mov	r1, r2
8780171c:	461a      	mov	r2, r3
8780171e:	4623      	mov	r3, r4
87801720:	80fb      	strh	r3, [r7, #6]
87801722:	4603      	mov	r3, r0
87801724:	80bb      	strh	r3, [r7, #4]
87801726:	460b      	mov	r3, r1
87801728:	70fb      	strb	r3, [r7, #3]
8780172a:	4613      	mov	r3, r2
8780172c:	70bb      	strb	r3, [r7, #2]
8780172e:	4c53      	ldr	r4, [pc, #332]	; (8780187c <lcd_showchar+0x16c>)
87801730:	447c      	add	r4, pc
87801732:	88bb      	ldrh	r3, [r7, #4]
87801734:	817b      	strh	r3, [r7, #10]
87801736:	78bb      	ldrb	r3, [r7, #2]
87801738:	08db      	lsrs	r3, r3, #3
8780173a:	b2db      	uxtb	r3, r3
8780173c:	461a      	mov	r2, r3
8780173e:	78bb      	ldrb	r3, [r7, #2]
87801740:	f003 0307 	and.w	r3, r3, #7
87801744:	b2db      	uxtb	r3, r3
87801746:	2b00      	cmp	r3, #0
87801748:	bf14      	ite	ne
8780174a:	2301      	movne	r3, #1
8780174c:	2300      	moveq	r3, #0
8780174e:	b2db      	uxtb	r3, r3
87801750:	4413      	add	r3, r2
87801752:	b2da      	uxtb	r2, r3
87801754:	78bb      	ldrb	r3, [r7, #2]
87801756:	085b      	lsrs	r3, r3, #1
87801758:	b2db      	uxtb	r3, r3
8780175a:	fb12 f303 	smulbb	r3, r2, r3
8780175e:	727b      	strb	r3, [r7, #9]
87801760:	78fb      	ldrb	r3, [r7, #3]
87801762:	3b20      	subs	r3, #32
87801764:	70fb      	strb	r3, [r7, #3]
87801766:	2300      	movs	r3, #0
87801768:	737b      	strb	r3, [r7, #13]
8780176a:	e07b      	b.n	87801864 <lcd_showchar+0x154>
8780176c:	78bb      	ldrb	r3, [r7, #2]
8780176e:	2b0c      	cmp	r3, #12
87801770:	d10b      	bne.n	8780178a <lcd_showchar+0x7a>
87801772:	78fa      	ldrb	r2, [r7, #3]
87801774:	7b7b      	ldrb	r3, [r7, #13]
87801776:	4942      	ldr	r1, [pc, #264]	; (87801880 <lcd_showchar+0x170>)
87801778:	4479      	add	r1, pc
8780177a:	200c      	movs	r0, #12
8780177c:	fb00 f202 	mul.w	r2, r0, r2
87801780:	440a      	add	r2, r1
87801782:	4413      	add	r3, r2
87801784:	781b      	ldrb	r3, [r3, #0]
87801786:	73fb      	strb	r3, [r7, #15]
87801788:	e027      	b.n	878017da <lcd_showchar+0xca>
8780178a:	78bb      	ldrb	r3, [r7, #2]
8780178c:	2b10      	cmp	r3, #16
8780178e:	d109      	bne.n	878017a4 <lcd_showchar+0x94>
87801790:	78fa      	ldrb	r2, [r7, #3]
87801792:	7b7b      	ldrb	r3, [r7, #13]
87801794:	493b      	ldr	r1, [pc, #236]	; (87801884 <lcd_showchar+0x174>)
87801796:	4479      	add	r1, pc
87801798:	0112      	lsls	r2, r2, #4
8780179a:	440a      	add	r2, r1
8780179c:	4413      	add	r3, r2
8780179e:	781b      	ldrb	r3, [r3, #0]
878017a0:	73fb      	strb	r3, [r7, #15]
878017a2:	e01a      	b.n	878017da <lcd_showchar+0xca>
878017a4:	78bb      	ldrb	r3, [r7, #2]
878017a6:	2b18      	cmp	r3, #24
878017a8:	d10b      	bne.n	878017c2 <lcd_showchar+0xb2>
878017aa:	78fa      	ldrb	r2, [r7, #3]
878017ac:	7b7b      	ldrb	r3, [r7, #13]
878017ae:	4936      	ldr	r1, [pc, #216]	; (87801888 <lcd_showchar+0x178>)
878017b0:	4479      	add	r1, pc
878017b2:	2024      	movs	r0, #36	; 0x24
878017b4:	fb00 f202 	mul.w	r2, r0, r2
878017b8:	440a      	add	r2, r1
878017ba:	4413      	add	r3, r2
878017bc:	781b      	ldrb	r3, [r3, #0]
878017be:	73fb      	strb	r3, [r7, #15]
878017c0:	e00b      	b.n	878017da <lcd_showchar+0xca>
878017c2:	78bb      	ldrb	r3, [r7, #2]
878017c4:	2b20      	cmp	r3, #32
878017c6:	d153      	bne.n	87801870 <lcd_showchar+0x160>
878017c8:	78fa      	ldrb	r2, [r7, #3]
878017ca:	7b7b      	ldrb	r3, [r7, #13]
878017cc:	492f      	ldr	r1, [pc, #188]	; (8780188c <lcd_showchar+0x17c>)
878017ce:	4479      	add	r1, pc
878017d0:	01d2      	lsls	r2, r2, #7
878017d2:	440a      	add	r2, r1
878017d4:	4413      	add	r3, r2
878017d6:	781b      	ldrb	r3, [r3, #0]
878017d8:	73fb      	strb	r3, [r7, #15]
878017da:	2300      	movs	r3, #0
878017dc:	73bb      	strb	r3, [r7, #14]
878017de:	e039      	b.n	87801854 <lcd_showchar+0x144>
878017e0:	f997 300f 	ldrsb.w	r3, [r7, #15]
878017e4:	2b00      	cmp	r3, #0
878017e6:	da08      	bge.n	878017fa <lcd_showchar+0xea>
878017e8:	4b29      	ldr	r3, [pc, #164]	; (87801890 <lcd_showchar+0x180>)
878017ea:	58e3      	ldr	r3, [r4, r3]
878017ec:	699a      	ldr	r2, [r3, #24]
878017ee:	88b9      	ldrh	r1, [r7, #4]
878017f0:	88fb      	ldrh	r3, [r7, #6]
878017f2:	4618      	mov	r0, r3
878017f4:	f001 fa0c 	bl	87802c10 <lcd_drawpoint>
878017f8:	e00b      	b.n	87801812 <lcd_showchar+0x102>
878017fa:	f897 3020 	ldrb.w	r3, [r7, #32]
878017fe:	2b00      	cmp	r3, #0
87801800:	d107      	bne.n	87801812 <lcd_showchar+0x102>
87801802:	4b23      	ldr	r3, [pc, #140]	; (87801890 <lcd_showchar+0x180>)
87801804:	58e3      	ldr	r3, [r4, r3]
87801806:	69da      	ldr	r2, [r3, #28]
87801808:	88b9      	ldrh	r1, [r7, #4]
8780180a:	88fb      	ldrh	r3, [r7, #6]
8780180c:	4618      	mov	r0, r3
8780180e:	f001 f9ff 	bl	87802c10 <lcd_drawpoint>
87801812:	7bfb      	ldrb	r3, [r7, #15]
87801814:	005b      	lsls	r3, r3, #1
87801816:	73fb      	strb	r3, [r7, #15]
87801818:	88bb      	ldrh	r3, [r7, #4]
8780181a:	3301      	adds	r3, #1
8780181c:	80bb      	strh	r3, [r7, #4]
8780181e:	4b1c      	ldr	r3, [pc, #112]	; (87801890 <lcd_showchar+0x180>)
87801820:	58e3      	ldr	r3, [r4, r3]
87801822:	881b      	ldrh	r3, [r3, #0]
87801824:	88ba      	ldrh	r2, [r7, #4]
87801826:	429a      	cmp	r2, r3
87801828:	d224      	bcs.n	87801874 <lcd_showchar+0x164>
8780182a:	88ba      	ldrh	r2, [r7, #4]
8780182c:	897b      	ldrh	r3, [r7, #10]
8780182e:	1ad2      	subs	r2, r2, r3
87801830:	78bb      	ldrb	r3, [r7, #2]
87801832:	429a      	cmp	r2, r3
87801834:	d10b      	bne.n	8780184e <lcd_showchar+0x13e>
87801836:	897b      	ldrh	r3, [r7, #10]
87801838:	80bb      	strh	r3, [r7, #4]
8780183a:	88fb      	ldrh	r3, [r7, #6]
8780183c:	3301      	adds	r3, #1
8780183e:	80fb      	strh	r3, [r7, #6]
87801840:	4b13      	ldr	r3, [pc, #76]	; (87801890 <lcd_showchar+0x180>)
87801842:	58e3      	ldr	r3, [r4, r3]
87801844:	885b      	ldrh	r3, [r3, #2]
87801846:	88fa      	ldrh	r2, [r7, #6]
87801848:	429a      	cmp	r2, r3
8780184a:	d307      	bcc.n	8780185c <lcd_showchar+0x14c>
8780184c:	e013      	b.n	87801876 <lcd_showchar+0x166>
8780184e:	7bbb      	ldrb	r3, [r7, #14]
87801850:	3301      	adds	r3, #1
87801852:	73bb      	strb	r3, [r7, #14]
87801854:	7bbb      	ldrb	r3, [r7, #14]
87801856:	2b07      	cmp	r3, #7
87801858:	d9c2      	bls.n	878017e0 <lcd_showchar+0xd0>
8780185a:	e000      	b.n	8780185e <lcd_showchar+0x14e>
8780185c:	bf00      	nop
8780185e:	7b7b      	ldrb	r3, [r7, #13]
87801860:	3301      	adds	r3, #1
87801862:	737b      	strb	r3, [r7, #13]
87801864:	7b7a      	ldrb	r2, [r7, #13]
87801866:	7a7b      	ldrb	r3, [r7, #9]
87801868:	429a      	cmp	r2, r3
8780186a:	f4ff af7f 	bcc.w	8780176c <lcd_showchar+0x5c>
8780186e:	e002      	b.n	87801876 <lcd_showchar+0x166>
87801870:	bf00      	nop
87801872:	e000      	b.n	87801876 <lcd_showchar+0x166>
87801874:	bf00      	nop
87801876:	3714      	adds	r7, #20
87801878:	46bd      	mov	sp, r7
8780187a:	bd90      	pop	{r4, r7, pc}
8780187c:	00008cc8 	andeq	r8, r0, r8, asr #25
87801880:	000043e0 	andeq	r4, r0, r0, ror #7
87801884:	00004836 	andeq	r4, r0, r6, lsr r8
87801888:	00004e0c 	andeq	r4, r0, ip, lsl #28
8780188c:	00005b4a 	andeq	r5, r0, sl, asr #22
87801890:	00000004 	andeq	r0, r0, r4

87801894 <lcd_pow>:
87801894:	b480      	push	{r7}
87801896:	b085      	sub	sp, #20
87801898:	af00      	add	r7, sp, #0
8780189a:	4603      	mov	r3, r0
8780189c:	460a      	mov	r2, r1
8780189e:	71fb      	strb	r3, [r7, #7]
878018a0:	4613      	mov	r3, r2
878018a2:	71bb      	strb	r3, [r7, #6]
878018a4:	2301      	movs	r3, #1
878018a6:	60fb      	str	r3, [r7, #12]
878018a8:	e004      	b.n	878018b4 <lcd_pow+0x20>
878018aa:	79fa      	ldrb	r2, [r7, #7]
878018ac:	68fb      	ldr	r3, [r7, #12]
878018ae:	fb02 f303 	mul.w	r3, r2, r3
878018b2:	60fb      	str	r3, [r7, #12]
878018b4:	79bb      	ldrb	r3, [r7, #6]
878018b6:	1e5a      	subs	r2, r3, #1
878018b8:	71ba      	strb	r2, [r7, #6]
878018ba:	2b00      	cmp	r3, #0
878018bc:	d1f5      	bne.n	878018aa <lcd_pow+0x16>
878018be:	68fb      	ldr	r3, [r7, #12]
878018c0:	4618      	mov	r0, r3
878018c2:	3714      	adds	r7, #20
878018c4:	46bd      	mov	sp, r7
878018c6:	f85d 7b04 	ldr.w	r7, [sp], #4
878018ca:	4770      	bx	lr

878018cc <lcd_shownum>:
878018cc:	b590      	push	{r4, r7, lr}
878018ce:	b089      	sub	sp, #36	; 0x24
878018d0:	af02      	add	r7, sp, #8
878018d2:	60ba      	str	r2, [r7, #8]
878018d4:	461a      	mov	r2, r3
878018d6:	4603      	mov	r3, r0
878018d8:	81fb      	strh	r3, [r7, #14]
878018da:	460b      	mov	r3, r1
878018dc:	81bb      	strh	r3, [r7, #12]
878018de:	4613      	mov	r3, r2
878018e0:	71fb      	strb	r3, [r7, #7]
878018e2:	2300      	movs	r3, #0
878018e4:	75bb      	strb	r3, [r7, #22]
878018e6:	2300      	movs	r3, #0
878018e8:	75fb      	strb	r3, [r7, #23]
878018ea:	e059      	b.n	878019a0 <lcd_shownum+0xd4>
878018ec:	79fa      	ldrb	r2, [r7, #7]
878018ee:	7dfb      	ldrb	r3, [r7, #23]
878018f0:	1ad3      	subs	r3, r2, r3
878018f2:	b2db      	uxtb	r3, r3
878018f4:	3b01      	subs	r3, #1
878018f6:	b2db      	uxtb	r3, r3
878018f8:	4619      	mov	r1, r3
878018fa:	200a      	movs	r0, #10
878018fc:	f7ff ffca 	bl	87801894 <lcd_pow>
87801900:	4603      	mov	r3, r0
87801902:	4619      	mov	r1, r3
87801904:	68b8      	ldr	r0, [r7, #8]
87801906:	f003 ff0f 	bl	87805728 <__udivsi3>
8780190a:	4603      	mov	r3, r0
8780190c:	461a      	mov	r2, r3
8780190e:	f64c 43cd 	movw	r3, #52429	; 0xcccd
87801912:	f6cc 43cc 	movt	r3, #52428	; 0xcccc
87801916:	fba3 1302 	umull	r1, r3, r3, r2
8780191a:	08db      	lsrs	r3, r3, #3
8780191c:	210a      	movs	r1, #10
8780191e:	fb01 f303 	mul.w	r3, r1, r3
87801922:	1ad3      	subs	r3, r2, r3
87801924:	757b      	strb	r3, [r7, #21]
87801926:	7dbb      	ldrb	r3, [r7, #22]
87801928:	2b00      	cmp	r3, #0
8780192a:	d11f      	bne.n	8780196c <lcd_shownum+0xa0>
8780192c:	7dfa      	ldrb	r2, [r7, #23]
8780192e:	79fb      	ldrb	r3, [r7, #7]
87801930:	3b01      	subs	r3, #1
87801932:	429a      	cmp	r2, r3
87801934:	da1a      	bge.n	8780196c <lcd_shownum+0xa0>
87801936:	7d7b      	ldrb	r3, [r7, #21]
87801938:	2b00      	cmp	r3, #0
8780193a:	d115      	bne.n	87801968 <lcd_shownum+0x9c>
8780193c:	f897 3028 	ldrb.w	r3, [r7, #40]	; 0x28
87801940:	085b      	lsrs	r3, r3, #1
87801942:	b2db      	uxtb	r3, r3
87801944:	b29a      	uxth	r2, r3
87801946:	7dfb      	ldrb	r3, [r7, #23]
87801948:	b29b      	uxth	r3, r3
8780194a:	fb12 f303 	smulbb	r3, r2, r3
8780194e:	b29a      	uxth	r2, r3
87801950:	89fb      	ldrh	r3, [r7, #14]
87801952:	4413      	add	r3, r2
87801954:	b298      	uxth	r0, r3
87801956:	f897 3028 	ldrb.w	r3, [r7, #40]	; 0x28
8780195a:	89b9      	ldrh	r1, [r7, #12]
8780195c:	2200      	movs	r2, #0
8780195e:	9200      	str	r2, [sp, #0]
87801960:	2220      	movs	r2, #32
87801962:	f7ff fed5 	bl	87801710 <lcd_showchar>
87801966:	e018      	b.n	8780199a <lcd_shownum+0xce>
87801968:	2301      	movs	r3, #1
8780196a:	75bb      	strb	r3, [r7, #22]
8780196c:	f897 3028 	ldrb.w	r3, [r7, #40]	; 0x28
87801970:	085b      	lsrs	r3, r3, #1
87801972:	b2db      	uxtb	r3, r3
87801974:	b29a      	uxth	r2, r3
87801976:	7dfb      	ldrb	r3, [r7, #23]
87801978:	b29b      	uxth	r3, r3
8780197a:	fb12 f303 	smulbb	r3, r2, r3
8780197e:	b29a      	uxth	r2, r3
87801980:	89fb      	ldrh	r3, [r7, #14]
87801982:	4413      	add	r3, r2
87801984:	b298      	uxth	r0, r3
87801986:	7d7b      	ldrb	r3, [r7, #21]
87801988:	3330      	adds	r3, #48	; 0x30
8780198a:	b2da      	uxtb	r2, r3
8780198c:	f897 3028 	ldrb.w	r3, [r7, #40]	; 0x28
87801990:	89b9      	ldrh	r1, [r7, #12]
87801992:	2400      	movs	r4, #0
87801994:	9400      	str	r4, [sp, #0]
87801996:	f7ff febb 	bl	87801710 <lcd_showchar>
8780199a:	7dfb      	ldrb	r3, [r7, #23]
8780199c:	3301      	adds	r3, #1
8780199e:	75fb      	strb	r3, [r7, #23]
878019a0:	7dfa      	ldrb	r2, [r7, #23]
878019a2:	79fb      	ldrb	r3, [r7, #7]
878019a4:	429a      	cmp	r2, r3
878019a6:	d3a1      	bcc.n	878018ec <lcd_shownum+0x20>
878019a8:	bf00      	nop
878019aa:	bf00      	nop
878019ac:	371c      	adds	r7, #28
878019ae:	46bd      	mov	sp, r7
878019b0:	bd90      	pop	{r4, r7, pc}

878019b2 <lcd_showxnum>:
878019b2:	b590      	push	{r4, r7, lr}
878019b4:	b089      	sub	sp, #36	; 0x24
878019b6:	af02      	add	r7, sp, #8
878019b8:	60ba      	str	r2, [r7, #8]
878019ba:	461a      	mov	r2, r3
878019bc:	4603      	mov	r3, r0
878019be:	81fb      	strh	r3, [r7, #14]
878019c0:	460b      	mov	r3, r1
878019c2:	81bb      	strh	r3, [r7, #12]
878019c4:	4613      	mov	r3, r2
878019c6:	71fb      	strb	r3, [r7, #7]
878019c8:	2300      	movs	r3, #0
878019ca:	75bb      	strb	r3, [r7, #22]
878019cc:	2300      	movs	r3, #0
878019ce:	75fb      	strb	r3, [r7, #23]
878019d0:	e082      	b.n	87801ad8 <lcd_showxnum+0x126>
878019d2:	79fa      	ldrb	r2, [r7, #7]
878019d4:	7dfb      	ldrb	r3, [r7, #23]
878019d6:	1ad3      	subs	r3, r2, r3
878019d8:	b2db      	uxtb	r3, r3
878019da:	3b01      	subs	r3, #1
878019dc:	b2db      	uxtb	r3, r3
878019de:	4619      	mov	r1, r3
878019e0:	200a      	movs	r0, #10
878019e2:	f7ff ff57 	bl	87801894 <lcd_pow>
878019e6:	4603      	mov	r3, r0
878019e8:	4619      	mov	r1, r3
878019ea:	68b8      	ldr	r0, [r7, #8]
878019ec:	f003 fe9c 	bl	87805728 <__udivsi3>
878019f0:	4603      	mov	r3, r0
878019f2:	461a      	mov	r2, r3
878019f4:	f64c 43cd 	movw	r3, #52429	; 0xcccd
878019f8:	f6cc 43cc 	movt	r3, #52428	; 0xcccc
878019fc:	fba3 1302 	umull	r1, r3, r3, r2
87801a00:	08db      	lsrs	r3, r3, #3
87801a02:	210a      	movs	r1, #10
87801a04:	fb01 f303 	mul.w	r3, r1, r3
87801a08:	1ad3      	subs	r3, r2, r3
87801a0a:	757b      	strb	r3, [r7, #21]
87801a0c:	7dbb      	ldrb	r3, [r7, #22]
87801a0e:	2b00      	cmp	r3, #0
87801a10:	d143      	bne.n	87801a9a <lcd_showxnum+0xe8>
87801a12:	7dfa      	ldrb	r2, [r7, #23]
87801a14:	79fb      	ldrb	r3, [r7, #7]
87801a16:	3b01      	subs	r3, #1
87801a18:	429a      	cmp	r2, r3
87801a1a:	da3e      	bge.n	87801a9a <lcd_showxnum+0xe8>
87801a1c:	7d7b      	ldrb	r3, [r7, #21]
87801a1e:	2b00      	cmp	r3, #0
87801a20:	d139      	bne.n	87801a96 <lcd_showxnum+0xe4>
87801a22:	f997 302c 	ldrsb.w	r3, [r7, #44]	; 0x2c
87801a26:	2b00      	cmp	r3, #0
87801a28:	da1a      	bge.n	87801a60 <lcd_showxnum+0xae>
87801a2a:	f897 3028 	ldrb.w	r3, [r7, #40]	; 0x28
87801a2e:	085b      	lsrs	r3, r3, #1
87801a30:	b2db      	uxtb	r3, r3
87801a32:	b29a      	uxth	r2, r3
87801a34:	7dfb      	ldrb	r3, [r7, #23]
87801a36:	b29b      	uxth	r3, r3
87801a38:	fb12 f303 	smulbb	r3, r2, r3
87801a3c:	b29a      	uxth	r2, r3
87801a3e:	89fb      	ldrh	r3, [r7, #14]
87801a40:	4413      	add	r3, r2
87801a42:	b298      	uxth	r0, r3
87801a44:	f897 302c 	ldrb.w	r3, [r7, #44]	; 0x2c
87801a48:	f003 0301 	and.w	r3, r3, #1
87801a4c:	b2db      	uxtb	r3, r3
87801a4e:	f897 2028 	ldrb.w	r2, [r7, #40]	; 0x28
87801a52:	89b9      	ldrh	r1, [r7, #12]
87801a54:	9300      	str	r3, [sp, #0]
87801a56:	4613      	mov	r3, r2
87801a58:	2230      	movs	r2, #48	; 0x30
87801a5a:	f7ff fe59 	bl	87801710 <lcd_showchar>
87801a5e:	e038      	b.n	87801ad2 <lcd_showxnum+0x120>
87801a60:	f897 3028 	ldrb.w	r3, [r7, #40]	; 0x28
87801a64:	085b      	lsrs	r3, r3, #1
87801a66:	b2db      	uxtb	r3, r3
87801a68:	b29a      	uxth	r2, r3
87801a6a:	7dfb      	ldrb	r3, [r7, #23]
87801a6c:	b29b      	uxth	r3, r3
87801a6e:	fb12 f303 	smulbb	r3, r2, r3
87801a72:	b29a      	uxth	r2, r3
87801a74:	89fb      	ldrh	r3, [r7, #14]
87801a76:	4413      	add	r3, r2
87801a78:	b298      	uxth	r0, r3
87801a7a:	f897 302c 	ldrb.w	r3, [r7, #44]	; 0x2c
87801a7e:	f003 0301 	and.w	r3, r3, #1
87801a82:	b2db      	uxtb	r3, r3
87801a84:	f897 2028 	ldrb.w	r2, [r7, #40]	; 0x28
87801a88:	89b9      	ldrh	r1, [r7, #12]
87801a8a:	9300      	str	r3, [sp, #0]
87801a8c:	4613      	mov	r3, r2
87801a8e:	2220      	movs	r2, #32
87801a90:	f7ff fe3e 	bl	87801710 <lcd_showchar>
87801a94:	e01d      	b.n	87801ad2 <lcd_showxnum+0x120>
87801a96:	2301      	movs	r3, #1
87801a98:	75bb      	strb	r3, [r7, #22]
87801a9a:	f897 3028 	ldrb.w	r3, [r7, #40]	; 0x28
87801a9e:	085b      	lsrs	r3, r3, #1
87801aa0:	b2db      	uxtb	r3, r3
87801aa2:	b29a      	uxth	r2, r3
87801aa4:	7dfb      	ldrb	r3, [r7, #23]
87801aa6:	b29b      	uxth	r3, r3
87801aa8:	fb12 f303 	smulbb	r3, r2, r3
87801aac:	b29a      	uxth	r2, r3
87801aae:	89fb      	ldrh	r3, [r7, #14]
87801ab0:	4413      	add	r3, r2
87801ab2:	b298      	uxth	r0, r3
87801ab4:	7d7b      	ldrb	r3, [r7, #21]
87801ab6:	3330      	adds	r3, #48	; 0x30
87801ab8:	b2da      	uxtb	r2, r3
87801aba:	f897 302c 	ldrb.w	r3, [r7, #44]	; 0x2c
87801abe:	f003 0301 	and.w	r3, r3, #1
87801ac2:	b2db      	uxtb	r3, r3
87801ac4:	f897 4028 	ldrb.w	r4, [r7, #40]	; 0x28
87801ac8:	89b9      	ldrh	r1, [r7, #12]
87801aca:	9300      	str	r3, [sp, #0]
87801acc:	4623      	mov	r3, r4
87801ace:	f7ff fe1f 	bl	87801710 <lcd_showchar>
87801ad2:	7dfb      	ldrb	r3, [r7, #23]
87801ad4:	3301      	adds	r3, #1
87801ad6:	75fb      	strb	r3, [r7, #23]
87801ad8:	7dfa      	ldrb	r2, [r7, #23]
87801ada:	79fb      	ldrb	r3, [r7, #7]
87801adc:	429a      	cmp	r2, r3
87801ade:	f4ff af78 	bcc.w	878019d2 <lcd_showxnum+0x20>
87801ae2:	bf00      	nop
87801ae4:	bf00      	nop
87801ae6:	371c      	adds	r7, #28
87801ae8:	46bd      	mov	sp, r7
87801aea:	bd90      	pop	{r4, r7, pc}

87801aec <lcd_show_string>:
87801aec:	b590      	push	{r4, r7, lr}
87801aee:	b087      	sub	sp, #28
87801af0:	af02      	add	r7, sp, #8
87801af2:	4604      	mov	r4, r0
87801af4:	4608      	mov	r0, r1
87801af6:	4611      	mov	r1, r2
87801af8:	461a      	mov	r2, r3
87801afa:	4623      	mov	r3, r4
87801afc:	80fb      	strh	r3, [r7, #6]
87801afe:	4603      	mov	r3, r0
87801b00:	80bb      	strh	r3, [r7, #4]
87801b02:	460b      	mov	r3, r1
87801b04:	807b      	strh	r3, [r7, #2]
87801b06:	4613      	mov	r3, r2
87801b08:	803b      	strh	r3, [r7, #0]
87801b0a:	88fb      	ldrh	r3, [r7, #6]
87801b0c:	73fb      	strb	r3, [r7, #15]
87801b0e:	887a      	ldrh	r2, [r7, #2]
87801b10:	88fb      	ldrh	r3, [r7, #6]
87801b12:	4413      	add	r3, r2
87801b14:	807b      	strh	r3, [r7, #2]
87801b16:	883a      	ldrh	r2, [r7, #0]
87801b18:	88bb      	ldrh	r3, [r7, #4]
87801b1a:	4413      	add	r3, r2
87801b1c:	803b      	strh	r3, [r7, #0]
87801b1e:	e024      	b.n	87801b6a <lcd_show_string+0x7e>
87801b20:	88fa      	ldrh	r2, [r7, #6]
87801b22:	887b      	ldrh	r3, [r7, #2]
87801b24:	429a      	cmp	r2, r3
87801b26:	d307      	bcc.n	87801b38 <lcd_show_string+0x4c>
87801b28:	7bfb      	ldrb	r3, [r7, #15]
87801b2a:	80fb      	strh	r3, [r7, #6]
87801b2c:	f897 3020 	ldrb.w	r3, [r7, #32]
87801b30:	b29a      	uxth	r2, r3
87801b32:	88bb      	ldrh	r3, [r7, #4]
87801b34:	4413      	add	r3, r2
87801b36:	80bb      	strh	r3, [r7, #4]
87801b38:	88ba      	ldrh	r2, [r7, #4]
87801b3a:	883b      	ldrh	r3, [r7, #0]
87801b3c:	429a      	cmp	r2, r3
87801b3e:	d21d      	bcs.n	87801b7c <lcd_show_string+0x90>
87801b40:	6a7b      	ldr	r3, [r7, #36]	; 0x24
87801b42:	781a      	ldrb	r2, [r3, #0]
87801b44:	f897 3020 	ldrb.w	r3, [r7, #32]
87801b48:	88b9      	ldrh	r1, [r7, #4]
87801b4a:	88f8      	ldrh	r0, [r7, #6]
87801b4c:	2400      	movs	r4, #0
87801b4e:	9400      	str	r4, [sp, #0]
87801b50:	f7ff fdde 	bl	87801710 <lcd_showchar>
87801b54:	f897 3020 	ldrb.w	r3, [r7, #32]
87801b58:	085b      	lsrs	r3, r3, #1
87801b5a:	b2db      	uxtb	r3, r3
87801b5c:	b29a      	uxth	r2, r3
87801b5e:	88fb      	ldrh	r3, [r7, #6]
87801b60:	4413      	add	r3, r2
87801b62:	80fb      	strh	r3, [r7, #6]
87801b64:	6a7b      	ldr	r3, [r7, #36]	; 0x24
87801b66:	3301      	adds	r3, #1
87801b68:	627b      	str	r3, [r7, #36]	; 0x24
87801b6a:	6a7b      	ldr	r3, [r7, #36]	; 0x24
87801b6c:	781b      	ldrb	r3, [r3, #0]
87801b6e:	2b7e      	cmp	r3, #126	; 0x7e
87801b70:	d805      	bhi.n	87801b7e <lcd_show_string+0x92>
87801b72:	6a7b      	ldr	r3, [r7, #36]	; 0x24
87801b74:	781b      	ldrb	r3, [r3, #0]
87801b76:	2b1f      	cmp	r3, #31
87801b78:	d8d2      	bhi.n	87801b20 <lcd_show_string+0x34>
87801b7a:	e000      	b.n	87801b7e <lcd_show_string+0x92>
87801b7c:	bf00      	nop
87801b7e:	bf00      	nop
87801b80:	3714      	adds	r7, #20
87801b82:	46bd      	mov	sp, r7
87801b84:	bd90      	pop	{r4, r7, pc}
87801b86:	bf00      	nop

87801b88 <IOMUXC_SetPinMux>:
87801b88:	b480      	push	{r7}
87801b8a:	b085      	sub	sp, #20
87801b8c:	af00      	add	r7, sp, #0
87801b8e:	60f8      	str	r0, [r7, #12]
87801b90:	60b9      	str	r1, [r7, #8]
87801b92:	607a      	str	r2, [r7, #4]
87801b94:	603b      	str	r3, [r7, #0]
87801b96:	68bb      	ldr	r3, [r7, #8]
87801b98:	f003 010f 	and.w	r1, r3, #15
87801b9c:	69fb      	ldr	r3, [r7, #28]
87801b9e:	011b      	lsls	r3, r3, #4
87801ba0:	f003 0210 	and.w	r2, r3, #16
87801ba4:	68fb      	ldr	r3, [r7, #12]
87801ba6:	430a      	orrs	r2, r1
87801ba8:	601a      	str	r2, [r3, #0]
87801baa:	687b      	ldr	r3, [r7, #4]
87801bac:	2b00      	cmp	r3, #0
87801bae:	d004      	beq.n	87801bba <IOMUXC_SetPinMux+0x32>
87801bb0:	687b      	ldr	r3, [r7, #4]
87801bb2:	683a      	ldr	r2, [r7, #0]
87801bb4:	f002 0207 	and.w	r2, r2, #7
87801bb8:	601a      	str	r2, [r3, #0]
87801bba:	bf00      	nop
87801bbc:	3714      	adds	r7, #20
87801bbe:	46bd      	mov	sp, r7
87801bc0:	f85d 7b04 	ldr.w	r7, [sp], #4
87801bc4:	4770      	bx	lr

87801bc6 <IOMUXC_SetPinConfig>:
87801bc6:	b480      	push	{r7}
87801bc8:	b085      	sub	sp, #20
87801bca:	af00      	add	r7, sp, #0
87801bcc:	60f8      	str	r0, [r7, #12]
87801bce:	60b9      	str	r1, [r7, #8]
87801bd0:	607a      	str	r2, [r7, #4]
87801bd2:	603b      	str	r3, [r7, #0]
87801bd4:	69bb      	ldr	r3, [r7, #24]
87801bd6:	2b00      	cmp	r3, #0
87801bd8:	d002      	beq.n	87801be0 <IOMUXC_SetPinConfig+0x1a>
87801bda:	69bb      	ldr	r3, [r7, #24]
87801bdc:	69fa      	ldr	r2, [r7, #28]
87801bde:	601a      	str	r2, [r3, #0]
87801be0:	bf00      	nop
87801be2:	3714      	adds	r7, #20
87801be4:	46bd      	mov	sp, r7
87801be6:	f85d 7b04 	ldr.w	r7, [sp], #4
87801bea:	4770      	bx	lr

87801bec <lcd_init>:
87801bec:	b580      	push	{r7, lr}
87801bee:	b082      	sub	sp, #8
87801bf0:	af00      	add	r7, sp, #0
87801bf2:	2300      	movs	r3, #0
87801bf4:	80fb      	strh	r3, [r7, #6]
87801bf6:	f000 fa6b 	bl	878020d0 <lcd_read_panelid>
87801bfa:	4603      	mov	r3, r0
87801bfc:	80fb      	strh	r3, [r7, #6]
87801bfe:	88fa      	ldrh	r2, [r7, #6]
87801c00:	4bea      	ldr	r3, [pc, #936]	; (87801fac <lcd_init+0x3c0>)
87801c02:	447b      	add	r3, pc
87801c04:	621a      	str	r2, [r3, #32]
87801c06:	88fb      	ldrh	r3, [r7, #6]
87801c08:	4619      	mov	r1, r3
87801c0a:	4be9      	ldr	r3, [pc, #932]	; (87801fb0 <lcd_init+0x3c4>)
87801c0c:	447b      	add	r3, pc
87801c0e:	4618      	mov	r0, r3
87801c10:	f001 fc20 	bl	87803454 <printf>
87801c14:	f000 fb61 	bl	878022da <lcdgpio_init>
87801c18:	f000 ffbe 	bl	87802b98 <lcd_reset>
87801c1c:	200a      	movs	r0, #10
87801c1e:	f7fe ffdf 	bl	87800be0 <delayms>
87801c22:	f000 ffc7 	bl	87802bb4 <lcd_noreset>
87801c26:	88fb      	ldrh	r3, [r7, #6]
87801c28:	f244 3242 	movw	r2, #17218	; 0x4342
87801c2c:	4293      	cmp	r3, r2
87801c2e:	d127      	bne.n	87801c80 <lcd_init+0x94>
87801c30:	4be0      	ldr	r3, [pc, #896]	; (87801fb4 <lcd_init+0x3c8>)
87801c32:	447b      	add	r3, pc
87801c34:	f44f 7288 	mov.w	r2, #272	; 0x110
87801c38:	801a      	strh	r2, [r3, #0]
87801c3a:	4bdf      	ldr	r3, [pc, #892]	; (87801fb8 <lcd_init+0x3cc>)
87801c3c:	447b      	add	r3, pc
87801c3e:	f44f 72f0 	mov.w	r2, #480	; 0x1e0
87801c42:	805a      	strh	r2, [r3, #2]
87801c44:	4bdd      	ldr	r3, [pc, #884]	; (87801fbc <lcd_init+0x3d0>)
87801c46:	447b      	add	r3, pc
87801c48:	2201      	movs	r2, #1
87801c4a:	80da      	strh	r2, [r3, #6]
87801c4c:	4bdc      	ldr	r3, [pc, #880]	; (87801fc0 <lcd_init+0x3d4>)
87801c4e:	447b      	add	r3, pc
87801c50:	2208      	movs	r2, #8
87801c52:	811a      	strh	r2, [r3, #8]
87801c54:	4bdb      	ldr	r3, [pc, #876]	; (87801fc4 <lcd_init+0x3d8>)
87801c56:	447b      	add	r3, pc
87801c58:	2208      	movs	r2, #8
87801c5a:	815a      	strh	r2, [r3, #10]
87801c5c:	4bda      	ldr	r3, [pc, #872]	; (87801fc8 <lcd_init+0x3dc>)
87801c5e:	447b      	add	r3, pc
87801c60:	2201      	movs	r2, #1
87801c62:	819a      	strh	r2, [r3, #12]
87801c64:	4bd9      	ldr	r3, [pc, #868]	; (87801fcc <lcd_init+0x3e0>)
87801c66:	447b      	add	r3, pc
87801c68:	2228      	movs	r2, #40	; 0x28
87801c6a:	81da      	strh	r2, [r3, #14]
87801c6c:	4bd8      	ldr	r3, [pc, #864]	; (87801fd0 <lcd_init+0x3e4>)
87801c6e:	447b      	add	r3, pc
87801c70:	2205      	movs	r2, #5
87801c72:	821a      	strh	r2, [r3, #16]
87801c74:	2208      	movs	r2, #8
87801c76:	2108      	movs	r1, #8
87801c78:	201b      	movs	r0, #27
87801c7a:	f000 feee 	bl	87802a5a <lcdclk_init>
87801c7e:	e0de      	b.n	87801e3e <lcd_init+0x252>
87801c80:	88fb      	ldrh	r3, [r7, #6]
87801c82:	f244 3284 	movw	r2, #17284	; 0x4384
87801c86:	4293      	cmp	r3, r2
87801c88:	d127      	bne.n	87801cda <lcd_init+0xee>
87801c8a:	4bd2      	ldr	r3, [pc, #840]	; (87801fd4 <lcd_init+0x3e8>)
87801c8c:	447b      	add	r3, pc
87801c8e:	f44f 72f0 	mov.w	r2, #480	; 0x1e0
87801c92:	801a      	strh	r2, [r3, #0]
87801c94:	4bd0      	ldr	r3, [pc, #832]	; (87801fd8 <lcd_init+0x3ec>)
87801c96:	447b      	add	r3, pc
87801c98:	f44f 7248 	mov.w	r2, #800	; 0x320
87801c9c:	805a      	strh	r2, [r3, #2]
87801c9e:	4bcf      	ldr	r3, [pc, #828]	; (87801fdc <lcd_init+0x3f0>)
87801ca0:	447b      	add	r3, pc
87801ca2:	2203      	movs	r2, #3
87801ca4:	80da      	strh	r2, [r3, #6]
87801ca6:	4bce      	ldr	r3, [pc, #824]	; (87801fe0 <lcd_init+0x3f4>)
87801ca8:	447b      	add	r3, pc
87801caa:	2220      	movs	r2, #32
87801cac:	811a      	strh	r2, [r3, #8]
87801cae:	4bcd      	ldr	r3, [pc, #820]	; (87801fe4 <lcd_init+0x3f8>)
87801cb0:	447b      	add	r3, pc
87801cb2:	220d      	movs	r2, #13
87801cb4:	815a      	strh	r2, [r3, #10]
87801cb6:	4bcc      	ldr	r3, [pc, #816]	; (87801fe8 <lcd_init+0x3fc>)
87801cb8:	447b      	add	r3, pc
87801cba:	2230      	movs	r2, #48	; 0x30
87801cbc:	819a      	strh	r2, [r3, #12]
87801cbe:	4bcb      	ldr	r3, [pc, #812]	; (87801fec <lcd_init+0x400>)
87801cc0:	447b      	add	r3, pc
87801cc2:	2258      	movs	r2, #88	; 0x58
87801cc4:	81da      	strh	r2, [r3, #14]
87801cc6:	4bca      	ldr	r3, [pc, #808]	; (87801ff0 <lcd_init+0x404>)
87801cc8:	447b      	add	r3, pc
87801cca:	2228      	movs	r2, #40	; 0x28
87801ccc:	821a      	strh	r2, [r3, #16]
87801cce:	2208      	movs	r2, #8
87801cd0:	2104      	movs	r1, #4
87801cd2:	202a      	movs	r0, #42	; 0x2a
87801cd4:	f000 fec1 	bl	87802a5a <lcdclk_init>
87801cd8:	e0b1      	b.n	87801e3e <lcd_init+0x252>
87801cda:	88fb      	ldrh	r3, [r7, #6]
87801cdc:	f247 0284 	movw	r2, #28804	; 0x7084
87801ce0:	4293      	cmp	r3, r2
87801ce2:	d127      	bne.n	87801d34 <lcd_init+0x148>
87801ce4:	4bc3      	ldr	r3, [pc, #780]	; (87801ff4 <lcd_init+0x408>)
87801ce6:	447b      	add	r3, pc
87801ce8:	f44f 72f0 	mov.w	r2, #480	; 0x1e0
87801cec:	801a      	strh	r2, [r3, #0]
87801cee:	4bc2      	ldr	r3, [pc, #776]	; (87801ff8 <lcd_init+0x40c>)
87801cf0:	447b      	add	r3, pc
87801cf2:	f44f 7248 	mov.w	r2, #800	; 0x320
87801cf6:	805a      	strh	r2, [r3, #2]
87801cf8:	4bc0      	ldr	r3, [pc, #768]	; (87801ffc <lcd_init+0x410>)
87801cfa:	447b      	add	r3, pc
87801cfc:	2201      	movs	r2, #1
87801cfe:	80da      	strh	r2, [r3, #6]
87801d00:	4bbf      	ldr	r3, [pc, #764]	; (87802000 <lcd_init+0x414>)
87801d02:	447b      	add	r3, pc
87801d04:	2217      	movs	r2, #23
87801d06:	811a      	strh	r2, [r3, #8]
87801d08:	4bbe      	ldr	r3, [pc, #760]	; (87802004 <lcd_init+0x418>)
87801d0a:	447b      	add	r3, pc
87801d0c:	2216      	movs	r2, #22
87801d0e:	815a      	strh	r2, [r3, #10]
87801d10:	4bbd      	ldr	r3, [pc, #756]	; (87802008 <lcd_init+0x41c>)
87801d12:	447b      	add	r3, pc
87801d14:	2201      	movs	r2, #1
87801d16:	819a      	strh	r2, [r3, #12]
87801d18:	4bbc      	ldr	r3, [pc, #752]	; (8780200c <lcd_init+0x420>)
87801d1a:	447b      	add	r3, pc
87801d1c:	222e      	movs	r2, #46	; 0x2e
87801d1e:	81da      	strh	r2, [r3, #14]
87801d20:	4bbb      	ldr	r3, [pc, #748]	; (87802010 <lcd_init+0x424>)
87801d22:	447b      	add	r3, pc
87801d24:	22d2      	movs	r2, #210	; 0xd2
87801d26:	821a      	strh	r2, [r3, #16]
87801d28:	2207      	movs	r2, #7
87801d2a:	2103      	movs	r1, #3
87801d2c:	201e      	movs	r0, #30
87801d2e:	f000 fe94 	bl	87802a5a <lcdclk_init>
87801d32:	e084      	b.n	87801e3e <lcd_init+0x252>
87801d34:	88fb      	ldrh	r3, [r7, #6]
87801d36:	f247 0216 	movw	r2, #28694	; 0x7016
87801d3a:	4293      	cmp	r3, r2
87801d3c:	d127      	bne.n	87801d8e <lcd_init+0x1a2>
87801d3e:	4bb5      	ldr	r3, [pc, #724]	; (87802014 <lcd_init+0x428>)
87801d40:	447b      	add	r3, pc
87801d42:	f44f 7216 	mov.w	r2, #600	; 0x258
87801d46:	801a      	strh	r2, [r3, #0]
87801d48:	4bb3      	ldr	r3, [pc, #716]	; (87802018 <lcd_init+0x42c>)
87801d4a:	447b      	add	r3, pc
87801d4c:	f44f 6280 	mov.w	r2, #1024	; 0x400
87801d50:	805a      	strh	r2, [r3, #2]
87801d52:	4bb2      	ldr	r3, [pc, #712]	; (8780201c <lcd_init+0x430>)
87801d54:	447b      	add	r3, pc
87801d56:	2203      	movs	r2, #3
87801d58:	80da      	strh	r2, [r3, #6]
87801d5a:	4bb1      	ldr	r3, [pc, #708]	; (87802020 <lcd_init+0x434>)
87801d5c:	447b      	add	r3, pc
87801d5e:	2214      	movs	r2, #20
87801d60:	811a      	strh	r2, [r3, #8]
87801d62:	4bb0      	ldr	r3, [pc, #704]	; (87802024 <lcd_init+0x438>)
87801d64:	447b      	add	r3, pc
87801d66:	220c      	movs	r2, #12
87801d68:	815a      	strh	r2, [r3, #10]
87801d6a:	4baf      	ldr	r3, [pc, #700]	; (87802028 <lcd_init+0x43c>)
87801d6c:	447b      	add	r3, pc
87801d6e:	2214      	movs	r2, #20
87801d70:	819a      	strh	r2, [r3, #12]
87801d72:	4bae      	ldr	r3, [pc, #696]	; (8780202c <lcd_init+0x440>)
87801d74:	447b      	add	r3, pc
87801d76:	228c      	movs	r2, #140	; 0x8c
87801d78:	81da      	strh	r2, [r3, #14]
87801d7a:	4bad      	ldr	r3, [pc, #692]	; (87802030 <lcd_init+0x444>)
87801d7c:	447b      	add	r3, pc
87801d7e:	22a0      	movs	r2, #160	; 0xa0
87801d80:	821a      	strh	r2, [r3, #16]
87801d82:	2205      	movs	r2, #5
87801d84:	2103      	movs	r1, #3
87801d86:	2020      	movs	r0, #32
87801d88:	f000 fe67 	bl	87802a5a <lcdclk_init>
87801d8c:	e057      	b.n	87801e3e <lcd_init+0x252>
87801d8e:	88fb      	ldrh	r3, [r7, #6]
87801d90:	f241 0218 	movw	r2, #4120	; 0x1018
87801d94:	4293      	cmp	r3, r2
87801d96:	d127      	bne.n	87801de8 <lcd_init+0x1fc>
87801d98:	4ba6      	ldr	r3, [pc, #664]	; (87802034 <lcd_init+0x448>)
87801d9a:	447b      	add	r3, pc
87801d9c:	f44f 7248 	mov.w	r2, #800	; 0x320
87801da0:	801a      	strh	r2, [r3, #0]
87801da2:	4ba5      	ldr	r3, [pc, #660]	; (87802038 <lcd_init+0x44c>)
87801da4:	447b      	add	r3, pc
87801da6:	f44f 62a0 	mov.w	r2, #1280	; 0x500
87801daa:	805a      	strh	r2, [r3, #2]
87801dac:	4ba3      	ldr	r3, [pc, #652]	; (8780203c <lcd_init+0x450>)
87801dae:	447b      	add	r3, pc
87801db0:	2203      	movs	r2, #3
87801db2:	80da      	strh	r2, [r3, #6]
87801db4:	4ba2      	ldr	r3, [pc, #648]	; (87802040 <lcd_init+0x454>)
87801db6:	447b      	add	r3, pc
87801db8:	220a      	movs	r2, #10
87801dba:	811a      	strh	r2, [r3, #8]
87801dbc:	4ba1      	ldr	r3, [pc, #644]	; (87802044 <lcd_init+0x458>)
87801dbe:	447b      	add	r3, pc
87801dc0:	220a      	movs	r2, #10
87801dc2:	815a      	strh	r2, [r3, #10]
87801dc4:	4ba0      	ldr	r3, [pc, #640]	; (87802048 <lcd_init+0x45c>)
87801dc6:	447b      	add	r3, pc
87801dc8:	220a      	movs	r2, #10
87801dca:	819a      	strh	r2, [r3, #12]
87801dcc:	4b9f      	ldr	r3, [pc, #636]	; (8780204c <lcd_init+0x460>)
87801dce:	447b      	add	r3, pc
87801dd0:	2250      	movs	r2, #80	; 0x50
87801dd2:	81da      	strh	r2, [r3, #14]
87801dd4:	4b9e      	ldr	r3, [pc, #632]	; (87802050 <lcd_init+0x464>)
87801dd6:	447b      	add	r3, pc
87801dd8:	2246      	movs	r2, #70	; 0x46
87801dda:	821a      	strh	r2, [r3, #16]
87801ddc:	2205      	movs	r2, #5
87801dde:	2103      	movs	r1, #3
87801de0:	2023      	movs	r0, #35	; 0x23
87801de2:	f000 fe3a 	bl	87802a5a <lcdclk_init>
87801de6:	e02a      	b.n	87801e3e <lcd_init+0x252>
87801de8:	88fb      	ldrh	r3, [r7, #6]
87801dea:	f5b3 4f7f 	cmp.w	r3, #65280	; 0xff00
87801dee:	d126      	bne.n	87801e3e <lcd_init+0x252>
87801df0:	4b98      	ldr	r3, [pc, #608]	; (87802054 <lcd_init+0x468>)
87801df2:	447b      	add	r3, pc
87801df4:	f44f 7240 	mov.w	r2, #768	; 0x300
87801df8:	801a      	strh	r2, [r3, #0]
87801dfa:	4b97      	ldr	r3, [pc, #604]	; (87802058 <lcd_init+0x46c>)
87801dfc:	447b      	add	r3, pc
87801dfe:	f240 5256 	movw	r2, #1366	; 0x556
87801e02:	805a      	strh	r2, [r3, #2]
87801e04:	4b95      	ldr	r3, [pc, #596]	; (8780205c <lcd_init+0x470>)
87801e06:	447b      	add	r3, pc
87801e08:	2203      	movs	r2, #3
87801e0a:	80da      	strh	r2, [r3, #6]
87801e0c:	4b94      	ldr	r3, [pc, #592]	; (87802060 <lcd_init+0x474>)
87801e0e:	447b      	add	r3, pc
87801e10:	2218      	movs	r2, #24
87801e12:	811a      	strh	r2, [r3, #8]
87801e14:	4b93      	ldr	r3, [pc, #588]	; (87802064 <lcd_init+0x478>)
87801e16:	447b      	add	r3, pc
87801e18:	2203      	movs	r2, #3
87801e1a:	815a      	strh	r2, [r3, #10]
87801e1c:	4b92      	ldr	r3, [pc, #584]	; (87802068 <lcd_init+0x47c>)
87801e1e:	447b      	add	r3, pc
87801e20:	228f      	movs	r2, #143	; 0x8f
87801e22:	819a      	strh	r2, [r3, #12]
87801e24:	4b91      	ldr	r3, [pc, #580]	; (8780206c <lcd_init+0x480>)
87801e26:	447b      	add	r3, pc
87801e28:	22d5      	movs	r2, #213	; 0xd5
87801e2a:	81da      	strh	r2, [r3, #14]
87801e2c:	4b90      	ldr	r3, [pc, #576]	; (87802070 <lcd_init+0x484>)
87801e2e:	447b      	add	r3, pc
87801e30:	2246      	movs	r2, #70	; 0x46
87801e32:	821a      	strh	r2, [r3, #16]
87801e34:	2203      	movs	r2, #3
87801e36:	2103      	movs	r1, #3
87801e38:	2020      	movs	r0, #32
87801e3a:	f000 fe0e 	bl	87802a5a <lcdclk_init>
87801e3e:	4b8d      	ldr	r3, [pc, #564]	; (87802074 <lcd_init+0x488>)
87801e40:	447b      	add	r3, pc
87801e42:	2204      	movs	r2, #4
87801e44:	711a      	strb	r2, [r3, #4]
87801e46:	4b8c      	ldr	r3, [pc, #560]	; (87802078 <lcd_init+0x48c>)
87801e48:	447b      	add	r3, pc
87801e4a:	f04f 4209 	mov.w	r2, #2298478592	; 0x89000000
87801e4e:	615a      	str	r2, [r3, #20]
87801e50:	4b8a      	ldr	r3, [pc, #552]	; (8780207c <lcd_init+0x490>)
87801e52:	447b      	add	r3, pc
87801e54:	f06f 427f 	mvn.w	r2, #4278190080	; 0xff000000
87801e58:	61da      	str	r2, [r3, #28]
87801e5a:	4b89      	ldr	r3, [pc, #548]	; (87802080 <lcd_init+0x494>)
87801e5c:	447b      	add	r3, pc
87801e5e:	2200      	movs	r2, #0
87801e60:	619a      	str	r2, [r3, #24]
87801e62:	f44f 4300 	mov.w	r3, #32768	; 0x8000
87801e66:	f2c0 231c 	movt	r3, #540	; 0x21c
87801e6a:	681b      	ldr	r3, [r3, #0]
87801e6c:	f44f 4200 	mov.w	r2, #32768	; 0x8000
87801e70:	f2c0 221c 	movt	r2, #540	; 0x21c
87801e74:	f443 2320 	orr.w	r3, r3, #655360	; 0xa0000
87801e78:	f443 6372 	orr.w	r3, r3, #3872	; 0xf20
87801e7c:	6013      	str	r3, [r2, #0]
87801e7e:	f44f 4300 	mov.w	r3, #32768	; 0x8000
87801e82:	f2c0 231c 	movt	r3, #540	; 0x21c
87801e86:	f44f 22e0 	mov.w	r2, #458752	; 0x70000
87801e8a:	611a      	str	r2, [r3, #16]
87801e8c:	4b7d      	ldr	r3, [pc, #500]	; (87802084 <lcd_init+0x498>)
87801e8e:	447b      	add	r3, pc
87801e90:	881b      	ldrh	r3, [r3, #0]
87801e92:	041b      	lsls	r3, r3, #16
87801e94:	4a7c      	ldr	r2, [pc, #496]	; (87802088 <lcd_init+0x49c>)
87801e96:	447a      	add	r2, pc
87801e98:	8852      	ldrh	r2, [r2, #2]
87801e9a:	431a      	orrs	r2, r3
87801e9c:	f44f 4300 	mov.w	r3, #32768	; 0x8000
87801ea0:	f2c0 231c 	movt	r3, #540	; 0x21c
87801ea4:	631a      	str	r2, [r3, #48]	; 0x30
87801ea6:	f44f 4300 	mov.w	r3, #32768	; 0x8000
87801eaa:	f2c0 231c 	movt	r3, #540	; 0x21c
87801eae:	2200      	movs	r2, #0
87801eb0:	671a      	str	r2, [r3, #112]	; 0x70
87801eb2:	4b76      	ldr	r3, [pc, #472]	; (8780208c <lcd_init+0x4a0>)
87801eb4:	447b      	add	r3, pc
87801eb6:	88db      	ldrh	r3, [r3, #6]
87801eb8:	f043 5289 	orr.w	r2, r3, #287309824	; 0x11200000
87801ebc:	f442 1280 	orr.w	r2, r2, #1048576	; 0x100000
87801ec0:	f44f 4300 	mov.w	r3, #32768	; 0x8000
87801ec4:	f2c0 231c 	movt	r3, #540	; 0x21c
87801ec8:	671a      	str	r2, [r3, #112]	; 0x70
87801eca:	4b71      	ldr	r3, [pc, #452]	; (87802090 <lcd_init+0x4a4>)
87801ecc:	447b      	add	r3, pc
87801ece:	881b      	ldrh	r3, [r3, #0]
87801ed0:	461a      	mov	r2, r3
87801ed2:	4b70      	ldr	r3, [pc, #448]	; (87802094 <lcd_init+0x4a8>)
87801ed4:	447b      	add	r3, pc
87801ed6:	88db      	ldrh	r3, [r3, #6]
87801ed8:	4413      	add	r3, r2
87801eda:	4a6f      	ldr	r2, [pc, #444]	; (87802098 <lcd_init+0x4ac>)
87801edc:	447a      	add	r2, pc
87801ede:	8952      	ldrh	r2, [r2, #10]
87801ee0:	4413      	add	r3, r2
87801ee2:	4a6e      	ldr	r2, [pc, #440]	; (8780209c <lcd_init+0x4b0>)
87801ee4:	447a      	add	r2, pc
87801ee6:	8912      	ldrh	r2, [r2, #8]
87801ee8:	441a      	add	r2, r3
87801eea:	f44f 4300 	mov.w	r3, #32768	; 0x8000
87801eee:	f2c0 231c 	movt	r3, #540	; 0x21c
87801ef2:	f8c3 2080 	str.w	r2, [r3, #128]	; 0x80
87801ef6:	4b6a      	ldr	r3, [pc, #424]	; (878020a0 <lcd_init+0x4b4>)
87801ef8:	447b      	add	r3, pc
87801efa:	899b      	ldrh	r3, [r3, #12]
87801efc:	049a      	lsls	r2, r3, #18
87801efe:	4b69      	ldr	r3, [pc, #420]	; (878020a4 <lcd_init+0x4b8>)
87801f00:	447b      	add	r3, pc
87801f02:	885b      	ldrh	r3, [r3, #2]
87801f04:	4619      	mov	r1, r3
87801f06:	4b68      	ldr	r3, [pc, #416]	; (878020a8 <lcd_init+0x4bc>)
87801f08:	447b      	add	r3, pc
87801f0a:	899b      	ldrh	r3, [r3, #12]
87801f0c:	440b      	add	r3, r1
87801f0e:	4967      	ldr	r1, [pc, #412]	; (878020ac <lcd_init+0x4c0>)
87801f10:	4479      	add	r1, pc
87801f12:	8a09      	ldrh	r1, [r1, #16]
87801f14:	440b      	add	r3, r1
87801f16:	4966      	ldr	r1, [pc, #408]	; (878020b0 <lcd_init+0x4c4>)
87801f18:	4479      	add	r1, pc
87801f1a:	89c9      	ldrh	r1, [r1, #14]
87801f1c:	440b      	add	r3, r1
87801f1e:	431a      	orrs	r2, r3
87801f20:	f44f 4300 	mov.w	r3, #32768	; 0x8000
87801f24:	f2c0 231c 	movt	r3, #540	; 0x21c
87801f28:	f8c3 2090 	str.w	r2, [r3, #144]	; 0x90
87801f2c:	4b61      	ldr	r3, [pc, #388]	; (878020b4 <lcd_init+0x4c8>)
87801f2e:	447b      	add	r3, pc
87801f30:	89db      	ldrh	r3, [r3, #14]
87801f32:	461a      	mov	r2, r3
87801f34:	4b60      	ldr	r3, [pc, #384]	; (878020b8 <lcd_init+0x4cc>)
87801f36:	447b      	add	r3, pc
87801f38:	899b      	ldrh	r3, [r3, #12]
87801f3a:	4413      	add	r3, r2
87801f3c:	041a      	lsls	r2, r3, #16
87801f3e:	4b5f      	ldr	r3, [pc, #380]	; (878020bc <lcd_init+0x4d0>)
87801f40:	447b      	add	r3, pc
87801f42:	891b      	ldrh	r3, [r3, #8]
87801f44:	4619      	mov	r1, r3
87801f46:	4b5e      	ldr	r3, [pc, #376]	; (878020c0 <lcd_init+0x4d4>)
87801f48:	447b      	add	r3, pc
87801f4a:	88db      	ldrh	r3, [r3, #6]
87801f4c:	440b      	add	r3, r1
87801f4e:	431a      	orrs	r2, r3
87801f50:	f44f 4300 	mov.w	r3, #32768	; 0x8000
87801f54:	f2c0 231c 	movt	r3, #540	; 0x21c
87801f58:	f8c3 20a0 	str.w	r2, [r3, #160]	; 0xa0
87801f5c:	4b59      	ldr	r3, [pc, #356]	; (878020c4 <lcd_init+0x4d8>)
87801f5e:	447b      	add	r3, pc
87801f60:	885b      	ldrh	r3, [r3, #2]
87801f62:	f443 2280 	orr.w	r2, r3, #262144	; 0x40000
87801f66:	f44f 4300 	mov.w	r3, #32768	; 0x8000
87801f6a:	f2c0 231c 	movt	r3, #540	; 0x21c
87801f6e:	f8c3 20b0 	str.w	r2, [r3, #176]	; 0xb0
87801f72:	f44f 4300 	mov.w	r3, #32768	; 0x8000
87801f76:	f2c0 231c 	movt	r3, #540	; 0x21c
87801f7a:	4a53      	ldr	r2, [pc, #332]	; (878020c8 <lcd_init+0x4dc>)
87801f7c:	447a      	add	r2, pc
87801f7e:	6952      	ldr	r2, [r2, #20]
87801f80:	641a      	str	r2, [r3, #64]	; 0x40
87801f82:	f44f 4300 	mov.w	r3, #32768	; 0x8000
87801f86:	f2c0 231c 	movt	r3, #540	; 0x21c
87801f8a:	4a50      	ldr	r2, [pc, #320]	; (878020cc <lcd_init+0x4e0>)
87801f8c:	447a      	add	r2, pc
87801f8e:	6952      	ldr	r2, [r2, #20]
87801f90:	651a      	str	r2, [r3, #80]	; 0x50
87801f92:	f000 fe1c 	bl	87802bce <lcd_enable>
87801f96:	200a      	movs	r0, #10
87801f98:	f7fe fe22 	bl	87800be0 <delayms>
87801f9c:	f06f 407f 	mvn.w	r0, #4278190080	; 0xff000000
87801fa0:	f000 fe88 	bl	87802cb4 <lcd_clear>
87801fa4:	bf00      	nop
87801fa6:	3708      	adds	r7, #8
87801fa8:	46bd      	mov	sp, r7
87801faa:	bd80      	pop	{r7, pc}
87801fac:	0000880e 	andeq	r8, r0, lr, lsl #16
87801fb0:	0000868c 	andeq	r8, r0, ip, lsl #13
87801fb4:	000087de 	ldrdeq	r8, [r0], -lr
87801fb8:	000087d4 	ldrdeq	r8, [r0], -r4
87801fbc:	000087ca 	andeq	r8, r0, sl, asr #15
87801fc0:	000087c2 	andeq	r8, r0, r2, asr #15
87801fc4:	000087ba 			; <UNDEFINED> instruction: 0x000087ba
87801fc8:	000087b2 			; <UNDEFINED> instruction: 0x000087b2
87801fcc:	000087aa 	andeq	r8, r0, sl, lsr #15
87801fd0:	000087a2 	andeq	r8, r0, r2, lsr #15
87801fd4:	00008784 	andeq	r8, r0, r4, lsl #15
87801fd8:	0000877a 	andeq	r8, r0, sl, ror r7
87801fdc:	00008770 	andeq	r8, r0, r0, ror r7
87801fe0:	00008768 	andeq	r8, r0, r8, ror #14
87801fe4:	00008760 	andeq	r8, r0, r0, ror #14
87801fe8:	00008758 	andeq	r8, r0, r8, asr r7
87801fec:	00008750 	andeq	r8, r0, r0, asr r7
87801ff0:	00008748 	andeq	r8, r0, r8, asr #14
87801ff4:	0000872a 	andeq	r8, r0, sl, lsr #14
87801ff8:	00008720 	andeq	r8, r0, r0, lsr #14
87801ffc:	00008716 	andeq	r8, r0, r6, lsl r7
87802000:	0000870e 	andeq	r8, r0, lr, lsl #14
87802004:	00008706 	andeq	r8, r0, r6, lsl #14
87802008:	000086fe 	strdeq	r8, [r0], -lr
8780200c:	000086f6 	strdeq	r8, [r0], -r6
87802010:	000086ee 	andeq	r8, r0, lr, ror #13
87802014:	000086d0 	ldrdeq	r8, [r0], -r0
87802018:	000086c6 	andeq	r8, r0, r6, asr #13
8780201c:	000086bc 			; <UNDEFINED> instruction: 0x000086bc
87802020:	000086b4 			; <UNDEFINED> instruction: 0x000086b4
87802024:	000086ac 	andeq	r8, r0, ip, lsr #13
87802028:	000086a4 	andeq	r8, r0, r4, lsr #13
8780202c:	0000869c 	muleq	r0, ip, r6
87802030:	00008694 	muleq	r0, r4, r6
87802034:	00008676 	andeq	r8, r0, r6, ror r6
87802038:	0000866c 	andeq	r8, r0, ip, ror #12
8780203c:	00008662 	andeq	r8, r0, r2, ror #12
87802040:	0000865a 	andeq	r8, r0, sl, asr r6
87802044:	00008652 	andeq	r8, r0, r2, asr r6
87802048:	0000864a 	andeq	r8, r0, sl, asr #12
8780204c:	00008642 	andeq	r8, r0, r2, asr #12
87802050:	0000863a 	andeq	r8, r0, sl, lsr r6
87802054:	0000861e 	andeq	r8, r0, lr, lsl r6
87802058:	00008614 	andeq	r8, r0, r4, lsl r6
8780205c:	0000860a 	andeq	r8, r0, sl, lsl #12
87802060:	00008602 	andeq	r8, r0, r2, lsl #12
87802064:	000085fa 	strdeq	r8, [r0], -sl
87802068:	000085f2 	strdeq	r8, [r0], -r2
8780206c:	000085ea 	andeq	r8, r0, sl, ror #11
87802070:	000085e2 	andeq	r8, r0, r2, ror #11
87802074:	000085d0 	ldrdeq	r8, [r0], -r0
87802078:	000085c8 	andeq	r8, r0, r8, asr #11
8780207c:	000085be 			; <UNDEFINED> instruction: 0x000085be
87802080:	000085b4 			; <UNDEFINED> instruction: 0x000085b4
87802084:	00008582 	andeq	r8, r0, r2, lsl #11
87802088:	0000857a 	andeq	r8, r0, sl, ror r5
8780208c:	0000855c 	andeq	r8, r0, ip, asr r5
87802090:	00008544 	andeq	r8, r0, r4, asr #10
87802094:	0000853c 	andeq	r8, r0, ip, lsr r5
87802098:	00008534 	andeq	r8, r0, r4, lsr r5
8780209c:	0000852c 	andeq	r8, r0, ip, lsr #10
878020a0:	00008518 	andeq	r8, r0, r8, lsl r5
878020a4:	00008510 	andeq	r8, r0, r0, lsl r5
878020a8:	00008508 	andeq	r8, r0, r8, lsl #10
878020ac:	00008500 	andeq	r8, r0, r0, lsl #10
878020b0:	000084f8 	strdeq	r8, [r0], -r8	; <UNPREDICTABLE>
878020b4:	000084e2 	andeq	r8, r0, r2, ror #9
878020b8:	000084da 	ldrdeq	r8, [r0], -sl
878020bc:	000084d0 	ldrdeq	r8, [r0], -r0
878020c0:	000084c8 	andeq	r8, r0, r8, asr #9
878020c4:	000084b2 			; <UNDEFINED> instruction: 0x000084b2
878020c8:	00008494 	muleq	r0, r4, r4
878020cc:	00008484 	andeq	r8, r0, r4, lsl #9

878020d0 <lcd_read_panelid>:
878020d0:	b580      	push	{r7, lr}
878020d2:	b086      	sub	sp, #24
878020d4:	af02      	add	r7, sp, #8
878020d6:	2300      	movs	r3, #0
878020d8:	73fb      	strb	r3, [r7, #15]
878020da:	2300      	movs	r3, #0
878020dc:	9301      	str	r3, [sp, #4]
878020de:	f44f 7367 	mov.w	r3, #924	; 0x39c
878020e2:	f2c0 230e 	movt	r3, #526	; 0x20e
878020e6:	9300      	str	r3, [sp, #0]
878020e8:	2300      	movs	r3, #0
878020ea:	2200      	movs	r2, #0
878020ec:	2105      	movs	r1, #5
878020ee:	f44f 7088 	mov.w	r0, #272	; 0x110
878020f2:	f2c0 200e 	movt	r0, #526	; 0x20e
878020f6:	f7ff fd47 	bl	87801b88 <IOMUXC_SetPinMux>
878020fa:	f241 03b0 	movw	r3, #4272	; 0x10b0
878020fe:	9301      	str	r3, [sp, #4]
87802100:	f44f 7367 	mov.w	r3, #924	; 0x39c
87802104:	f2c0 230e 	movt	r3, #526	; 0x20e
87802108:	9300      	str	r3, [sp, #0]
8780210a:	2300      	movs	r3, #0
8780210c:	2200      	movs	r2, #0
8780210e:	2105      	movs	r1, #5
87802110:	f44f 7088 	mov.w	r0, #272	; 0x110
87802114:	f2c0 200e 	movt	r0, #526	; 0x20e
87802118:	f7ff fd55 	bl	87801bc6 <IOMUXC_SetPinConfig>
8780211c:	2301      	movs	r3, #1
8780211e:	603b      	str	r3, [r7, #0]
87802120:	2301      	movs	r3, #1
87802122:	713b      	strb	r3, [r7, #4]
87802124:	463b      	mov	r3, r7
87802126:	461a      	mov	r2, r3
87802128:	2103      	movs	r1, #3
8780212a:	f44f 4080 	mov.w	r0, #16384	; 0x4000
8780212e:	f2c0 200a 	movt	r0, #522	; 0x20a
87802132:	f7fe fb9b 	bl	8780086c <gpio_init>
87802136:	2300      	movs	r3, #0
87802138:	9301      	str	r3, [sp, #4]
8780213a:	f44f 7370 	mov.w	r3, #960	; 0x3c0
8780213e:	f2c0 230e 	movt	r3, #526	; 0x20e
87802142:	9300      	str	r3, [sp, #0]
87802144:	2300      	movs	r3, #0
87802146:	2200      	movs	r2, #0
87802148:	2105      	movs	r1, #5
8780214a:	f44f 709a 	mov.w	r0, #308	; 0x134
8780214e:	f2c0 200e 	movt	r0, #526	; 0x20e
87802152:	f7ff fd19 	bl	87801b88 <IOMUXC_SetPinMux>
87802156:	2300      	movs	r3, #0
87802158:	9301      	str	r3, [sp, #4]
8780215a:	f44f 7378 	mov.w	r3, #992	; 0x3e0
8780215e:	f2c0 230e 	movt	r3, #526	; 0x20e
87802162:	9300      	str	r3, [sp, #0]
87802164:	2300      	movs	r3, #0
87802166:	2200      	movs	r2, #0
87802168:	2105      	movs	r1, #5
8780216a:	f44f 70aa 	mov.w	r0, #340	; 0x154
8780216e:	f2c0 200e 	movt	r0, #526	; 0x20e
87802172:	f7ff fd09 	bl	87801b88 <IOMUXC_SetPinMux>
87802176:	2300      	movs	r3, #0
87802178:	9301      	str	r3, [sp, #4]
8780217a:	f44f 6380 	mov.w	r3, #1024	; 0x400
8780217e:	f2c0 230e 	movt	r3, #526	; 0x20e
87802182:	9300      	str	r3, [sp, #0]
87802184:	2300      	movs	r3, #0
87802186:	2200      	movs	r2, #0
87802188:	2105      	movs	r1, #5
8780218a:	f44f 70ba 	mov.w	r0, #372	; 0x174
8780218e:	f2c0 200e 	movt	r0, #526	; 0x20e
87802192:	f7ff fcf9 	bl	87801b88 <IOMUXC_SetPinMux>
87802196:	f24f 0380 	movw	r3, #61568	; 0xf080
8780219a:	9301      	str	r3, [sp, #4]
8780219c:	f44f 7370 	mov.w	r3, #960	; 0x3c0
878021a0:	f2c0 230e 	movt	r3, #526	; 0x20e
878021a4:	9300      	str	r3, [sp, #0]
878021a6:	2300      	movs	r3, #0
878021a8:	2200      	movs	r2, #0
878021aa:	2105      	movs	r1, #5
878021ac:	f44f 709a 	mov.w	r0, #308	; 0x134
878021b0:	f2c0 200e 	movt	r0, #526	; 0x20e
878021b4:	f7ff fd07 	bl	87801bc6 <IOMUXC_SetPinConfig>
878021b8:	f24f 0380 	movw	r3, #61568	; 0xf080
878021bc:	9301      	str	r3, [sp, #4]
878021be:	f44f 7378 	mov.w	r3, #992	; 0x3e0
878021c2:	f2c0 230e 	movt	r3, #526	; 0x20e
878021c6:	9300      	str	r3, [sp, #0]
878021c8:	2300      	movs	r3, #0
878021ca:	2200      	movs	r2, #0
878021cc:	2105      	movs	r1, #5
878021ce:	f44f 70aa 	mov.w	r0, #340	; 0x154
878021d2:	f2c0 200e 	movt	r0, #526	; 0x20e
878021d6:	f7ff fcf6 	bl	87801bc6 <IOMUXC_SetPinConfig>
878021da:	f24f 0380 	movw	r3, #61568	; 0xf080
878021de:	9301      	str	r3, [sp, #4]
878021e0:	f44f 6380 	mov.w	r3, #1024	; 0x400
878021e4:	f2c0 230e 	movt	r3, #526	; 0x20e
878021e8:	9300      	str	r3, [sp, #0]
878021ea:	2300      	movs	r3, #0
878021ec:	2200      	movs	r2, #0
878021ee:	2105      	movs	r1, #5
878021f0:	f44f 70ba 	mov.w	r0, #372	; 0x174
878021f4:	f2c0 200e 	movt	r0, #526	; 0x20e
878021f8:	f7ff fce5 	bl	87801bc6 <IOMUXC_SetPinConfig>
878021fc:	2300      	movs	r3, #0
878021fe:	603b      	str	r3, [r7, #0]
87802200:	463b      	mov	r3, r7
87802202:	461a      	mov	r2, r3
87802204:	210c      	movs	r1, #12
87802206:	f44f 4080 	mov.w	r0, #16384	; 0x4000
8780220a:	f2c0 200a 	movt	r0, #522	; 0x20a
8780220e:	f7fe fb2d 	bl	8780086c <gpio_init>
87802212:	463b      	mov	r3, r7
87802214:	461a      	mov	r2, r3
87802216:	2114      	movs	r1, #20
87802218:	f44f 4080 	mov.w	r0, #16384	; 0x4000
8780221c:	f2c0 200a 	movt	r0, #522	; 0x20a
87802220:	f7fe fb24 	bl	8780086c <gpio_init>
87802224:	463b      	mov	r3, r7
87802226:	461a      	mov	r2, r3
87802228:	211c      	movs	r1, #28
8780222a:	f44f 4080 	mov.w	r0, #16384	; 0x4000
8780222e:	f2c0 200a 	movt	r0, #522	; 0x20a
87802232:	f7fe fb1b 	bl	8780086c <gpio_init>
87802236:	211c      	movs	r1, #28
87802238:	f44f 4080 	mov.w	r0, #16384	; 0x4000
8780223c:	f2c0 200a 	movt	r0, #522	; 0x20a
87802240:	f7fe fb4e 	bl	878008e0 <gpio_pinread>
87802244:	4603      	mov	r3, r0
87802246:	73fb      	strb	r3, [r7, #15]
87802248:	2114      	movs	r1, #20
8780224a:	f44f 4080 	mov.w	r0, #16384	; 0x4000
8780224e:	f2c0 200a 	movt	r0, #522	; 0x20a
87802252:	f7fe fb45 	bl	878008e0 <gpio_pinread>
87802256:	4603      	mov	r3, r0
87802258:	b2db      	uxtb	r3, r3
8780225a:	005b      	lsls	r3, r3, #1
8780225c:	b25a      	sxtb	r2, r3
8780225e:	f997 300f 	ldrsb.w	r3, [r7, #15]
87802262:	4313      	orrs	r3, r2
87802264:	b25b      	sxtb	r3, r3
87802266:	73fb      	strb	r3, [r7, #15]
87802268:	210c      	movs	r1, #12
8780226a:	f44f 4080 	mov.w	r0, #16384	; 0x4000
8780226e:	f2c0 200a 	movt	r0, #522	; 0x20a
87802272:	f7fe fb35 	bl	878008e0 <gpio_pinread>
87802276:	4603      	mov	r3, r0
87802278:	b2db      	uxtb	r3, r3
8780227a:	009b      	lsls	r3, r3, #2
8780227c:	b25a      	sxtb	r2, r3
8780227e:	f997 300f 	ldrsb.w	r3, [r7, #15]
87802282:	4313      	orrs	r3, r2
87802284:	b25b      	sxtb	r3, r3
87802286:	73fb      	strb	r3, [r7, #15]
87802288:	7bfb      	ldrb	r3, [r7, #15]
8780228a:	2b00      	cmp	r3, #0
8780228c:	d102      	bne.n	87802294 <lcd_read_panelid+0x1c4>
8780228e:	f244 3342 	movw	r3, #17218	; 0x4342
87802292:	e01e      	b.n	878022d2 <lcd_read_panelid+0x202>
87802294:	7bfb      	ldrb	r3, [r7, #15]
87802296:	2b01      	cmp	r3, #1
87802298:	d102      	bne.n	878022a0 <lcd_read_panelid+0x1d0>
8780229a:	f247 0384 	movw	r3, #28804	; 0x7084
8780229e:	e018      	b.n	878022d2 <lcd_read_panelid+0x202>
878022a0:	7bfb      	ldrb	r3, [r7, #15]
878022a2:	2b02      	cmp	r3, #2
878022a4:	d102      	bne.n	878022ac <lcd_read_panelid+0x1dc>
878022a6:	f247 0316 	movw	r3, #28694	; 0x7016
878022aa:	e012      	b.n	878022d2 <lcd_read_panelid+0x202>
878022ac:	7bfb      	ldrb	r3, [r7, #15]
878022ae:	2b04      	cmp	r3, #4
878022b0:	d102      	bne.n	878022b8 <lcd_read_panelid+0x1e8>
878022b2:	f244 3384 	movw	r3, #17284	; 0x4384
878022b6:	e00c      	b.n	878022d2 <lcd_read_panelid+0x202>
878022b8:	7bfb      	ldrb	r3, [r7, #15]
878022ba:	2b05      	cmp	r3, #5
878022bc:	d102      	bne.n	878022c4 <lcd_read_panelid+0x1f4>
878022be:	f241 0318 	movw	r3, #4120	; 0x1018
878022c2:	e006      	b.n	878022d2 <lcd_read_panelid+0x202>
878022c4:	7bfb      	ldrb	r3, [r7, #15]
878022c6:	2b07      	cmp	r3, #7
878022c8:	d102      	bne.n	878022d0 <lcd_read_panelid+0x200>
878022ca:	f44f 437f 	mov.w	r3, #65280	; 0xff00
878022ce:	e000      	b.n	878022d2 <lcd_read_panelid+0x202>
878022d0:	2300      	movs	r3, #0
878022d2:	4618      	mov	r0, r3
878022d4:	3710      	adds	r7, #16
878022d6:	46bd      	mov	sp, r7
878022d8:	bd80      	pop	{r7, pc}

878022da <lcdgpio_init>:
878022da:	b580      	push	{r7, lr}
878022dc:	b086      	sub	sp, #24
878022de:	af02      	add	r7, sp, #8
878022e0:	2300      	movs	r3, #0
878022e2:	9301      	str	r3, [sp, #4]
878022e4:	f44f 7369 	mov.w	r3, #932	; 0x3a4
878022e8:	f2c0 230e 	movt	r3, #526	; 0x20e
878022ec:	9300      	str	r3, [sp, #0]
878022ee:	2300      	movs	r3, #0
878022f0:	2200      	movs	r2, #0
878022f2:	2100      	movs	r1, #0
878022f4:	f44f 708c 	mov.w	r0, #280	; 0x118
878022f8:	f2c0 200e 	movt	r0, #526	; 0x20e
878022fc:	f7ff fc44 	bl	87801b88 <IOMUXC_SetPinMux>
87802300:	2300      	movs	r3, #0
87802302:	9301      	str	r3, [sp, #4]
87802304:	f44f 736a 	mov.w	r3, #936	; 0x3a8
87802308:	f2c0 230e 	movt	r3, #526	; 0x20e
8780230c:	9300      	str	r3, [sp, #0]
8780230e:	2300      	movs	r3, #0
87802310:	2200      	movs	r2, #0
87802312:	2100      	movs	r1, #0
87802314:	f44f 708e 	mov.w	r0, #284	; 0x11c
87802318:	f2c0 200e 	movt	r0, #526	; 0x20e
8780231c:	f7ff fc34 	bl	87801b88 <IOMUXC_SetPinMux>
87802320:	2300      	movs	r3, #0
87802322:	9301      	str	r3, [sp, #4]
87802324:	f44f 736b 	mov.w	r3, #940	; 0x3ac
87802328:	f2c0 230e 	movt	r3, #526	; 0x20e
8780232c:	9300      	str	r3, [sp, #0]
8780232e:	2300      	movs	r3, #0
87802330:	2200      	movs	r2, #0
87802332:	2100      	movs	r1, #0
87802334:	f44f 7090 	mov.w	r0, #288	; 0x120
87802338:	f2c0 200e 	movt	r0, #526	; 0x20e
8780233c:	f7ff fc24 	bl	87801b88 <IOMUXC_SetPinMux>
87802340:	2300      	movs	r3, #0
87802342:	9301      	str	r3, [sp, #4]
87802344:	f44f 736c 	mov.w	r3, #944	; 0x3b0
87802348:	f2c0 230e 	movt	r3, #526	; 0x20e
8780234c:	9300      	str	r3, [sp, #0]
8780234e:	2300      	movs	r3, #0
87802350:	2200      	movs	r2, #0
87802352:	2100      	movs	r1, #0
87802354:	f44f 7092 	mov.w	r0, #292	; 0x124
87802358:	f2c0 200e 	movt	r0, #526	; 0x20e
8780235c:	f7ff fc14 	bl	87801b88 <IOMUXC_SetPinMux>
87802360:	2300      	movs	r3, #0
87802362:	9301      	str	r3, [sp, #4]
87802364:	f44f 736d 	mov.w	r3, #948	; 0x3b4
87802368:	f2c0 230e 	movt	r3, #526	; 0x20e
8780236c:	9300      	str	r3, [sp, #0]
8780236e:	2300      	movs	r3, #0
87802370:	2200      	movs	r2, #0
87802372:	2100      	movs	r1, #0
87802374:	f44f 7094 	mov.w	r0, #296	; 0x128
87802378:	f2c0 200e 	movt	r0, #526	; 0x20e
8780237c:	f7ff fc04 	bl	87801b88 <IOMUXC_SetPinMux>
87802380:	2300      	movs	r3, #0
87802382:	9301      	str	r3, [sp, #4]
87802384:	f44f 736e 	mov.w	r3, #952	; 0x3b8
87802388:	f2c0 230e 	movt	r3, #526	; 0x20e
8780238c:	9300      	str	r3, [sp, #0]
8780238e:	2300      	movs	r3, #0
87802390:	2200      	movs	r2, #0
87802392:	2100      	movs	r1, #0
87802394:	f44f 7096 	mov.w	r0, #300	; 0x12c
87802398:	f2c0 200e 	movt	r0, #526	; 0x20e
8780239c:	f7ff fbf4 	bl	87801b88 <IOMUXC_SetPinMux>
878023a0:	2300      	movs	r3, #0
878023a2:	9301      	str	r3, [sp, #4]
878023a4:	f44f 736f 	mov.w	r3, #956	; 0x3bc
878023a8:	f2c0 230e 	movt	r3, #526	; 0x20e
878023ac:	9300      	str	r3, [sp, #0]
878023ae:	2300      	movs	r3, #0
878023b0:	2200      	movs	r2, #0
878023b2:	2100      	movs	r1, #0
878023b4:	f44f 7098 	mov.w	r0, #304	; 0x130
878023b8:	f2c0 200e 	movt	r0, #526	; 0x20e
878023bc:	f7ff fbe4 	bl	87801b88 <IOMUXC_SetPinMux>
878023c0:	2300      	movs	r3, #0
878023c2:	9301      	str	r3, [sp, #4]
878023c4:	f44f 7370 	mov.w	r3, #960	; 0x3c0
878023c8:	f2c0 230e 	movt	r3, #526	; 0x20e
878023cc:	9300      	str	r3, [sp, #0]
878023ce:	2300      	movs	r3, #0
878023d0:	2200      	movs	r2, #0
878023d2:	2100      	movs	r1, #0
878023d4:	f44f 709a 	mov.w	r0, #308	; 0x134
878023d8:	f2c0 200e 	movt	r0, #526	; 0x20e
878023dc:	f7ff fbd4 	bl	87801b88 <IOMUXC_SetPinMux>
878023e0:	2300      	movs	r3, #0
878023e2:	9301      	str	r3, [sp, #4]
878023e4:	f44f 7371 	mov.w	r3, #964	; 0x3c4
878023e8:	f2c0 230e 	movt	r3, #526	; 0x20e
878023ec:	9300      	str	r3, [sp, #0]
878023ee:	2300      	movs	r3, #0
878023f0:	2200      	movs	r2, #0
878023f2:	2100      	movs	r1, #0
878023f4:	f44f 709c 	mov.w	r0, #312	; 0x138
878023f8:	f2c0 200e 	movt	r0, #526	; 0x20e
878023fc:	f7ff fbc4 	bl	87801b88 <IOMUXC_SetPinMux>
87802400:	2300      	movs	r3, #0
87802402:	9301      	str	r3, [sp, #4]
87802404:	f44f 7372 	mov.w	r3, #968	; 0x3c8
87802408:	f2c0 230e 	movt	r3, #526	; 0x20e
8780240c:	9300      	str	r3, [sp, #0]
8780240e:	2300      	movs	r3, #0
87802410:	2200      	movs	r2, #0
87802412:	2100      	movs	r1, #0
87802414:	f44f 709e 	mov.w	r0, #316	; 0x13c
87802418:	f2c0 200e 	movt	r0, #526	; 0x20e
8780241c:	f7ff fbb4 	bl	87801b88 <IOMUXC_SetPinMux>
87802420:	2300      	movs	r3, #0
87802422:	9301      	str	r3, [sp, #4]
87802424:	f44f 7373 	mov.w	r3, #972	; 0x3cc
87802428:	f2c0 230e 	movt	r3, #526	; 0x20e
8780242c:	9300      	str	r3, [sp, #0]
8780242e:	2300      	movs	r3, #0
87802430:	2200      	movs	r2, #0
87802432:	2100      	movs	r1, #0
87802434:	f44f 70a0 	mov.w	r0, #320	; 0x140
87802438:	f2c0 200e 	movt	r0, #526	; 0x20e
8780243c:	f7ff fba4 	bl	87801b88 <IOMUXC_SetPinMux>
87802440:	2300      	movs	r3, #0
87802442:	9301      	str	r3, [sp, #4]
87802444:	f44f 7374 	mov.w	r3, #976	; 0x3d0
87802448:	f2c0 230e 	movt	r3, #526	; 0x20e
8780244c:	9300      	str	r3, [sp, #0]
8780244e:	2300      	movs	r3, #0
87802450:	2200      	movs	r2, #0
87802452:	2100      	movs	r1, #0
87802454:	f44f 70a2 	mov.w	r0, #324	; 0x144
87802458:	f2c0 200e 	movt	r0, #526	; 0x20e
8780245c:	f7ff fb94 	bl	87801b88 <IOMUXC_SetPinMux>
87802460:	2300      	movs	r3, #0
87802462:	9301      	str	r3, [sp, #4]
87802464:	f44f 7375 	mov.w	r3, #980	; 0x3d4
87802468:	f2c0 230e 	movt	r3, #526	; 0x20e
8780246c:	9300      	str	r3, [sp, #0]
8780246e:	2300      	movs	r3, #0
87802470:	2200      	movs	r2, #0
87802472:	2100      	movs	r1, #0
87802474:	f44f 70a4 	mov.w	r0, #328	; 0x148
87802478:	f2c0 200e 	movt	r0, #526	; 0x20e
8780247c:	f7ff fb84 	bl	87801b88 <IOMUXC_SetPinMux>
87802480:	2300      	movs	r3, #0
87802482:	9301      	str	r3, [sp, #4]
87802484:	f44f 7376 	mov.w	r3, #984	; 0x3d8
87802488:	f2c0 230e 	movt	r3, #526	; 0x20e
8780248c:	9300      	str	r3, [sp, #0]
8780248e:	2300      	movs	r3, #0
87802490:	2200      	movs	r2, #0
87802492:	2100      	movs	r1, #0
87802494:	f44f 70a6 	mov.w	r0, #332	; 0x14c
87802498:	f2c0 200e 	movt	r0, #526	; 0x20e
8780249c:	f7ff fb74 	bl	87801b88 <IOMUXC_SetPinMux>
878024a0:	2300      	movs	r3, #0
878024a2:	9301      	str	r3, [sp, #4]
878024a4:	f44f 7377 	mov.w	r3, #988	; 0x3dc
878024a8:	f2c0 230e 	movt	r3, #526	; 0x20e
878024ac:	9300      	str	r3, [sp, #0]
878024ae:	2300      	movs	r3, #0
878024b0:	2200      	movs	r2, #0
878024b2:	2100      	movs	r1, #0
878024b4:	f44f 70a8 	mov.w	r0, #336	; 0x150
878024b8:	f2c0 200e 	movt	r0, #526	; 0x20e
878024bc:	f7ff fb64 	bl	87801b88 <IOMUXC_SetPinMux>
878024c0:	2300      	movs	r3, #0
878024c2:	9301      	str	r3, [sp, #4]
878024c4:	f44f 7378 	mov.w	r3, #992	; 0x3e0
878024c8:	f2c0 230e 	movt	r3, #526	; 0x20e
878024cc:	9300      	str	r3, [sp, #0]
878024ce:	2300      	movs	r3, #0
878024d0:	2200      	movs	r2, #0
878024d2:	2100      	movs	r1, #0
878024d4:	f44f 70aa 	mov.w	r0, #340	; 0x154
878024d8:	f2c0 200e 	movt	r0, #526	; 0x20e
878024dc:	f7ff fb54 	bl	87801b88 <IOMUXC_SetPinMux>
878024e0:	2300      	movs	r3, #0
878024e2:	9301      	str	r3, [sp, #4]
878024e4:	f44f 7379 	mov.w	r3, #996	; 0x3e4
878024e8:	f2c0 230e 	movt	r3, #526	; 0x20e
878024ec:	9300      	str	r3, [sp, #0]
878024ee:	2300      	movs	r3, #0
878024f0:	2200      	movs	r2, #0
878024f2:	2100      	movs	r1, #0
878024f4:	f44f 70ac 	mov.w	r0, #344	; 0x158
878024f8:	f2c0 200e 	movt	r0, #526	; 0x20e
878024fc:	f7ff fb44 	bl	87801b88 <IOMUXC_SetPinMux>
87802500:	2300      	movs	r3, #0
87802502:	9301      	str	r3, [sp, #4]
87802504:	f44f 737a 	mov.w	r3, #1000	; 0x3e8
87802508:	f2c0 230e 	movt	r3, #526	; 0x20e
8780250c:	9300      	str	r3, [sp, #0]
8780250e:	2300      	movs	r3, #0
87802510:	2200      	movs	r2, #0
87802512:	2100      	movs	r1, #0
87802514:	f44f 70ae 	mov.w	r0, #348	; 0x15c
87802518:	f2c0 200e 	movt	r0, #526	; 0x20e
8780251c:	f7ff fb34 	bl	87801b88 <IOMUXC_SetPinMux>
87802520:	2300      	movs	r3, #0
87802522:	9301      	str	r3, [sp, #4]
87802524:	f44f 737b 	mov.w	r3, #1004	; 0x3ec
87802528:	f2c0 230e 	movt	r3, #526	; 0x20e
8780252c:	9300      	str	r3, [sp, #0]
8780252e:	2300      	movs	r3, #0
87802530:	2200      	movs	r2, #0
87802532:	2100      	movs	r1, #0
87802534:	f44f 70b0 	mov.w	r0, #352	; 0x160
87802538:	f2c0 200e 	movt	r0, #526	; 0x20e
8780253c:	f7ff fb24 	bl	87801b88 <IOMUXC_SetPinMux>
87802540:	2300      	movs	r3, #0
87802542:	9301      	str	r3, [sp, #4]
87802544:	f44f 737c 	mov.w	r3, #1008	; 0x3f0
87802548:	f2c0 230e 	movt	r3, #526	; 0x20e
8780254c:	9300      	str	r3, [sp, #0]
8780254e:	2300      	movs	r3, #0
87802550:	2200      	movs	r2, #0
87802552:	2100      	movs	r1, #0
87802554:	f44f 70b2 	mov.w	r0, #356	; 0x164
87802558:	f2c0 200e 	movt	r0, #526	; 0x20e
8780255c:	f7ff fb14 	bl	87801b88 <IOMUXC_SetPinMux>
87802560:	2300      	movs	r3, #0
87802562:	9301      	str	r3, [sp, #4]
87802564:	f44f 737d 	mov.w	r3, #1012	; 0x3f4
87802568:	f2c0 230e 	movt	r3, #526	; 0x20e
8780256c:	9300      	str	r3, [sp, #0]
8780256e:	2300      	movs	r3, #0
87802570:	2200      	movs	r2, #0
87802572:	2100      	movs	r1, #0
87802574:	f44f 70b4 	mov.w	r0, #360	; 0x168
87802578:	f2c0 200e 	movt	r0, #526	; 0x20e
8780257c:	f7ff fb04 	bl	87801b88 <IOMUXC_SetPinMux>
87802580:	2300      	movs	r3, #0
87802582:	9301      	str	r3, [sp, #4]
87802584:	f44f 737e 	mov.w	r3, #1016	; 0x3f8
87802588:	f2c0 230e 	movt	r3, #526	; 0x20e
8780258c:	9300      	str	r3, [sp, #0]
8780258e:	2300      	movs	r3, #0
87802590:	2200      	movs	r2, #0
87802592:	2100      	movs	r1, #0
87802594:	f44f 70b6 	mov.w	r0, #364	; 0x16c
87802598:	f2c0 200e 	movt	r0, #526	; 0x20e
8780259c:	f7ff faf4 	bl	87801b88 <IOMUXC_SetPinMux>
878025a0:	2300      	movs	r3, #0
878025a2:	9301      	str	r3, [sp, #4]
878025a4:	f44f 737f 	mov.w	r3, #1020	; 0x3fc
878025a8:	f2c0 230e 	movt	r3, #526	; 0x20e
878025ac:	9300      	str	r3, [sp, #0]
878025ae:	2300      	movs	r3, #0
878025b0:	2200      	movs	r2, #0
878025b2:	2100      	movs	r1, #0
878025b4:	f44f 70b8 	mov.w	r0, #368	; 0x170
878025b8:	f2c0 200e 	movt	r0, #526	; 0x20e
878025bc:	f7ff fae4 	bl	87801b88 <IOMUXC_SetPinMux>
878025c0:	2300      	movs	r3, #0
878025c2:	9301      	str	r3, [sp, #4]
878025c4:	f44f 6380 	mov.w	r3, #1024	; 0x400
878025c8:	f2c0 230e 	movt	r3, #526	; 0x20e
878025cc:	9300      	str	r3, [sp, #0]
878025ce:	2300      	movs	r3, #0
878025d0:	2200      	movs	r2, #0
878025d2:	2100      	movs	r1, #0
878025d4:	f44f 70ba 	mov.w	r0, #372	; 0x174
878025d8:	f2c0 200e 	movt	r0, #526	; 0x20e
878025dc:	f7ff fad4 	bl	87801b88 <IOMUXC_SetPinMux>
878025e0:	2300      	movs	r3, #0
878025e2:	9301      	str	r3, [sp, #4]
878025e4:	f44f 7364 	mov.w	r3, #912	; 0x390
878025e8:	f2c0 230e 	movt	r3, #526	; 0x20e
878025ec:	9300      	str	r3, [sp, #0]
878025ee:	2300      	movs	r3, #0
878025f0:	2200      	movs	r2, #0
878025f2:	2100      	movs	r1, #0
878025f4:	f44f 7082 	mov.w	r0, #260	; 0x104
878025f8:	f2c0 200e 	movt	r0, #526	; 0x20e
878025fc:	f7ff fac4 	bl	87801b88 <IOMUXC_SetPinMux>
87802600:	2300      	movs	r3, #0
87802602:	9301      	str	r3, [sp, #4]
87802604:	f44f 7365 	mov.w	r3, #916	; 0x394
87802608:	f2c0 230e 	movt	r3, #526	; 0x20e
8780260c:	9300      	str	r3, [sp, #0]
8780260e:	2300      	movs	r3, #0
87802610:	2200      	movs	r2, #0
87802612:	2100      	movs	r1, #0
87802614:	f44f 7084 	mov.w	r0, #264	; 0x108
87802618:	f2c0 200e 	movt	r0, #526	; 0x20e
8780261c:	f7ff fab4 	bl	87801b88 <IOMUXC_SetPinMux>
87802620:	2300      	movs	r3, #0
87802622:	9301      	str	r3, [sp, #4]
87802624:	f44f 7366 	mov.w	r3, #920	; 0x398
87802628:	f2c0 230e 	movt	r3, #526	; 0x20e
8780262c:	9300      	str	r3, [sp, #0]
8780262e:	2300      	movs	r3, #0
87802630:	f240 52dc 	movw	r2, #1500	; 0x5dc
87802634:	f2c0 220e 	movt	r2, #526	; 0x20e
87802638:	2100      	movs	r1, #0
8780263a:	f44f 7086 	mov.w	r0, #268	; 0x10c
8780263e:	f2c0 200e 	movt	r0, #526	; 0x20e
87802642:	f7ff faa1 	bl	87801b88 <IOMUXC_SetPinMux>
87802646:	2300      	movs	r3, #0
87802648:	9301      	str	r3, [sp, #4]
8780264a:	f44f 7367 	mov.w	r3, #924	; 0x39c
8780264e:	f2c0 230e 	movt	r3, #526	; 0x20e
87802652:	9300      	str	r3, [sp, #0]
87802654:	2300      	movs	r3, #0
87802656:	2200      	movs	r2, #0
87802658:	2100      	movs	r1, #0
8780265a:	f44f 7088 	mov.w	r0, #272	; 0x110
8780265e:	f2c0 200e 	movt	r0, #526	; 0x20e
87802662:	f7ff fa91 	bl	87801b88 <IOMUXC_SetPinMux>
87802666:	2300      	movs	r3, #0
87802668:	9301      	str	r3, [sp, #4]
8780266a:	f44f 7342 	mov.w	r3, #776	; 0x308
8780266e:	f2c0 230e 	movt	r3, #526	; 0x20e
87802672:	9300      	str	r3, [sp, #0]
87802674:	2300      	movs	r3, #0
87802676:	2200      	movs	r2, #0
87802678:	2105      	movs	r1, #5
8780267a:	207c      	movs	r0, #124	; 0x7c
8780267c:	f2c0 200e 	movt	r0, #526	; 0x20e
87802680:	f7ff fa82 	bl	87801b88 <IOMUXC_SetPinMux>
87802684:	23b9      	movs	r3, #185	; 0xb9
87802686:	9301      	str	r3, [sp, #4]
87802688:	f44f 7369 	mov.w	r3, #932	; 0x3a4
8780268c:	f2c0 230e 	movt	r3, #526	; 0x20e
87802690:	9300      	str	r3, [sp, #0]
87802692:	2300      	movs	r3, #0
87802694:	2200      	movs	r2, #0
87802696:	2100      	movs	r1, #0
87802698:	f44f 708c 	mov.w	r0, #280	; 0x118
8780269c:	f2c0 200e 	movt	r0, #526	; 0x20e
878026a0:	f7ff fa91 	bl	87801bc6 <IOMUXC_SetPinConfig>
878026a4:	23b9      	movs	r3, #185	; 0xb9
878026a6:	9301      	str	r3, [sp, #4]
878026a8:	f44f 736a 	mov.w	r3, #936	; 0x3a8
878026ac:	f2c0 230e 	movt	r3, #526	; 0x20e
878026b0:	9300      	str	r3, [sp, #0]
878026b2:	2300      	movs	r3, #0
878026b4:	2200      	movs	r2, #0
878026b6:	2100      	movs	r1, #0
878026b8:	f44f 708e 	mov.w	r0, #284	; 0x11c
878026bc:	f2c0 200e 	movt	r0, #526	; 0x20e
878026c0:	f7ff fa81 	bl	87801bc6 <IOMUXC_SetPinConfig>
878026c4:	23b9      	movs	r3, #185	; 0xb9
878026c6:	9301      	str	r3, [sp, #4]
878026c8:	f44f 736b 	mov.w	r3, #940	; 0x3ac
878026cc:	f2c0 230e 	movt	r3, #526	; 0x20e
878026d0:	9300      	str	r3, [sp, #0]
878026d2:	2300      	movs	r3, #0
878026d4:	2200      	movs	r2, #0
878026d6:	2100      	movs	r1, #0
878026d8:	f44f 7090 	mov.w	r0, #288	; 0x120
878026dc:	f2c0 200e 	movt	r0, #526	; 0x20e
878026e0:	f7ff fa71 	bl	87801bc6 <IOMUXC_SetPinConfig>
878026e4:	23b9      	movs	r3, #185	; 0xb9
878026e6:	9301      	str	r3, [sp, #4]
878026e8:	f44f 736c 	mov.w	r3, #944	; 0x3b0
878026ec:	f2c0 230e 	movt	r3, #526	; 0x20e
878026f0:	9300      	str	r3, [sp, #0]
878026f2:	2300      	movs	r3, #0
878026f4:	2200      	movs	r2, #0
878026f6:	2100      	movs	r1, #0
878026f8:	f44f 7092 	mov.w	r0, #292	; 0x124
878026fc:	f2c0 200e 	movt	r0, #526	; 0x20e
87802700:	f7ff fa61 	bl	87801bc6 <IOMUXC_SetPinConfig>
87802704:	23b9      	movs	r3, #185	; 0xb9
87802706:	9301      	str	r3, [sp, #4]
87802708:	f44f 736d 	mov.w	r3, #948	; 0x3b4
8780270c:	f2c0 230e 	movt	r3, #526	; 0x20e
87802710:	9300      	str	r3, [sp, #0]
87802712:	2300      	movs	r3, #0
87802714:	2200      	movs	r2, #0
87802716:	2100      	movs	r1, #0
87802718:	f44f 7094 	mov.w	r0, #296	; 0x128
8780271c:	f2c0 200e 	movt	r0, #526	; 0x20e
87802720:	f7ff fa51 	bl	87801bc6 <IOMUXC_SetPinConfig>
87802724:	23b9      	movs	r3, #185	; 0xb9
87802726:	9301      	str	r3, [sp, #4]
87802728:	f44f 736e 	mov.w	r3, #952	; 0x3b8
8780272c:	f2c0 230e 	movt	r3, #526	; 0x20e
87802730:	9300      	str	r3, [sp, #0]
87802732:	2300      	movs	r3, #0
87802734:	2200      	movs	r2, #0
87802736:	2100      	movs	r1, #0
87802738:	f44f 7096 	mov.w	r0, #300	; 0x12c
8780273c:	f2c0 200e 	movt	r0, #526	; 0x20e
87802740:	f7ff fa41 	bl	87801bc6 <IOMUXC_SetPinConfig>
87802744:	23b9      	movs	r3, #185	; 0xb9
87802746:	9301      	str	r3, [sp, #4]
87802748:	f44f 736f 	mov.w	r3, #956	; 0x3bc
8780274c:	f2c0 230e 	movt	r3, #526	; 0x20e
87802750:	9300      	str	r3, [sp, #0]
87802752:	2300      	movs	r3, #0
87802754:	2200      	movs	r2, #0
87802756:	2100      	movs	r1, #0
87802758:	f44f 7098 	mov.w	r0, #304	; 0x130
8780275c:	f2c0 200e 	movt	r0, #526	; 0x20e
87802760:	f7ff fa31 	bl	87801bc6 <IOMUXC_SetPinConfig>
87802764:	23b9      	movs	r3, #185	; 0xb9
87802766:	9301      	str	r3, [sp, #4]
87802768:	f44f 7370 	mov.w	r3, #960	; 0x3c0
8780276c:	f2c0 230e 	movt	r3, #526	; 0x20e
87802770:	9300      	str	r3, [sp, #0]
87802772:	2300      	movs	r3, #0
87802774:	2200      	movs	r2, #0
87802776:	2100      	movs	r1, #0
87802778:	f44f 709a 	mov.w	r0, #308	; 0x134
8780277c:	f2c0 200e 	movt	r0, #526	; 0x20e
87802780:	f7ff fa21 	bl	87801bc6 <IOMUXC_SetPinConfig>
87802784:	23b9      	movs	r3, #185	; 0xb9
87802786:	9301      	str	r3, [sp, #4]
87802788:	f44f 7371 	mov.w	r3, #964	; 0x3c4
8780278c:	f2c0 230e 	movt	r3, #526	; 0x20e
87802790:	9300      	str	r3, [sp, #0]
87802792:	2300      	movs	r3, #0
87802794:	2200      	movs	r2, #0
87802796:	2100      	movs	r1, #0
87802798:	f44f 709c 	mov.w	r0, #312	; 0x138
8780279c:	f2c0 200e 	movt	r0, #526	; 0x20e
878027a0:	f7ff fa11 	bl	87801bc6 <IOMUXC_SetPinConfig>
878027a4:	23b9      	movs	r3, #185	; 0xb9
878027a6:	9301      	str	r3, [sp, #4]
878027a8:	f44f 7372 	mov.w	r3, #968	; 0x3c8
878027ac:	f2c0 230e 	movt	r3, #526	; 0x20e
878027b0:	9300      	str	r3, [sp, #0]
878027b2:	2300      	movs	r3, #0
878027b4:	2200      	movs	r2, #0
878027b6:	2100      	movs	r1, #0
878027b8:	f44f 709e 	mov.w	r0, #316	; 0x13c
878027bc:	f2c0 200e 	movt	r0, #526	; 0x20e
878027c0:	f7ff fa01 	bl	87801bc6 <IOMUXC_SetPinConfig>
878027c4:	23b9      	movs	r3, #185	; 0xb9
878027c6:	9301      	str	r3, [sp, #4]
878027c8:	f44f 7373 	mov.w	r3, #972	; 0x3cc
878027cc:	f2c0 230e 	movt	r3, #526	; 0x20e
878027d0:	9300      	str	r3, [sp, #0]
878027d2:	2300      	movs	r3, #0
878027d4:	2200      	movs	r2, #0
878027d6:	2100      	movs	r1, #0
878027d8:	f44f 70a0 	mov.w	r0, #320	; 0x140
878027dc:	f2c0 200e 	movt	r0, #526	; 0x20e
878027e0:	f7ff f9f1 	bl	87801bc6 <IOMUXC_SetPinConfig>
878027e4:	23b9      	movs	r3, #185	; 0xb9
878027e6:	9301      	str	r3, [sp, #4]
878027e8:	f44f 7374 	mov.w	r3, #976	; 0x3d0
878027ec:	f2c0 230e 	movt	r3, #526	; 0x20e
878027f0:	9300      	str	r3, [sp, #0]
878027f2:	2300      	movs	r3, #0
878027f4:	2200      	movs	r2, #0
878027f6:	2100      	movs	r1, #0
878027f8:	f44f 70a2 	mov.w	r0, #324	; 0x144
878027fc:	f2c0 200e 	movt	r0, #526	; 0x20e
87802800:	f7ff f9e1 	bl	87801bc6 <IOMUXC_SetPinConfig>
87802804:	23b9      	movs	r3, #185	; 0xb9
87802806:	9301      	str	r3, [sp, #4]
87802808:	f44f 7375 	mov.w	r3, #980	; 0x3d4
8780280c:	f2c0 230e 	movt	r3, #526	; 0x20e
87802810:	9300      	str	r3, [sp, #0]
87802812:	2300      	movs	r3, #0
87802814:	2200      	movs	r2, #0
87802816:	2100      	movs	r1, #0
87802818:	f44f 70a4 	mov.w	r0, #328	; 0x148
8780281c:	f2c0 200e 	movt	r0, #526	; 0x20e
87802820:	f7ff f9d1 	bl	87801bc6 <IOMUXC_SetPinConfig>
87802824:	23b9      	movs	r3, #185	; 0xb9
87802826:	9301      	str	r3, [sp, #4]
87802828:	f44f 7376 	mov.w	r3, #984	; 0x3d8
8780282c:	f2c0 230e 	movt	r3, #526	; 0x20e
87802830:	9300      	str	r3, [sp, #0]
87802832:	2300      	movs	r3, #0
87802834:	2200      	movs	r2, #0
87802836:	2100      	movs	r1, #0
87802838:	f44f 70a6 	mov.w	r0, #332	; 0x14c
8780283c:	f2c0 200e 	movt	r0, #526	; 0x20e
87802840:	f7ff f9c1 	bl	87801bc6 <IOMUXC_SetPinConfig>
87802844:	23b9      	movs	r3, #185	; 0xb9
87802846:	9301      	str	r3, [sp, #4]
87802848:	f44f 7377 	mov.w	r3, #988	; 0x3dc
8780284c:	f2c0 230e 	movt	r3, #526	; 0x20e
87802850:	9300      	str	r3, [sp, #0]
87802852:	2300      	movs	r3, #0
87802854:	2200      	movs	r2, #0
87802856:	2100      	movs	r1, #0
87802858:	f44f 70a8 	mov.w	r0, #336	; 0x150
8780285c:	f2c0 200e 	movt	r0, #526	; 0x20e
87802860:	f7ff f9b1 	bl	87801bc6 <IOMUXC_SetPinConfig>
87802864:	23b9      	movs	r3, #185	; 0xb9
87802866:	9301      	str	r3, [sp, #4]
87802868:	f44f 7378 	mov.w	r3, #992	; 0x3e0
8780286c:	f2c0 230e 	movt	r3, #526	; 0x20e
87802870:	9300      	str	r3, [sp, #0]
87802872:	2300      	movs	r3, #0
87802874:	2200      	movs	r2, #0
87802876:	2100      	movs	r1, #0
87802878:	f44f 70aa 	mov.w	r0, #340	; 0x154
8780287c:	f2c0 200e 	movt	r0, #526	; 0x20e
87802880:	f7ff f9a1 	bl	87801bc6 <IOMUXC_SetPinConfig>
87802884:	23b9      	movs	r3, #185	; 0xb9
87802886:	9301      	str	r3, [sp, #4]
87802888:	f44f 7379 	mov.w	r3, #996	; 0x3e4
8780288c:	f2c0 230e 	movt	r3, #526	; 0x20e
87802890:	9300      	str	r3, [sp, #0]
87802892:	2300      	movs	r3, #0
87802894:	2200      	movs	r2, #0
87802896:	2100      	movs	r1, #0
87802898:	f44f 70ac 	mov.w	r0, #344	; 0x158
8780289c:	f2c0 200e 	movt	r0, #526	; 0x20e
878028a0:	f7ff f991 	bl	87801bc6 <IOMUXC_SetPinConfig>
878028a4:	23b9      	movs	r3, #185	; 0xb9
878028a6:	9301      	str	r3, [sp, #4]
878028a8:	f44f 737a 	mov.w	r3, #1000	; 0x3e8
878028ac:	f2c0 230e 	movt	r3, #526	; 0x20e
878028b0:	9300      	str	r3, [sp, #0]
878028b2:	2300      	movs	r3, #0
878028b4:	2200      	movs	r2, #0
878028b6:	2100      	movs	r1, #0
878028b8:	f44f 70ae 	mov.w	r0, #348	; 0x15c
878028bc:	f2c0 200e 	movt	r0, #526	; 0x20e
878028c0:	f7ff f981 	bl	87801bc6 <IOMUXC_SetPinConfig>
878028c4:	23b9      	movs	r3, #185	; 0xb9
878028c6:	9301      	str	r3, [sp, #4]
878028c8:	f44f 737b 	mov.w	r3, #1004	; 0x3ec
878028cc:	f2c0 230e 	movt	r3, #526	; 0x20e
878028d0:	9300      	str	r3, [sp, #0]
878028d2:	2300      	movs	r3, #0
878028d4:	2200      	movs	r2, #0
878028d6:	2100      	movs	r1, #0
878028d8:	f44f 70b0 	mov.w	r0, #352	; 0x160
878028dc:	f2c0 200e 	movt	r0, #526	; 0x20e
878028e0:	f7ff f971 	bl	87801bc6 <IOMUXC_SetPinConfig>
878028e4:	23b9      	movs	r3, #185	; 0xb9
878028e6:	9301      	str	r3, [sp, #4]
878028e8:	f44f 737c 	mov.w	r3, #1008	; 0x3f0
878028ec:	f2c0 230e 	movt	r3, #526	; 0x20e
878028f0:	9300      	str	r3, [sp, #0]
878028f2:	2300      	movs	r3, #0
878028f4:	2200      	movs	r2, #0
878028f6:	2100      	movs	r1, #0
878028f8:	f44f 70b2 	mov.w	r0, #356	; 0x164
878028fc:	f2c0 200e 	movt	r0, #526	; 0x20e
87802900:	f7ff f961 	bl	87801bc6 <IOMUXC_SetPinConfig>
87802904:	23b9      	movs	r3, #185	; 0xb9
87802906:	9301      	str	r3, [sp, #4]
87802908:	f44f 737d 	mov.w	r3, #1012	; 0x3f4
8780290c:	f2c0 230e 	movt	r3, #526	; 0x20e
87802910:	9300      	str	r3, [sp, #0]
87802912:	2300      	movs	r3, #0
87802914:	2200      	movs	r2, #0
87802916:	2100      	movs	r1, #0
87802918:	f44f 70b4 	mov.w	r0, #360	; 0x168
8780291c:	f2c0 200e 	movt	r0, #526	; 0x20e
87802920:	f7ff f951 	bl	87801bc6 <IOMUXC_SetPinConfig>
87802924:	23b9      	movs	r3, #185	; 0xb9
87802926:	9301      	str	r3, [sp, #4]
87802928:	f44f 737e 	mov.w	r3, #1016	; 0x3f8
8780292c:	f2c0 230e 	movt	r3, #526	; 0x20e
87802930:	9300      	str	r3, [sp, #0]
87802932:	2300      	movs	r3, #0
87802934:	2200      	movs	r2, #0
87802936:	2100      	movs	r1, #0
87802938:	f44f 70b6 	mov.w	r0, #364	; 0x16c
8780293c:	f2c0 200e 	movt	r0, #526	; 0x20e
87802940:	f7ff f941 	bl	87801bc6 <IOMUXC_SetPinConfig>
87802944:	23b9      	movs	r3, #185	; 0xb9
87802946:	9301      	str	r3, [sp, #4]
87802948:	f44f 737f 	mov.w	r3, #1020	; 0x3fc
8780294c:	f2c0 230e 	movt	r3, #526	; 0x20e
87802950:	9300      	str	r3, [sp, #0]
87802952:	2300      	movs	r3, #0
87802954:	2200      	movs	r2, #0
87802956:	2100      	movs	r1, #0
87802958:	f44f 70b8 	mov.w	r0, #368	; 0x170
8780295c:	f2c0 200e 	movt	r0, #526	; 0x20e
87802960:	f7ff f931 	bl	87801bc6 <IOMUXC_SetPinConfig>
87802964:	23b9      	movs	r3, #185	; 0xb9
87802966:	9301      	str	r3, [sp, #4]
87802968:	f44f 6380 	mov.w	r3, #1024	; 0x400
8780296c:	f2c0 230e 	movt	r3, #526	; 0x20e
87802970:	9300      	str	r3, [sp, #0]
87802972:	2300      	movs	r3, #0
87802974:	2200      	movs	r2, #0
87802976:	2100      	movs	r1, #0
87802978:	f44f 70ba 	mov.w	r0, #372	; 0x174
8780297c:	f2c0 200e 	movt	r0, #526	; 0x20e
87802980:	f7ff f921 	bl	87801bc6 <IOMUXC_SetPinConfig>
87802984:	23b9      	movs	r3, #185	; 0xb9
87802986:	9301      	str	r3, [sp, #4]
87802988:	f44f 7364 	mov.w	r3, #912	; 0x390
8780298c:	f2c0 230e 	movt	r3, #526	; 0x20e
87802990:	9300      	str	r3, [sp, #0]
87802992:	2300      	movs	r3, #0
87802994:	2200      	movs	r2, #0
87802996:	2100      	movs	r1, #0
87802998:	f44f 7082 	mov.w	r0, #260	; 0x104
8780299c:	f2c0 200e 	movt	r0, #526	; 0x20e
878029a0:	f7ff f911 	bl	87801bc6 <IOMUXC_SetPinConfig>
878029a4:	23b9      	movs	r3, #185	; 0xb9
878029a6:	9301      	str	r3, [sp, #4]
878029a8:	f44f 7365 	mov.w	r3, #916	; 0x394
878029ac:	f2c0 230e 	movt	r3, #526	; 0x20e
878029b0:	9300      	str	r3, [sp, #0]
878029b2:	2300      	movs	r3, #0
878029b4:	2200      	movs	r2, #0
878029b6:	2100      	movs	r1, #0
878029b8:	f44f 7084 	mov.w	r0, #264	; 0x108
878029bc:	f2c0 200e 	movt	r0, #526	; 0x20e
878029c0:	f7ff f901 	bl	87801bc6 <IOMUXC_SetPinConfig>
878029c4:	23b9      	movs	r3, #185	; 0xb9
878029c6:	9301      	str	r3, [sp, #4]
878029c8:	f44f 7366 	mov.w	r3, #920	; 0x398
878029cc:	f2c0 230e 	movt	r3, #526	; 0x20e
878029d0:	9300      	str	r3, [sp, #0]
878029d2:	2300      	movs	r3, #0
878029d4:	f240 52dc 	movw	r2, #1500	; 0x5dc
878029d8:	f2c0 220e 	movt	r2, #526	; 0x20e
878029dc:	2100      	movs	r1, #0
878029de:	f44f 7086 	mov.w	r0, #268	; 0x10c
878029e2:	f2c0 200e 	movt	r0, #526	; 0x20e
878029e6:	f7ff f8ee 	bl	87801bc6 <IOMUXC_SetPinConfig>
878029ea:	23b9      	movs	r3, #185	; 0xb9
878029ec:	9301      	str	r3, [sp, #4]
878029ee:	f44f 7367 	mov.w	r3, #924	; 0x39c
878029f2:	f2c0 230e 	movt	r3, #526	; 0x20e
878029f6:	9300      	str	r3, [sp, #0]
878029f8:	2300      	movs	r3, #0
878029fa:	2200      	movs	r2, #0
878029fc:	2100      	movs	r1, #0
878029fe:	f44f 7088 	mov.w	r0, #272	; 0x110
87802a02:	f2c0 200e 	movt	r0, #526	; 0x20e
87802a06:	f7ff f8de 	bl	87801bc6 <IOMUXC_SetPinConfig>
87802a0a:	23b9      	movs	r3, #185	; 0xb9
87802a0c:	9301      	str	r3, [sp, #4]
87802a0e:	f44f 7342 	mov.w	r3, #776	; 0x308
87802a12:	f2c0 230e 	movt	r3, #526	; 0x20e
87802a16:	9300      	str	r3, [sp, #0]
87802a18:	2300      	movs	r3, #0
87802a1a:	2200      	movs	r2, #0
87802a1c:	2105      	movs	r1, #5
87802a1e:	207c      	movs	r0, #124	; 0x7c
87802a20:	f2c0 200e 	movt	r0, #526	; 0x20e
87802a24:	f7ff f8cf 	bl	87801bc6 <IOMUXC_SetPinConfig>
87802a28:	2301      	movs	r3, #1
87802a2a:	607b      	str	r3, [r7, #4]
87802a2c:	2301      	movs	r3, #1
87802a2e:	723b      	strb	r3, [r7, #8]
87802a30:	1d3b      	adds	r3, r7, #4
87802a32:	461a      	mov	r2, r3
87802a34:	2108      	movs	r1, #8
87802a36:	f44f 4040 	mov.w	r0, #49152	; 0xc000
87802a3a:	f2c0 2009 	movt	r0, #521	; 0x209
87802a3e:	f7fd ff15 	bl	8780086c <gpio_init>
87802a42:	2201      	movs	r2, #1
87802a44:	2108      	movs	r1, #8
87802a46:	f44f 4040 	mov.w	r0, #49152	; 0xc000
87802a4a:	f2c0 2009 	movt	r0, #521	; 0x209
87802a4e:	f7fd ff59 	bl	87800904 <gpio_pinwrite>
87802a52:	bf00      	nop
87802a54:	3710      	adds	r7, #16
87802a56:	46bd      	mov	sp, r7
87802a58:	bd80      	pop	{r7, pc}

87802a5a <lcdclk_init>:
87802a5a:	b480      	push	{r7}
87802a5c:	b083      	sub	sp, #12
87802a5e:	af00      	add	r7, sp, #0
87802a60:	4603      	mov	r3, r0
87802a62:	71fb      	strb	r3, [r7, #7]
87802a64:	460b      	mov	r3, r1
87802a66:	71bb      	strb	r3, [r7, #6]
87802a68:	4613      	mov	r3, r2
87802a6a:	717b      	strb	r3, [r7, #5]
87802a6c:	f44f 4300 	mov.w	r3, #32768	; 0x8000
87802a70:	f2c0 230c 	movt	r3, #524	; 0x20c
87802a74:	2200      	movs	r2, #0
87802a76:	f8c3 20b0 	str.w	r2, [r3, #176]	; 0xb0
87802a7a:	f44f 4300 	mov.w	r3, #32768	; 0x8000
87802a7e:	f2c0 230c 	movt	r3, #524	; 0x20c
87802a82:	2200      	movs	r2, #0
87802a84:	f8c3 20c0 	str.w	r2, [r3, #192]	; 0xc0
87802a88:	79fb      	ldrb	r3, [r7, #7]
87802a8a:	f443 1281 	orr.w	r2, r3, #1056768	; 0x102000
87802a8e:	f44f 4300 	mov.w	r3, #32768	; 0x8000
87802a92:	f2c0 230c 	movt	r3, #524	; 0x20c
87802a96:	f8c3 20a0 	str.w	r2, [r3, #160]	; 0xa0
87802a9a:	f44f 4300 	mov.w	r3, #32768	; 0x8000
87802a9e:	f2c0 230c 	movt	r3, #524	; 0x20c
87802aa2:	f8d3 2170 	ldr.w	r2, [r3, #368]	; 0x170
87802aa6:	f44f 4300 	mov.w	r3, #32768	; 0x8000
87802aaa:	f2c0 230c 	movt	r3, #524	; 0x20c
87802aae:	f022 4240 	bic.w	r2, r2, #3221225472	; 0xc0000000
87802ab2:	f8c3 2170 	str.w	r2, [r3, #368]	; 0x170
87802ab6:	f44f 4300 	mov.w	r3, #32768	; 0x8000
87802aba:	f2c0 230c 	movt	r3, #524	; 0x20c
87802abe:	2200      	movs	r2, #0
87802ac0:	f8c3 2170 	str.w	r2, [r3, #368]	; 0x170
87802ac4:	f44f 4380 	mov.w	r3, #16384	; 0x4000
87802ac8:	f2c0 230c 	movt	r3, #524	; 0x20c
87802acc:	6b9a      	ldr	r2, [r3, #56]	; 0x38
87802ace:	f44f 4380 	mov.w	r3, #16384	; 0x4000
87802ad2:	f2c0 230c 	movt	r3, #524	; 0x20c
87802ad6:	f422 3260 	bic.w	r2, r2, #229376	; 0x38000
87802ada:	639a      	str	r2, [r3, #56]	; 0x38
87802adc:	f44f 4380 	mov.w	r3, #16384	; 0x4000
87802ae0:	f2c0 230c 	movt	r3, #524	; 0x20c
87802ae4:	6b9a      	ldr	r2, [r3, #56]	; 0x38
87802ae6:	f44f 4380 	mov.w	r3, #16384	; 0x4000
87802aea:	f2c0 230c 	movt	r3, #524	; 0x20c
87802aee:	f442 3280 	orr.w	r2, r2, #65536	; 0x10000
87802af2:	639a      	str	r2, [r3, #56]	; 0x38
87802af4:	f44f 4380 	mov.w	r3, #16384	; 0x4000
87802af8:	f2c0 230c 	movt	r3, #524	; 0x20c
87802afc:	6b9a      	ldr	r2, [r3, #56]	; 0x38
87802afe:	f44f 4380 	mov.w	r3, #16384	; 0x4000
87802b02:	f2c0 230c 	movt	r3, #524	; 0x20c
87802b06:	f422 42e0 	bic.w	r2, r2, #28672	; 0x7000
87802b0a:	639a      	str	r2, [r3, #56]	; 0x38
87802b0c:	f44f 4380 	mov.w	r3, #16384	; 0x4000
87802b10:	f2c0 230c 	movt	r3, #524	; 0x20c
87802b14:	6b9a      	ldr	r2, [r3, #56]	; 0x38
87802b16:	79bb      	ldrb	r3, [r7, #6]
87802b18:	3b01      	subs	r3, #1
87802b1a:	031b      	lsls	r3, r3, #12
87802b1c:	4619      	mov	r1, r3
87802b1e:	f44f 4380 	mov.w	r3, #16384	; 0x4000
87802b22:	f2c0 230c 	movt	r3, #524	; 0x20c
87802b26:	430a      	orrs	r2, r1
87802b28:	639a      	str	r2, [r3, #56]	; 0x38
87802b2a:	f44f 4380 	mov.w	r3, #16384	; 0x4000
87802b2e:	f2c0 230c 	movt	r3, #524	; 0x20c
87802b32:	699a      	ldr	r2, [r3, #24]
87802b34:	f44f 4380 	mov.w	r3, #16384	; 0x4000
87802b38:	f2c0 230c 	movt	r3, #524	; 0x20c
87802b3c:	f022 7260 	bic.w	r2, r2, #58720256	; 0x3800000
87802b40:	619a      	str	r2, [r3, #24]
87802b42:	f44f 4380 	mov.w	r3, #16384	; 0x4000
87802b46:	f2c0 230c 	movt	r3, #524	; 0x20c
87802b4a:	699a      	ldr	r2, [r3, #24]
87802b4c:	797b      	ldrb	r3, [r7, #5]
87802b4e:	3b01      	subs	r3, #1
87802b50:	05db      	lsls	r3, r3, #23
87802b52:	4619      	mov	r1, r3
87802b54:	f44f 4380 	mov.w	r3, #16384	; 0x4000
87802b58:	f2c0 230c 	movt	r3, #524	; 0x20c
87802b5c:	430a      	orrs	r2, r1
87802b5e:	619a      	str	r2, [r3, #24]
87802b60:	f44f 4380 	mov.w	r3, #16384	; 0x4000
87802b64:	f2c0 230c 	movt	r3, #524	; 0x20c
87802b68:	6b9a      	ldr	r2, [r3, #56]	; 0x38
87802b6a:	f44f 4380 	mov.w	r3, #16384	; 0x4000
87802b6e:	f2c0 230c 	movt	r3, #524	; 0x20c
87802b72:	f422 6260 	bic.w	r2, r2, #3584	; 0xe00
87802b76:	639a      	str	r2, [r3, #56]	; 0x38
87802b78:	f44f 4280 	mov.w	r2, #16384	; 0x4000
87802b7c:	f2c0 220c 	movt	r2, #524	; 0x20c
87802b80:	f44f 4380 	mov.w	r3, #16384	; 0x4000
87802b84:	f2c0 230c 	movt	r3, #524	; 0x20c
87802b88:	6b92      	ldr	r2, [r2, #56]	; 0x38
87802b8a:	639a      	str	r2, [r3, #56]	; 0x38
87802b8c:	bf00      	nop
87802b8e:	370c      	adds	r7, #12
87802b90:	46bd      	mov	sp, r7
87802b92:	f85d 7b04 	ldr.w	r7, [sp], #4
87802b96:	4770      	bx	lr

87802b98 <lcd_reset>:
87802b98:	b480      	push	{r7}
87802b9a:	af00      	add	r7, sp, #0
87802b9c:	f44f 4300 	mov.w	r3, #32768	; 0x8000
87802ba0:	f2c0 231c 	movt	r3, #540	; 0x21c
87802ba4:	f04f 4200 	mov.w	r2, #2147483648	; 0x80000000
87802ba8:	601a      	str	r2, [r3, #0]
87802baa:	bf00      	nop
87802bac:	46bd      	mov	sp, r7
87802bae:	f85d 7b04 	ldr.w	r7, [sp], #4
87802bb2:	4770      	bx	lr

87802bb4 <lcd_noreset>:
87802bb4:	b480      	push	{r7}
87802bb6:	af00      	add	r7, sp, #0
87802bb8:	f44f 4300 	mov.w	r3, #32768	; 0x8000
87802bbc:	f2c0 231c 	movt	r3, #540	; 0x21c
87802bc0:	2200      	movs	r2, #0
87802bc2:	601a      	str	r2, [r3, #0]
87802bc4:	bf00      	nop
87802bc6:	46bd      	mov	sp, r7
87802bc8:	f85d 7b04 	ldr.w	r7, [sp], #4
87802bcc:	4770      	bx	lr

87802bce <lcd_enable>:
87802bce:	b480      	push	{r7}
87802bd0:	af00      	add	r7, sp, #0
87802bd2:	f44f 4300 	mov.w	r3, #32768	; 0x8000
87802bd6:	f2c0 231c 	movt	r3, #540	; 0x21c
87802bda:	681a      	ldr	r2, [r3, #0]
87802bdc:	f44f 4300 	mov.w	r3, #32768	; 0x8000
87802be0:	f2c0 231c 	movt	r3, #540	; 0x21c
87802be4:	f042 0201 	orr.w	r2, r2, #1
87802be8:	601a      	str	r2, [r3, #0]
87802bea:	bf00      	nop
87802bec:	46bd      	mov	sp, r7
87802bee:	f85d 7b04 	ldr.w	r7, [sp], #4
87802bf2:	4770      	bx	lr

87802bf4 <video_pllinit>:
87802bf4:	b480      	push	{r7}
87802bf6:	b083      	sub	sp, #12
87802bf8:	af00      	add	r7, sp, #0
87802bfa:	4603      	mov	r3, r0
87802bfc:	460a      	mov	r2, r1
87802bfe:	71fb      	strb	r3, [r7, #7]
87802c00:	4613      	mov	r3, r2
87802c02:	71bb      	strb	r3, [r7, #6]
87802c04:	bf00      	nop
87802c06:	370c      	adds	r7, #12
87802c08:	46bd      	mov	sp, r7
87802c0a:	f85d 7b04 	ldr.w	r7, [sp], #4
87802c0e:	4770      	bx	lr

87802c10 <lcd_drawpoint>:
87802c10:	b480      	push	{r7}
87802c12:	b083      	sub	sp, #12
87802c14:	af00      	add	r7, sp, #0
87802c16:	4603      	mov	r3, r0
87802c18:	603a      	str	r2, [r7, #0]
87802c1a:	80fb      	strh	r3, [r7, #6]
87802c1c:	460b      	mov	r3, r1
87802c1e:	80bb      	strh	r3, [r7, #4]
87802c20:	4b0d      	ldr	r3, [pc, #52]	; (87802c58 <lcd_drawpoint+0x48>)
87802c22:	447b      	add	r3, pc
87802c24:	695b      	ldr	r3, [r3, #20]
87802c26:	4a0d      	ldr	r2, [pc, #52]	; (87802c5c <lcd_drawpoint+0x4c>)
87802c28:	447a      	add	r2, pc
87802c2a:	7912      	ldrb	r2, [r2, #4]
87802c2c:	4610      	mov	r0, r2
87802c2e:	4a0c      	ldr	r2, [pc, #48]	; (87802c60 <lcd_drawpoint+0x50>)
87802c30:	447a      	add	r2, pc
87802c32:	8852      	ldrh	r2, [r2, #2]
87802c34:	4611      	mov	r1, r2
87802c36:	88ba      	ldrh	r2, [r7, #4]
87802c38:	fb02 f101 	mul.w	r1, r2, r1
87802c3c:	88fa      	ldrh	r2, [r7, #6]
87802c3e:	440a      	add	r2, r1
87802c40:	fb00 f202 	mul.w	r2, r0, r2
87802c44:	4413      	add	r3, r2
87802c46:	461a      	mov	r2, r3
87802c48:	683b      	ldr	r3, [r7, #0]
87802c4a:	6013      	str	r3, [r2, #0]
87802c4c:	bf00      	nop
87802c4e:	370c      	adds	r7, #12
87802c50:	46bd      	mov	sp, r7
87802c52:	f85d 7b04 	ldr.w	r7, [sp], #4
87802c56:	4770      	bx	lr
87802c58:	000077ee 	andeq	r7, r0, lr, ror #15
87802c5c:	000077e8 	andeq	r7, r0, r8, ror #15
87802c60:	000077e0 	andeq	r7, r0, r0, ror #15

87802c64 <lcd_readpoint>:
87802c64:	b480      	push	{r7}
87802c66:	b083      	sub	sp, #12
87802c68:	af00      	add	r7, sp, #0
87802c6a:	4603      	mov	r3, r0
87802c6c:	460a      	mov	r2, r1
87802c6e:	80fb      	strh	r3, [r7, #6]
87802c70:	4613      	mov	r3, r2
87802c72:	80bb      	strh	r3, [r7, #4]
87802c74:	4b0c      	ldr	r3, [pc, #48]	; (87802ca8 <lcd_readpoint+0x44>)
87802c76:	447b      	add	r3, pc
87802c78:	695b      	ldr	r3, [r3, #20]
87802c7a:	4a0c      	ldr	r2, [pc, #48]	; (87802cac <lcd_readpoint+0x48>)
87802c7c:	447a      	add	r2, pc
87802c7e:	7912      	ldrb	r2, [r2, #4]
87802c80:	4610      	mov	r0, r2
87802c82:	4a0b      	ldr	r2, [pc, #44]	; (87802cb0 <lcd_readpoint+0x4c>)
87802c84:	447a      	add	r2, pc
87802c86:	8852      	ldrh	r2, [r2, #2]
87802c88:	4611      	mov	r1, r2
87802c8a:	88ba      	ldrh	r2, [r7, #4]
87802c8c:	fb02 f101 	mul.w	r1, r2, r1
87802c90:	88fa      	ldrh	r2, [r7, #6]
87802c92:	440a      	add	r2, r1
87802c94:	fb00 f202 	mul.w	r2, r0, r2
87802c98:	4413      	add	r3, r2
87802c9a:	681b      	ldr	r3, [r3, #0]
87802c9c:	4618      	mov	r0, r3
87802c9e:	370c      	adds	r7, #12
87802ca0:	46bd      	mov	sp, r7
87802ca2:	f85d 7b04 	ldr.w	r7, [sp], #4
87802ca6:	4770      	bx	lr
87802ca8:	0000779a 	muleq	r0, sl, r7
87802cac:	00007794 	muleq	r0, r4, r7
87802cb0:	0000778c 	andeq	r7, r0, ip, lsl #15

87802cb4 <lcd_clear>:
87802cb4:	b480      	push	{r7}
87802cb6:	b087      	sub	sp, #28
87802cb8:	af00      	add	r7, sp, #0
87802cba:	6078      	str	r0, [r7, #4]
87802cbc:	2300      	movs	r3, #0
87802cbe:	617b      	str	r3, [r7, #20]
87802cc0:	4b12      	ldr	r3, [pc, #72]	; (87802d0c <lcd_clear+0x58>)
87802cc2:	447b      	add	r3, pc
87802cc4:	695b      	ldr	r3, [r3, #20]
87802cc6:	613b      	str	r3, [r7, #16]
87802cc8:	4b11      	ldr	r3, [pc, #68]	; (87802d10 <lcd_clear+0x5c>)
87802cca:	447b      	add	r3, pc
87802ccc:	885b      	ldrh	r3, [r3, #2]
87802cce:	461a      	mov	r2, r3
87802cd0:	4b10      	ldr	r3, [pc, #64]	; (87802d14 <lcd_clear+0x60>)
87802cd2:	447b      	add	r3, pc
87802cd4:	881b      	ldrh	r3, [r3, #0]
87802cd6:	fb02 f303 	mul.w	r3, r2, r3
87802cda:	60fb      	str	r3, [r7, #12]
87802cdc:	2300      	movs	r3, #0
87802cde:	617b      	str	r3, [r7, #20]
87802ce0:	e008      	b.n	87802cf4 <lcd_clear+0x40>
87802ce2:	697b      	ldr	r3, [r7, #20]
87802ce4:	009b      	lsls	r3, r3, #2
87802ce6:	693a      	ldr	r2, [r7, #16]
87802ce8:	4413      	add	r3, r2
87802cea:	687a      	ldr	r2, [r7, #4]
87802cec:	601a      	str	r2, [r3, #0]
87802cee:	697b      	ldr	r3, [r7, #20]
87802cf0:	3301      	adds	r3, #1
87802cf2:	617b      	str	r3, [r7, #20]
87802cf4:	697a      	ldr	r2, [r7, #20]
87802cf6:	68fb      	ldr	r3, [r7, #12]
87802cf8:	429a      	cmp	r2, r3
87802cfa:	d3f2      	bcc.n	87802ce2 <lcd_clear+0x2e>
87802cfc:	bf00      	nop
87802cfe:	bf00      	nop
87802d00:	371c      	adds	r7, #28
87802d02:	46bd      	mov	sp, r7
87802d04:	f85d 7b04 	ldr.w	r7, [sp], #4
87802d08:	4770      	bx	lr
87802d0a:	bf00      	nop
87802d0c:	0000774e 	andeq	r7, r0, lr, asr #14
87802d10:	00007746 	andeq	r7, r0, r6, asr #14
87802d14:	0000773e 	andeq	r7, r0, lr, lsr r7

87802d18 <lcd_fillrect>:
87802d18:	b590      	push	{r4, r7, lr}
87802d1a:	b085      	sub	sp, #20
87802d1c:	af00      	add	r7, sp, #0
87802d1e:	4604      	mov	r4, r0
87802d20:	4608      	mov	r0, r1
87802d22:	4611      	mov	r1, r2
87802d24:	461a      	mov	r2, r3
87802d26:	4623      	mov	r3, r4
87802d28:	80fb      	strh	r3, [r7, #6]
87802d2a:	4603      	mov	r3, r0
87802d2c:	80bb      	strh	r3, [r7, #4]
87802d2e:	460b      	mov	r3, r1
87802d30:	807b      	strh	r3, [r7, #2]
87802d32:	4613      	mov	r3, r2
87802d34:	803b      	strh	r3, [r7, #0]
87802d36:	4b1a      	ldr	r3, [pc, #104]	; (87802da0 <lcd_fillrect+0x88>)
87802d38:	447b      	add	r3, pc
87802d3a:	885b      	ldrh	r3, [r3, #2]
87802d3c:	887a      	ldrh	r2, [r7, #2]
87802d3e:	429a      	cmp	r2, r3
87802d40:	d304      	bcc.n	87802d4c <lcd_fillrect+0x34>
87802d42:	4b18      	ldr	r3, [pc, #96]	; (87802da4 <lcd_fillrect+0x8c>)
87802d44:	447b      	add	r3, pc
87802d46:	885b      	ldrh	r3, [r3, #2]
87802d48:	3b01      	subs	r3, #1
87802d4a:	807b      	strh	r3, [r7, #2]
87802d4c:	4b16      	ldr	r3, [pc, #88]	; (87802da8 <lcd_fillrect+0x90>)
87802d4e:	447b      	add	r3, pc
87802d50:	881b      	ldrh	r3, [r3, #0]
87802d52:	883a      	ldrh	r2, [r7, #0]
87802d54:	429a      	cmp	r2, r3
87802d56:	d304      	bcc.n	87802d62 <lcd_fillrect+0x4a>
87802d58:	4b14      	ldr	r3, [pc, #80]	; (87802dac <lcd_fillrect+0x94>)
87802d5a:	447b      	add	r3, pc
87802d5c:	881b      	ldrh	r3, [r3, #0]
87802d5e:	3b01      	subs	r3, #1
87802d60:	803b      	strh	r3, [r7, #0]
87802d62:	88bb      	ldrh	r3, [r7, #4]
87802d64:	81bb      	strh	r3, [r7, #12]
87802d66:	e012      	b.n	87802d8e <lcd_fillrect+0x76>
87802d68:	88fb      	ldrh	r3, [r7, #6]
87802d6a:	81fb      	strh	r3, [r7, #14]
87802d6c:	e008      	b.n	87802d80 <lcd_fillrect+0x68>
87802d6e:	89b9      	ldrh	r1, [r7, #12]
87802d70:	89fb      	ldrh	r3, [r7, #14]
87802d72:	6a3a      	ldr	r2, [r7, #32]
87802d74:	4618      	mov	r0, r3
87802d76:	f7ff ff4b 	bl	87802c10 <lcd_drawpoint>
87802d7a:	89fb      	ldrh	r3, [r7, #14]
87802d7c:	3301      	adds	r3, #1
87802d7e:	81fb      	strh	r3, [r7, #14]
87802d80:	89fa      	ldrh	r2, [r7, #14]
87802d82:	887b      	ldrh	r3, [r7, #2]
87802d84:	429a      	cmp	r2, r3
87802d86:	d9f2      	bls.n	87802d6e <lcd_fillrect+0x56>
87802d88:	89bb      	ldrh	r3, [r7, #12]
87802d8a:	3301      	adds	r3, #1
87802d8c:	81bb      	strh	r3, [r7, #12]
87802d8e:	89ba      	ldrh	r2, [r7, #12]
87802d90:	883b      	ldrh	r3, [r7, #0]
87802d92:	429a      	cmp	r2, r3
87802d94:	d9e8      	bls.n	87802d68 <lcd_fillrect+0x50>
87802d96:	bf00      	nop
87802d98:	bf00      	nop
87802d9a:	3714      	adds	r7, #20
87802d9c:	46bd      	mov	sp, r7
87802d9e:	bd90      	pop	{r4, r7, pc}
87802da0:	000076d8 	ldrdeq	r7, [r0], -r8
87802da4:	000076cc 	andeq	r7, r0, ip, asr #13
87802da8:	000076c2 	andeq	r7, r0, r2, asr #13
87802dac:	000076b6 			; <UNDEFINED> instruction: 0x000076b6

87802db0 <rtc_init>:
87802db0:	b580      	push	{r7, lr}
87802db2:	af00      	add	r7, sp, #0
87802db4:	f44f 4340 	mov.w	r3, #49152	; 0xc000
87802db8:	f2c0 230c 	movt	r3, #524	; 0x20c
87802dbc:	685b      	ldr	r3, [r3, #4]
87802dbe:	f44f 4240 	mov.w	r2, #49152	; 0xc000
87802dc2:	f2c0 220c 	movt	r2, #524	; 0x20c
87802dc6:	f043 4300 	orr.w	r3, r3, #2147483648	; 0x80000000
87802dca:	f443 7380 	orr.w	r3, r3, #256	; 0x100
87802dce:	6053      	str	r3, [r2, #4]
87802dd0:	f000 f802 	bl	87802dd8 <rtc_enable>
87802dd4:	bf00      	nop
87802dd6:	bd80      	pop	{r7, pc}

87802dd8 <rtc_enable>:
87802dd8:	b480      	push	{r7}
87802dda:	af00      	add	r7, sp, #0
87802ddc:	f44f 4340 	mov.w	r3, #49152	; 0xc000
87802de0:	f2c0 230c 	movt	r3, #524	; 0x20c
87802de4:	6b9a      	ldr	r2, [r3, #56]	; 0x38
87802de6:	f44f 4340 	mov.w	r3, #49152	; 0xc000
87802dea:	f2c0 230c 	movt	r3, #524	; 0x20c
87802dee:	f042 0201 	orr.w	r2, r2, #1
87802df2:	639a      	str	r2, [r3, #56]	; 0x38
87802df4:	bf00      	nop
87802df6:	f44f 4340 	mov.w	r3, #49152	; 0xc000
87802dfa:	f2c0 230c 	movt	r3, #524	; 0x20c
87802dfe:	6b9b      	ldr	r3, [r3, #56]	; 0x38
87802e00:	f003 0301 	and.w	r3, r3, #1
87802e04:	2b00      	cmp	r3, #0
87802e06:	d0f6      	beq.n	87802df6 <rtc_enable+0x1e>
87802e08:	bf00      	nop
87802e0a:	bf00      	nop
87802e0c:	46bd      	mov	sp, r7
87802e0e:	f85d 7b04 	ldr.w	r7, [sp], #4
87802e12:	4770      	bx	lr

87802e14 <rtc_disable>:
87802e14:	b480      	push	{r7}
87802e16:	af00      	add	r7, sp, #0
87802e18:	f44f 4340 	mov.w	r3, #49152	; 0xc000
87802e1c:	f2c0 230c 	movt	r3, #524	; 0x20c
87802e20:	6b9a      	ldr	r2, [r3, #56]	; 0x38
87802e22:	f44f 4340 	mov.w	r3, #49152	; 0xc000
87802e26:	f2c0 230c 	movt	r3, #524	; 0x20c
87802e2a:	f022 0201 	bic.w	r2, r2, #1
87802e2e:	639a      	str	r2, [r3, #56]	; 0x38
87802e30:	bf00      	nop
87802e32:	f44f 4340 	mov.w	r3, #49152	; 0xc000
87802e36:	f2c0 230c 	movt	r3, #524	; 0x20c
87802e3a:	6b9b      	ldr	r3, [r3, #56]	; 0x38
87802e3c:	f003 0301 	and.w	r3, r3, #1
87802e40:	2b00      	cmp	r3, #0
87802e42:	d1f6      	bne.n	87802e32 <rtc_disable+0x1e>
87802e44:	bf00      	nop
87802e46:	bf00      	nop
87802e48:	46bd      	mov	sp, r7
87802e4a:	f85d 7b04 	ldr.w	r7, [sp], #4
87802e4e:	4770      	bx	lr

87802e50 <rtc_isleapyear>:
87802e50:	b480      	push	{r7}
87802e52:	b085      	sub	sp, #20
87802e54:	af00      	add	r7, sp, #0
87802e56:	4603      	mov	r3, r0
87802e58:	80fb      	strh	r3, [r7, #6]
87802e5a:	2300      	movs	r3, #0
87802e5c:	73fb      	strb	r3, [r7, #15]
87802e5e:	88fa      	ldrh	r2, [r7, #6]
87802e60:	f248 531f 	movw	r3, #34079	; 0x851f
87802e64:	f2c5 13eb 	movt	r3, #20971	; 0x51eb
87802e68:	fba3 1302 	umull	r1, r3, r3, r2
87802e6c:	09db      	lsrs	r3, r3, #7
87802e6e:	f44f 71c8 	mov.w	r1, #400	; 0x190
87802e72:	fb01 f303 	mul.w	r3, r1, r3
87802e76:	1ad3      	subs	r3, r2, r3
87802e78:	b29b      	uxth	r3, r3
87802e7a:	2b00      	cmp	r3, #0
87802e7c:	d102      	bne.n	87802e84 <rtc_isleapyear+0x34>
87802e7e:	2301      	movs	r3, #1
87802e80:	73fb      	strb	r3, [r7, #15]
87802e82:	e019      	b.n	87802eb8 <rtc_isleapyear+0x68>
87802e84:	88fb      	ldrh	r3, [r7, #6]
87802e86:	f003 0303 	and.w	r3, r3, #3
87802e8a:	b29b      	uxth	r3, r3
87802e8c:	2b00      	cmp	r3, #0
87802e8e:	d111      	bne.n	87802eb4 <rtc_isleapyear+0x64>
87802e90:	88fa      	ldrh	r2, [r7, #6]
87802e92:	f248 531f 	movw	r3, #34079	; 0x851f
87802e96:	f2c5 13eb 	movt	r3, #20971	; 0x51eb
87802e9a:	fba3 1302 	umull	r1, r3, r3, r2
87802e9e:	095b      	lsrs	r3, r3, #5
87802ea0:	2164      	movs	r1, #100	; 0x64
87802ea2:	fb01 f303 	mul.w	r3, r1, r3
87802ea6:	1ad3      	subs	r3, r2, r3
87802ea8:	b29b      	uxth	r3, r3
87802eaa:	2b00      	cmp	r3, #0
87802eac:	d002      	beq.n	87802eb4 <rtc_isleapyear+0x64>
87802eae:	2301      	movs	r3, #1
87802eb0:	73fb      	strb	r3, [r7, #15]
87802eb2:	e001      	b.n	87802eb8 <rtc_isleapyear+0x68>
87802eb4:	2300      	movs	r3, #0
87802eb6:	73fb      	strb	r3, [r7, #15]
87802eb8:	7bfb      	ldrb	r3, [r7, #15]
87802eba:	4618      	mov	r0, r3
87802ebc:	3714      	adds	r7, #20
87802ebe:	46bd      	mov	sp, r7
87802ec0:	f85d 7b04 	ldr.w	r7, [sp], #4
87802ec4:	4770      	bx	lr

87802ec6 <rtc_coverdate_to_seconds>:
87802ec6:	b5b0      	push	{r4, r5, r7, lr}
87802ec8:	b08c      	sub	sp, #48	; 0x30
87802eca:	af00      	add	r7, sp, #0
87802ecc:	6078      	str	r0, [r7, #4]
87802ece:	2300      	movs	r3, #0
87802ed0:	85fb      	strh	r3, [r7, #46]	; 0x2e
87802ed2:	2300      	movs	r3, #0
87802ed4:	627b      	str	r3, [r7, #36]	; 0x24
87802ed6:	2300      	movs	r3, #0
87802ed8:	62bb      	str	r3, [r7, #40]	; 0x28
87802eda:	4b32      	ldr	r3, [pc, #200]	; (87802fa4 <rtc_coverdate_to_seconds+0xde>)
87802edc:	447b      	add	r3, pc
87802ede:	f107 0408 	add.w	r4, r7, #8
87802ee2:	461d      	mov	r5, r3
87802ee4:	cd0f      	ldmia	r5!, {r0, r1, r2, r3}
87802ee6:	c40f      	stmia	r4!, {r0, r1, r2, r3}
87802ee8:	e895 0007 	ldmia.w	r5, {r0, r1, r2}
87802eec:	c403      	stmia	r4!, {r0, r1}
87802eee:	8022      	strh	r2, [r4, #0]
87802ef0:	f240 73b2 	movw	r3, #1970	; 0x7b2
87802ef4:	85fb      	strh	r3, [r7, #46]	; 0x2e
87802ef6:	e010      	b.n	87802f1a <rtc_coverdate_to_seconds+0x54>
87802ef8:	6abb      	ldr	r3, [r7, #40]	; 0x28
87802efa:	f203 136d 	addw	r3, r3, #365	; 0x16d
87802efe:	62bb      	str	r3, [r7, #40]	; 0x28
87802f00:	8dfb      	ldrh	r3, [r7, #46]	; 0x2e
87802f02:	4618      	mov	r0, r3
87802f04:	f7ff ffa4 	bl	87802e50 <rtc_isleapyear>
87802f08:	4603      	mov	r3, r0
87802f0a:	2b00      	cmp	r3, #0
87802f0c:	d002      	beq.n	87802f14 <rtc_coverdate_to_seconds+0x4e>
87802f0e:	6abb      	ldr	r3, [r7, #40]	; 0x28
87802f10:	3301      	adds	r3, #1
87802f12:	62bb      	str	r3, [r7, #40]	; 0x28
87802f14:	8dfb      	ldrh	r3, [r7, #46]	; 0x2e
87802f16:	3301      	adds	r3, #1
87802f18:	85fb      	strh	r3, [r7, #46]	; 0x2e
87802f1a:	687b      	ldr	r3, [r7, #4]
87802f1c:	881b      	ldrh	r3, [r3, #0]
87802f1e:	8dfa      	ldrh	r2, [r7, #46]	; 0x2e
87802f20:	429a      	cmp	r2, r3
87802f22:	d3e9      	bcc.n	87802ef8 <rtc_coverdate_to_seconds+0x32>
87802f24:	687b      	ldr	r3, [r7, #4]
87802f26:	789b      	ldrb	r3, [r3, #2]
87802f28:	005b      	lsls	r3, r3, #1
87802f2a:	3330      	adds	r3, #48	; 0x30
87802f2c:	443b      	add	r3, r7
87802f2e:	f833 3c28 	ldrh.w	r3, [r3, #-40]
87802f32:	461a      	mov	r2, r3
87802f34:	6abb      	ldr	r3, [r7, #40]	; 0x28
87802f36:	4413      	add	r3, r2
87802f38:	62bb      	str	r3, [r7, #40]	; 0x28
87802f3a:	8dfb      	ldrh	r3, [r7, #46]	; 0x2e
87802f3c:	4618      	mov	r0, r3
87802f3e:	f7ff ff87 	bl	87802e50 <rtc_isleapyear>
87802f42:	4603      	mov	r3, r0
87802f44:	2b00      	cmp	r3, #0
87802f46:	d006      	beq.n	87802f56 <rtc_coverdate_to_seconds+0x90>
87802f48:	687b      	ldr	r3, [r7, #4]
87802f4a:	789b      	ldrb	r3, [r3, #2]
87802f4c:	2b02      	cmp	r3, #2
87802f4e:	d902      	bls.n	87802f56 <rtc_coverdate_to_seconds+0x90>
87802f50:	6abb      	ldr	r3, [r7, #40]	; 0x28
87802f52:	3301      	adds	r3, #1
87802f54:	62bb      	str	r3, [r7, #40]	; 0x28
87802f56:	687b      	ldr	r3, [r7, #4]
87802f58:	78db      	ldrb	r3, [r3, #3]
87802f5a:	461a      	mov	r2, r3
87802f5c:	6abb      	ldr	r3, [r7, #40]	; 0x28
87802f5e:	4413      	add	r3, r2
87802f60:	3b01      	subs	r3, #1
87802f62:	62bb      	str	r3, [r7, #40]	; 0x28
87802f64:	6aba      	ldr	r2, [r7, #40]	; 0x28
87802f66:	f44f 43a3 	mov.w	r3, #20864	; 0x5180
87802f6a:	f2c0 0301 	movt	r3, #1
87802f6e:	fb02 f303 	mul.w	r3, r2, r3
87802f72:	687a      	ldr	r2, [r7, #4]
87802f74:	7912      	ldrb	r2, [r2, #4]
87802f76:	4611      	mov	r1, r2
87802f78:	f44f 6261 	mov.w	r2, #3600	; 0xe10
87802f7c:	fb01 f202 	mul.w	r2, r1, r2
87802f80:	4413      	add	r3, r2
87802f82:	687a      	ldr	r2, [r7, #4]
87802f84:	7952      	ldrb	r2, [r2, #5]
87802f86:	4611      	mov	r1, r2
87802f88:	223c      	movs	r2, #60	; 0x3c
87802f8a:	fb01 f202 	mul.w	r2, r1, r2
87802f8e:	4413      	add	r3, r2
87802f90:	687a      	ldr	r2, [r7, #4]
87802f92:	7992      	ldrb	r2, [r2, #6]
87802f94:	4413      	add	r3, r2
87802f96:	627b      	str	r3, [r7, #36]	; 0x24
87802f98:	6a7b      	ldr	r3, [r7, #36]	; 0x24
87802f9a:	4618      	mov	r0, r3
87802f9c:	3730      	adds	r7, #48	; 0x30
87802f9e:	46bd      	mov	sp, r7
87802fa0:	bdb0      	pop	{r4, r5, r7, pc}
87802fa2:	bf00      	nop
87802fa4:	000073cc 	andeq	r7, r0, ip, asr #7

87802fa8 <rtc_getseconds>:
87802fa8:	b480      	push	{r7}
87802faa:	b083      	sub	sp, #12
87802fac:	af00      	add	r7, sp, #0
87802fae:	2300      	movs	r3, #0
87802fb0:	607b      	str	r3, [r7, #4]
87802fb2:	f44f 4340 	mov.w	r3, #49152	; 0xc000
87802fb6:	f2c0 230c 	movt	r3, #524	; 0x20c
87802fba:	6d1b      	ldr	r3, [r3, #80]	; 0x50
87802fbc:	045a      	lsls	r2, r3, #17
87802fbe:	f44f 4340 	mov.w	r3, #49152	; 0xc000
87802fc2:	f2c0 230c 	movt	r3, #524	; 0x20c
87802fc6:	6d5b      	ldr	r3, [r3, #84]	; 0x54
87802fc8:	0bdb      	lsrs	r3, r3, #15
87802fca:	4313      	orrs	r3, r2
87802fcc:	607b      	str	r3, [r7, #4]
87802fce:	687b      	ldr	r3, [r7, #4]
87802fd0:	4618      	mov	r0, r3
87802fd2:	370c      	adds	r7, #12
87802fd4:	46bd      	mov	sp, r7
87802fd6:	f85d 7b04 	ldr.w	r7, [sp], #4
87802fda:	4770      	bx	lr

87802fdc <rtc_setdatetime>:
87802fdc:	b580      	push	{r7, lr}
87802fde:	b084      	sub	sp, #16
87802fe0:	af00      	add	r7, sp, #0
87802fe2:	6078      	str	r0, [r7, #4]
87802fe4:	2300      	movs	r3, #0
87802fe6:	60fb      	str	r3, [r7, #12]
87802fe8:	f44f 4340 	mov.w	r3, #49152	; 0xc000
87802fec:	f2c0 230c 	movt	r3, #524	; 0x20c
87802ff0:	6b9b      	ldr	r3, [r3, #56]	; 0x38
87802ff2:	60bb      	str	r3, [r7, #8]
87802ff4:	f7ff ff0e 	bl	87802e14 <rtc_disable>
87802ff8:	6878      	ldr	r0, [r7, #4]
87802ffa:	f7ff ff64 	bl	87802ec6 <rtc_coverdate_to_seconds>
87802ffe:	60f8      	str	r0, [r7, #12]
87803000:	f44f 4340 	mov.w	r3, #49152	; 0xc000
87803004:	f2c0 230c 	movt	r3, #524	; 0x20c
87803008:	68fa      	ldr	r2, [r7, #12]
8780300a:	0c52      	lsrs	r2, r2, #17
8780300c:	651a      	str	r2, [r3, #80]	; 0x50
8780300e:	f44f 4340 	mov.w	r3, #49152	; 0xc000
87803012:	f2c0 230c 	movt	r3, #524	; 0x20c
87803016:	68fa      	ldr	r2, [r7, #12]
87803018:	03d2      	lsls	r2, r2, #15
8780301a:	655a      	str	r2, [r3, #84]	; 0x54
8780301c:	68bb      	ldr	r3, [r7, #8]
8780301e:	f003 0301 	and.w	r3, r3, #1
87803022:	2b00      	cmp	r3, #0
87803024:	d001      	beq.n	8780302a <rtc_setdatetime+0x4e>
87803026:	f7ff fed7 	bl	87802dd8 <rtc_enable>
8780302a:	bf00      	nop
8780302c:	3710      	adds	r7, #16
8780302e:	46bd      	mov	sp, r7
87803030:	bd80      	pop	{r7, pc}

87803032 <rtc_convertseconds_to_datetime>:
87803032:	e92d 4ff0 	stmdb	sp!, {r4, r5, r6, r7, r8, r9, sl, fp, lr}
87803036:	b09b      	sub	sp, #108	; 0x6c
87803038:	af00      	add	r7, sp, #0
8780303a:	e9c7 010c 	strd	r0, r1, [r7, #48]	; 0x30
8780303e:	62fa      	str	r2, [r7, #44]	; 0x2c
87803040:	4b77      	ldr	r3, [pc, #476]	; (87803220 <rtc_convertseconds_to_datetime+0x1ee>)
87803042:	447b      	add	r3, pc
87803044:	f107 0438 	add.w	r4, r7, #56	; 0x38
87803048:	cb0f      	ldmia	r3, {r0, r1, r2, r3}
8780304a:	c407      	stmia	r4!, {r0, r1, r2}
8780304c:	7023      	strb	r3, [r4, #0]
8780304e:	e9d7 230c 	ldrd	r2, r3, [r7, #48]	; 0x30
87803052:	e9c7 2312 	strd	r2, r3, [r7, #72]	; 0x48
87803056:	e9d7 0112 	ldrd	r0, r1, [r7, #72]	; 0x48
8780305a:	f44f 42a3 	mov.w	r2, #20864	; 0x5180
8780305e:	f2c0 0201 	movt	r2, #1
87803062:	f04f 0300 	mov.w	r3, #0
87803066:	f002 fc9b 	bl	878059a0 <__aeabi_uldivmod>
8780306a:	4602      	mov	r2, r0
8780306c:	460b      	mov	r3, r1
8780306e:	f112 0801 	adds.w	r8, r2, #1
87803072:	f143 0900 	adc.w	r9, r3, #0
87803076:	e9c7 8916 	strd	r8, r9, [r7, #88]	; 0x58
8780307a:	e9d7 0112 	ldrd	r0, r1, [r7, #72]	; 0x48
8780307e:	f44f 42a3 	mov.w	r2, #20864	; 0x5180
87803082:	f2c0 0201 	movt	r2, #1
87803086:	f04f 0300 	mov.w	r3, #0
8780308a:	f002 fc89 	bl	878059a0 <__aeabi_uldivmod>
8780308e:	e9c7 2312 	strd	r2, r3, [r7, #72]	; 0x48
87803092:	e9d7 0112 	ldrd	r0, r1, [r7, #72]	; 0x48
87803096:	f44f 6261 	mov.w	r2, #3600	; 0xe10
8780309a:	f04f 0300 	mov.w	r3, #0
8780309e:	f002 fc7f 	bl	878059a0 <__aeabi_uldivmod>
878030a2:	4602      	mov	r2, r0
878030a4:	460b      	mov	r3, r1
878030a6:	b2d3      	uxtb	r3, r2
878030a8:	6afa      	ldr	r2, [r7, #44]	; 0x2c
878030aa:	7113      	strb	r3, [r2, #4]
878030ac:	e9d7 0112 	ldrd	r0, r1, [r7, #72]	; 0x48
878030b0:	f44f 6261 	mov.w	r2, #3600	; 0xe10
878030b4:	f04f 0300 	mov.w	r3, #0
878030b8:	f002 fc72 	bl	878059a0 <__aeabi_uldivmod>
878030bc:	e9c7 2312 	strd	r2, r3, [r7, #72]	; 0x48
878030c0:	e9d7 0112 	ldrd	r0, r1, [r7, #72]	; 0x48
878030c4:	f04f 023c 	mov.w	r2, #60	; 0x3c
878030c8:	f04f 0300 	mov.w	r3, #0
878030cc:	f002 fc68 	bl	878059a0 <__aeabi_uldivmod>
878030d0:	4602      	mov	r2, r0
878030d2:	460b      	mov	r3, r1
878030d4:	b2d3      	uxtb	r3, r2
878030d6:	6afa      	ldr	r2, [r7, #44]	; 0x2c
878030d8:	7153      	strb	r3, [r2, #5]
878030da:	e9d7 0112 	ldrd	r0, r1, [r7, #72]	; 0x48
878030de:	f04f 023c 	mov.w	r2, #60	; 0x3c
878030e2:	f04f 0300 	mov.w	r3, #0
878030e6:	f002 fc5b 	bl	878059a0 <__aeabi_uldivmod>
878030ea:	b2d3      	uxtb	r3, r2
878030ec:	6afa      	ldr	r2, [r7, #44]	; 0x2c
878030ee:	7193      	strb	r3, [r2, #6]
878030f0:	f240 136d 	movw	r3, #365	; 0x16d
878030f4:	f8a7 3056 	strh.w	r3, [r7, #86]	; 0x56
878030f8:	6afa      	ldr	r2, [r7, #44]	; 0x2c
878030fa:	f240 73b2 	movw	r3, #1970	; 0x7b2
878030fe:	8013      	strh	r3, [r2, #0]
87803100:	e02a      	b.n	87803158 <rtc_convertseconds_to_datetime+0x126>
87803102:	f8b7 3056 	ldrh.w	r3, [r7, #86]	; 0x56
87803106:	2200      	movs	r2, #0
87803108:	623b      	str	r3, [r7, #32]
8780310a:	627a      	str	r2, [r7, #36]	; 0x24
8780310c:	e9d7 2316 	ldrd	r2, r3, [r7, #88]	; 0x58
87803110:	e9d7 8908 	ldrd	r8, r9, [r7, #32]
87803114:	4641      	mov	r1, r8
87803116:	1a51      	subs	r1, r2, r1
87803118:	6139      	str	r1, [r7, #16]
8780311a:	4649      	mov	r1, r9
8780311c:	eb63 0301 	sbc.w	r3, r3, r1
87803120:	617b      	str	r3, [r7, #20]
87803122:	e9d7 3404 	ldrd	r3, r4, [r7, #16]
87803126:	e9c7 3416 	strd	r3, r4, [r7, #88]	; 0x58
8780312a:	6afb      	ldr	r3, [r7, #44]	; 0x2c
8780312c:	881b      	ldrh	r3, [r3, #0]
8780312e:	3301      	adds	r3, #1
87803130:	b29b      	uxth	r3, r3
87803132:	6afa      	ldr	r2, [r7, #44]	; 0x2c
87803134:	8013      	strh	r3, [r2, #0]
87803136:	6afb      	ldr	r3, [r7, #44]	; 0x2c
87803138:	881b      	ldrh	r3, [r3, #0]
8780313a:	4618      	mov	r0, r3
8780313c:	f7ff fe88 	bl	87802e50 <rtc_isleapyear>
87803140:	4603      	mov	r3, r0
87803142:	2b00      	cmp	r3, #0
87803144:	d104      	bne.n	87803150 <rtc_convertseconds_to_datetime+0x11e>
87803146:	f240 136d 	movw	r3, #365	; 0x16d
8780314a:	f8a7 3056 	strh.w	r3, [r7, #86]	; 0x56
8780314e:	e003      	b.n	87803158 <rtc_convertseconds_to_datetime+0x126>
87803150:	f44f 73b7 	mov.w	r3, #366	; 0x16e
87803154:	f8a7 3056 	strh.w	r3, [r7, #86]	; 0x56
87803158:	f8b7 3056 	ldrh.w	r3, [r7, #86]	; 0x56
8780315c:	2200      	movs	r2, #0
8780315e:	61bb      	str	r3, [r7, #24]
87803160:	61fa      	str	r2, [r7, #28]
87803162:	e9d7 2316 	ldrd	r2, r3, [r7, #88]	; 0x58
87803166:	e9d7 8906 	ldrd	r8, r9, [r7, #24]
8780316a:	4641      	mov	r1, r8
8780316c:	4291      	cmp	r1, r2
8780316e:	4649      	mov	r1, r9
87803170:	eb71 0303 	sbcs.w	r3, r1, r3
87803174:	d3c5      	bcc.n	87803102 <rtc_convertseconds_to_datetime+0xd0>
87803176:	6afb      	ldr	r3, [r7, #44]	; 0x2c
87803178:	881b      	ldrh	r3, [r3, #0]
8780317a:	4618      	mov	r0, r3
8780317c:	f7ff fe68 	bl	87802e50 <rtc_isleapyear>
87803180:	4603      	mov	r3, r0
87803182:	2b00      	cmp	r3, #0
87803184:	d002      	beq.n	8780318c <rtc_convertseconds_to_datetime+0x15a>
87803186:	231d      	movs	r3, #29
87803188:	f887 303a 	strb.w	r3, [r7, #58]	; 0x3a
8780318c:	f04f 0201 	mov.w	r2, #1
87803190:	f04f 0300 	mov.w	r3, #0
87803194:	e9c7 2318 	strd	r2, r3, [r7, #96]	; 0x60
87803198:	e032      	b.n	87803200 <rtc_convertseconds_to_datetime+0x1ce>
8780319a:	f107 0238 	add.w	r2, r7, #56	; 0x38
8780319e:	6e3b      	ldr	r3, [r7, #96]	; 0x60
878031a0:	4413      	add	r3, r2
878031a2:	781b      	ldrb	r3, [r3, #0]
878031a4:	b2db      	uxtb	r3, r3
878031a6:	2200      	movs	r2, #0
878031a8:	469a      	mov	sl, r3
878031aa:	4693      	mov	fp, r2
878031ac:	e9d7 2316 	ldrd	r2, r3, [r7, #88]	; 0x58
878031b0:	4592      	cmp	sl, r2
878031b2:	eb7b 0303 	sbcs.w	r3, fp, r3
878031b6:	d304      	bcc.n	878031c2 <rtc_convertseconds_to_datetime+0x190>
878031b8:	f897 2060 	ldrb.w	r2, [r7, #96]	; 0x60
878031bc:	6afb      	ldr	r3, [r7, #44]	; 0x2c
878031be:	709a      	strb	r2, [r3, #2]
878031c0:	e024      	b.n	8780320c <rtc_convertseconds_to_datetime+0x1da>
878031c2:	f107 0238 	add.w	r2, r7, #56	; 0x38
878031c6:	6e3b      	ldr	r3, [r7, #96]	; 0x60
878031c8:	4413      	add	r3, r2
878031ca:	781b      	ldrb	r3, [r3, #0]
878031cc:	b2db      	uxtb	r3, r3
878031ce:	2200      	movs	r2, #0
878031d0:	461d      	mov	r5, r3
878031d2:	4616      	mov	r6, r2
878031d4:	e9d7 2316 	ldrd	r2, r3, [r7, #88]	; 0x58
878031d8:	1b51      	subs	r1, r2, r5
878031da:	60b9      	str	r1, [r7, #8]
878031dc:	eb63 0306 	sbc.w	r3, r3, r6
878031e0:	60fb      	str	r3, [r7, #12]
878031e2:	e9d7 3402 	ldrd	r3, r4, [r7, #8]
878031e6:	e9c7 3416 	strd	r3, r4, [r7, #88]	; 0x58
878031ea:	e9d7 2318 	ldrd	r2, r3, [r7, #96]	; 0x60
878031ee:	1c51      	adds	r1, r2, #1
878031f0:	6039      	str	r1, [r7, #0]
878031f2:	f143 0300 	adc.w	r3, r3, #0
878031f6:	607b      	str	r3, [r7, #4]
878031f8:	e9d7 3400 	ldrd	r3, r4, [r7]
878031fc:	e9c7 3418 	strd	r3, r4, [r7, #96]	; 0x60
87803200:	e9d7 2318 	ldrd	r2, r3, [r7, #96]	; 0x60
87803204:	2a0d      	cmp	r2, #13
87803206:	f173 0300 	sbcs.w	r3, r3, #0
8780320a:	d3c6      	bcc.n	8780319a <rtc_convertseconds_to_datetime+0x168>
8780320c:	f897 2058 	ldrb.w	r2, [r7, #88]	; 0x58
87803210:	6afb      	ldr	r3, [r7, #44]	; 0x2c
87803212:	70da      	strb	r2, [r3, #3]
87803214:	bf00      	nop
87803216:	376c      	adds	r7, #108	; 0x6c
87803218:	46bd      	mov	sp, r7
8780321a:	e8bd 8ff0 	ldmia.w	sp!, {r4, r5, r6, r7, r8, r9, sl, fp, pc}
8780321e:	bf00      	nop
87803220:	00007282 	andeq	r7, r0, r2, lsl #5

87803224 <rtc_getdatetime>:
87803224:	b5b0      	push	{r4, r5, r7, lr}
87803226:	b084      	sub	sp, #16
87803228:	af00      	add	r7, sp, #0
8780322a:	6078      	str	r0, [r7, #4]
8780322c:	f7ff febc 	bl	87802fa8 <rtc_getseconds>
87803230:	4603      	mov	r3, r0
87803232:	2200      	movs	r2, #0
87803234:	461c      	mov	r4, r3
87803236:	4615      	mov	r5, r2
87803238:	e9c7 4502 	strd	r4, r5, [r7, #8]
8780323c:	687a      	ldr	r2, [r7, #4]
8780323e:	e9d7 0102 	ldrd	r0, r1, [r7, #8]
87803242:	f7ff fef6 	bl	87803032 <rtc_convertseconds_to_datetime>
87803246:	bf00      	nop
87803248:	3710      	adds	r7, #16
8780324a:	46bd      	mov	sp, r7
8780324c:	bdb0      	pop	{r4, r5, r7, pc}
8780324e:	bf00      	nop

87803250 <__div64_32>:
87803250:	e92d 4fb0 	stmdb	sp!, {r4, r5, r7, r8, r9, sl, fp, lr}
87803254:	b096      	sub	sp, #88	; 0x58
87803256:	af00      	add	r7, sp, #0
87803258:	62f8      	str	r0, [r7, #44]	; 0x2c
8780325a:	62b9      	str	r1, [r7, #40]	; 0x28
8780325c:	6afb      	ldr	r3, [r7, #44]	; 0x2c
8780325e:	e9d3 2300 	ldrd	r2, r3, [r3]
87803262:	e9c7 2314 	strd	r2, r3, [r7, #80]	; 0x50
87803266:	6abb      	ldr	r3, [r7, #40]	; 0x28
87803268:	2200      	movs	r2, #0
8780326a:	461c      	mov	r4, r3
8780326c:	4615      	mov	r5, r2
8780326e:	e9c7 4512 	strd	r4, r5, [r7, #72]	; 0x48
87803272:	f04f 0201 	mov.w	r2, #1
87803276:	f04f 0300 	mov.w	r3, #0
8780327a:	e9c7 230e 	strd	r2, r3, [r7, #56]	; 0x38
8780327e:	e9d7 2314 	ldrd	r2, r3, [r7, #80]	; 0x50
87803282:	f04f 0000 	mov.w	r0, #0
87803286:	f04f 0100 	mov.w	r1, #0
8780328a:	0018      	movs	r0, r3
8780328c:	2100      	movs	r1, #0
8780328e:	4603      	mov	r3, r0
87803290:	637b      	str	r3, [r7, #52]	; 0x34
87803292:	f04f 0200 	mov.w	r2, #0
87803296:	f04f 0300 	mov.w	r3, #0
8780329a:	e9c7 2310 	strd	r2, r3, [r7, #64]	; 0x40
8780329e:	6b7a      	ldr	r2, [r7, #52]	; 0x34
878032a0:	6abb      	ldr	r3, [r7, #40]	; 0x28
878032a2:	429a      	cmp	r2, r3
878032a4:	d340      	bcc.n	87803328 <__div64_32+0xd8>
878032a6:	6ab9      	ldr	r1, [r7, #40]	; 0x28
878032a8:	6b78      	ldr	r0, [r7, #52]	; 0x34
878032aa:	f002 fa3d 	bl	87805728 <__udivsi3>
878032ae:	4603      	mov	r3, r0
878032b0:	637b      	str	r3, [r7, #52]	; 0x34
878032b2:	6b7b      	ldr	r3, [r7, #52]	; 0x34
878032b4:	2200      	movs	r2, #0
878032b6:	623b      	str	r3, [r7, #32]
878032b8:	627a      	str	r2, [r7, #36]	; 0x24
878032ba:	f04f 0200 	mov.w	r2, #0
878032be:	f04f 0300 	mov.w	r3, #0
878032c2:	6a39      	ldr	r1, [r7, #32]
878032c4:	000b      	movs	r3, r1
878032c6:	2200      	movs	r2, #0
878032c8:	e9c7 2310 	strd	r2, r3, [r7, #64]	; 0x40
878032cc:	6b7b      	ldr	r3, [r7, #52]	; 0x34
878032ce:	6aba      	ldr	r2, [r7, #40]	; 0x28
878032d0:	fb02 f303 	mul.w	r3, r2, r3
878032d4:	2200      	movs	r2, #0
878032d6:	61bb      	str	r3, [r7, #24]
878032d8:	61fa      	str	r2, [r7, #28]
878032da:	f04f 0200 	mov.w	r2, #0
878032de:	f04f 0300 	mov.w	r3, #0
878032e2:	69b9      	ldr	r1, [r7, #24]
878032e4:	000b      	movs	r3, r1
878032e6:	2200      	movs	r2, #0
878032e8:	e9d7 0114 	ldrd	r0, r1, [r7, #80]	; 0x50
878032ec:	1a84      	subs	r4, r0, r2
878032ee:	613c      	str	r4, [r7, #16]
878032f0:	eb61 0303 	sbc.w	r3, r1, r3
878032f4:	617b      	str	r3, [r7, #20]
878032f6:	e9d7 3404 	ldrd	r3, r4, [r7, #16]
878032fa:	e9c7 3414 	strd	r3, r4, [r7, #80]	; 0x50
878032fe:	e013      	b.n	87803328 <__div64_32+0xd8>
87803300:	e9d7 2312 	ldrd	r2, r3, [r7, #72]	; 0x48
87803304:	1891      	adds	r1, r2, r2
87803306:	60b9      	str	r1, [r7, #8]
87803308:	415b      	adcs	r3, r3
8780330a:	60fb      	str	r3, [r7, #12]
8780330c:	e9d7 3402 	ldrd	r3, r4, [r7, #8]
87803310:	e9c7 3412 	strd	r3, r4, [r7, #72]	; 0x48
87803314:	e9d7 230e 	ldrd	r2, r3, [r7, #56]	; 0x38
87803318:	1891      	adds	r1, r2, r2
8780331a:	6039      	str	r1, [r7, #0]
8780331c:	415b      	adcs	r3, r3
8780331e:	607b      	str	r3, [r7, #4]
87803320:	e9d7 3400 	ldrd	r3, r4, [r7]
87803324:	e9c7 340e 	strd	r3, r4, [r7, #56]	; 0x38
87803328:	e9d7 2312 	ldrd	r2, r3, [r7, #72]	; 0x48
8780332c:	2a01      	cmp	r2, #1
8780332e:	f173 0300 	sbcs.w	r3, r3, #0
87803332:	db07      	blt.n	87803344 <__div64_32+0xf4>
87803334:	e9d7 0112 	ldrd	r0, r1, [r7, #72]	; 0x48
87803338:	e9d7 2314 	ldrd	r2, r3, [r7, #80]	; 0x50
8780333c:	4290      	cmp	r0, r2
8780333e:	eb71 0303 	sbcs.w	r3, r1, r3
87803342:	d3dd      	bcc.n	87803300 <__div64_32+0xb0>
87803344:	e9d7 0114 	ldrd	r0, r1, [r7, #80]	; 0x50
87803348:	e9d7 2312 	ldrd	r2, r3, [r7, #72]	; 0x48
8780334c:	4290      	cmp	r0, r2
8780334e:	eb71 0303 	sbcs.w	r3, r1, r3
87803352:	d313      	bcc.n	8780337c <__div64_32+0x12c>
87803354:	e9d7 0114 	ldrd	r0, r1, [r7, #80]	; 0x50
87803358:	e9d7 2312 	ldrd	r2, r3, [r7, #72]	; 0x48
8780335c:	ebb0 0802 	subs.w	r8, r0, r2
87803360:	eb61 0903 	sbc.w	r9, r1, r3
87803364:	e9c7 8914 	strd	r8, r9, [r7, #80]	; 0x50
87803368:	e9d7 0110 	ldrd	r0, r1, [r7, #64]	; 0x40
8780336c:	e9d7 230e 	ldrd	r2, r3, [r7, #56]	; 0x38
87803370:	eb10 0a02 	adds.w	sl, r0, r2
87803374:	eb41 0b03 	adc.w	fp, r1, r3
87803378:	e9c7 ab10 	strd	sl, fp, [r7, #64]	; 0x40
8780337c:	e9d7 0112 	ldrd	r0, r1, [r7, #72]	; 0x48
87803380:	f04f 0200 	mov.w	r2, #0
87803384:	f04f 0300 	mov.w	r3, #0
87803388:	0842      	lsrs	r2, r0, #1
8780338a:	ea42 72c1 	orr.w	r2, r2, r1, lsl #31
8780338e:	084b      	lsrs	r3, r1, #1
87803390:	e9c7 2312 	strd	r2, r3, [r7, #72]	; 0x48
87803394:	e9d7 010e 	ldrd	r0, r1, [r7, #56]	; 0x38
87803398:	f04f 0200 	mov.w	r2, #0
8780339c:	f04f 0300 	mov.w	r3, #0
878033a0:	0842      	lsrs	r2, r0, #1
878033a2:	ea42 72c1 	orr.w	r2, r2, r1, lsl #31
878033a6:	084b      	lsrs	r3, r1, #1
878033a8:	e9c7 230e 	strd	r2, r3, [r7, #56]	; 0x38
878033ac:	e9d7 230e 	ldrd	r2, r3, [r7, #56]	; 0x38
878033b0:	4313      	orrs	r3, r2
878033b2:	d1c7      	bne.n	87803344 <__div64_32+0xf4>
878033b4:	6af9      	ldr	r1, [r7, #44]	; 0x2c
878033b6:	e9d7 2310 	ldrd	r2, r3, [r7, #64]	; 0x40
878033ba:	e9c1 2300 	strd	r2, r3, [r1]
878033be:	6d3b      	ldr	r3, [r7, #80]	; 0x50
878033c0:	4618      	mov	r0, r3
878033c2:	3758      	adds	r7, #88	; 0x58
878033c4:	46bd      	mov	sp, r7
878033c6:	e8bd 8fb0 	ldmia.w	sp!, {r4, r5, r7, r8, r9, sl, fp, pc}

878033ca <__muldi3>:
878033ca:	b490      	push	{r4, r7}
878033cc:	b08c      	sub	sp, #48	; 0x30
878033ce:	af00      	add	r7, sp, #0
878033d0:	e9c7 0102 	strd	r0, r1, [r7, #8]
878033d4:	e9c7 2300 	strd	r2, r3, [r7]
878033d8:	e9d7 2302 	ldrd	r2, r3, [r7, #8]
878033dc:	e9c7 2308 	strd	r2, r3, [r7, #32]
878033e0:	e9d7 2300 	ldrd	r2, r3, [r7]
878033e4:	e9c7 2306 	strd	r2, r3, [r7, #24]
878033e8:	6a3b      	ldr	r3, [r7, #32]
878033ea:	69ba      	ldr	r2, [r7, #24]
878033ec:	4611      	mov	r1, r2
878033ee:	ea4f 4013 	mov.w	r0, r3, lsr #16
878033f2:	ea4f 4211 	mov.w	r2, r1, lsr #16
878033f6:	ea23 4400 	bic.w	r4, r3, r0, lsl #16
878033fa:	ea21 4102 	bic.w	r1, r1, r2, lsl #16
878033fe:	fb04 f301 	mul.w	r3, r4, r1
87803402:	fb00 f101 	mul.w	r1, r0, r1
87803406:	fb02 f404 	mul.w	r4, r2, r4
8780340a:	fb00 f202 	mul.w	r2, r0, r2
8780340e:	190c      	adds	r4, r1, r4
87803410:	bf28      	it	cs
87803412:	f502 3280 	addcs.w	r2, r2, #65536	; 0x10000
87803416:	eb13 4304 	adds.w	r3, r3, r4, lsl #16
8780341a:	eb42 4214 	adc.w	r2, r2, r4, lsr #16
8780341e:	617a      	str	r2, [r7, #20]
87803420:	613b      	str	r3, [r7, #16]
87803422:	e9d7 2304 	ldrd	r2, r3, [r7, #16]
87803426:	e9c7 230a 	strd	r2, r3, [r7, #40]	; 0x28
8780342a:	6afb      	ldr	r3, [r7, #44]	; 0x2c
8780342c:	4619      	mov	r1, r3
8780342e:	6a3b      	ldr	r3, [r7, #32]
87803430:	69fa      	ldr	r2, [r7, #28]
87803432:	fb03 f202 	mul.w	r2, r3, r2
87803436:	6a7b      	ldr	r3, [r7, #36]	; 0x24
87803438:	69b8      	ldr	r0, [r7, #24]
8780343a:	fb00 f303 	mul.w	r3, r0, r3
8780343e:	4413      	add	r3, r2
87803440:	440b      	add	r3, r1
87803442:	62fb      	str	r3, [r7, #44]	; 0x2c
87803444:	e9d7 230a 	ldrd	r2, r3, [r7, #40]	; 0x28
87803448:	4610      	mov	r0, r2
8780344a:	4619      	mov	r1, r3
8780344c:	3730      	adds	r7, #48	; 0x30
8780344e:	46bd      	mov	sp, r7
87803450:	bc90      	pop	{r4, r7}
87803452:	4770      	bx	lr

87803454 <printf>:
87803454:	b40f      	push	{r0, r1, r2, r3}
87803456:	b580      	push	{r7, lr}
87803458:	b084      	sub	sp, #16
8780345a:	af00      	add	r7, sp, #0
8780345c:	f107 031c 	add.w	r3, r7, #28
87803460:	60bb      	str	r3, [r7, #8]
87803462:	69bb      	ldr	r3, [r7, #24]
87803464:	68ba      	ldr	r2, [r7, #8]
87803466:	4619      	mov	r1, r3
87803468:	4b12      	ldr	r3, [pc, #72]	; (878034b4 <printf+0x60>)
8780346a:	447b      	add	r3, pc
8780346c:	4618      	mov	r0, r3
8780346e:	f001 fcd4 	bl	87804e1a <vsprintf>
87803472:	6078      	str	r0, [r7, #4]
87803474:	2300      	movs	r3, #0
87803476:	60fb      	str	r3, [r7, #12]
87803478:	e00a      	b.n	87803490 <printf+0x3c>
8780347a:	4a0f      	ldr	r2, [pc, #60]	; (878034b8 <printf+0x64>)
8780347c:	447a      	add	r2, pc
8780347e:	68fb      	ldr	r3, [r7, #12]
87803480:	4413      	add	r3, r2
87803482:	781b      	ldrb	r3, [r3, #0]
87803484:	4618      	mov	r0, r3
87803486:	f7fd ff6c 	bl	87801362 <putc>
8780348a:	68fb      	ldr	r3, [r7, #12]
8780348c:	3301      	adds	r3, #1
8780348e:	60fb      	str	r3, [r7, #12]
87803490:	4b0a      	ldr	r3, [pc, #40]	; (878034bc <printf+0x68>)
87803492:	447b      	add	r3, pc
87803494:	4618      	mov	r0, r3
87803496:	f000 f9c1 	bl	8780381c <strlen>
8780349a:	4602      	mov	r2, r0
8780349c:	68fb      	ldr	r3, [r7, #12]
8780349e:	429a      	cmp	r2, r3
878034a0:	d8eb      	bhi.n	8780347a <printf+0x26>
878034a2:	687b      	ldr	r3, [r7, #4]
878034a4:	4618      	mov	r0, r3
878034a6:	3710      	adds	r7, #16
878034a8:	46bd      	mov	sp, r7
878034aa:	e8bd 4080 	ldmia.w	sp!, {r7, lr}
878034ae:	b004      	add	sp, #16
878034b0:	4770      	bx	lr
878034b2:	bf00      	nop
878034b4:	00006fca 	andeq	r6, r0, sl, asr #31
878034b8:	00006fb8 			; <UNDEFINED> instruction: 0x00006fb8
878034bc:	00006fa2 	andeq	r6, r0, r2, lsr #31

878034c0 <scanf>:
878034c0:	b40f      	push	{r0, r1, r2, r3}
878034c2:	b580      	push	{r7, lr}
878034c4:	b084      	sub	sp, #16
878034c6:	af00      	add	r7, sp, #0
878034c8:	2300      	movs	r3, #0
878034ca:	60fb      	str	r3, [r7, #12]
878034cc:	f7fd ff7a 	bl	878013c4 <getc>
878034d0:	4603      	mov	r3, r0
878034d2:	72fb      	strb	r3, [r7, #11]
878034d4:	7afb      	ldrb	r3, [r7, #11]
878034d6:	4618      	mov	r0, r3
878034d8:	f7fd ff43 	bl	87801362 <putc>
878034dc:	7afb      	ldrb	r3, [r7, #11]
878034de:	2b0d      	cmp	r3, #13
878034e0:	d002      	beq.n	878034e8 <scanf+0x28>
878034e2:	7afb      	ldrb	r3, [r7, #11]
878034e4:	2b0a      	cmp	r3, #10
878034e6:	d106      	bne.n	878034f6 <scanf+0x36>
878034e8:	4a11      	ldr	r2, [pc, #68]	; (87803530 <scanf+0x70>)
878034ea:	447a      	add	r2, pc
878034ec:	68fb      	ldr	r3, [r7, #12]
878034ee:	4413      	add	r3, r2
878034f0:	2200      	movs	r2, #0
878034f2:	701a      	strb	r2, [r3, #0]
878034f4:	e007      	b.n	87803506 <scanf+0x46>
878034f6:	68fb      	ldr	r3, [r7, #12]
878034f8:	1c5a      	adds	r2, r3, #1
878034fa:	60fa      	str	r2, [r7, #12]
878034fc:	4a0d      	ldr	r2, [pc, #52]	; (87803534 <scanf+0x74>)
878034fe:	447a      	add	r2, pc
87803500:	7af9      	ldrb	r1, [r7, #11]
87803502:	54d1      	strb	r1, [r2, r3]
87803504:	e7e2      	b.n	878034cc <scanf+0xc>
87803506:	f107 031c 	add.w	r3, r7, #28
8780350a:	607b      	str	r3, [r7, #4]
8780350c:	69bb      	ldr	r3, [r7, #24]
8780350e:	687a      	ldr	r2, [r7, #4]
87803510:	4619      	mov	r1, r3
87803512:	4b09      	ldr	r3, [pc, #36]	; (87803538 <scanf+0x78>)
87803514:	447b      	add	r3, pc
87803516:	4618      	mov	r0, r3
87803518:	f001 fca8 	bl	87804e6c <vsscanf>
8780351c:	60f8      	str	r0, [r7, #12]
8780351e:	68fb      	ldr	r3, [r7, #12]
87803520:	4618      	mov	r0, r3
87803522:	3710      	adds	r7, #16
87803524:	46bd      	mov	sp, r7
87803526:	e8bd 4080 	ldmia.w	sp!, {r7, lr}
8780352a:	b004      	add	sp, #16
8780352c:	4770      	bx	lr
8780352e:	bf00      	nop
87803530:	0000734a 	andeq	r7, r0, sl, asr #6
87803534:	00007336 	andeq	r7, r0, r6, lsr r3
87803538:	00007320 	andeq	r7, r0, r0, lsr #6

8780353c <__tolower>:
8780353c:	b480      	push	{r7}
8780353e:	b083      	sub	sp, #12
87803540:	af00      	add	r7, sp, #0
87803542:	4603      	mov	r3, r0
87803544:	71fb      	strb	r3, [r7, #7]
87803546:	490a      	ldr	r1, [pc, #40]	; (87803570 <__tolower+0x34>)
87803548:	4479      	add	r1, pc
8780354a:	79fb      	ldrb	r3, [r7, #7]
8780354c:	4a09      	ldr	r2, [pc, #36]	; (87803574 <__tolower+0x38>)
8780354e:	588a      	ldr	r2, [r1, r2]
87803550:	5cd3      	ldrb	r3, [r2, r3]
87803552:	f003 0301 	and.w	r3, r3, #1
87803556:	2b00      	cmp	r3, #0
87803558:	d002      	beq.n	87803560 <__tolower+0x24>
8780355a:	79fb      	ldrb	r3, [r7, #7]
8780355c:	3320      	adds	r3, #32
8780355e:	71fb      	strb	r3, [r7, #7]
87803560:	79fb      	ldrb	r3, [r7, #7]
87803562:	4618      	mov	r0, r3
87803564:	370c      	adds	r7, #12
87803566:	46bd      	mov	sp, r7
87803568:	f85d 7b04 	ldr.w	r7, [sp], #4
8780356c:	4770      	bx	lr
8780356e:	bf00      	nop
87803570:	00006eb0 			; <UNDEFINED> instruction: 0x00006eb0
87803574:	00000000 	andeq	r0, r0, r0

87803578 <strnicmp>:
87803578:	b580      	push	{r7, lr}
8780357a:	b086      	sub	sp, #24
8780357c:	af00      	add	r7, sp, #0
8780357e:	60f8      	str	r0, [r7, #12]
87803580:	60b9      	str	r1, [r7, #8]
87803582:	607a      	str	r2, [r7, #4]
87803584:	2300      	movs	r3, #0
87803586:	75fb      	strb	r3, [r7, #23]
87803588:	2300      	movs	r3, #0
8780358a:	75bb      	strb	r3, [r7, #22]
8780358c:	687b      	ldr	r3, [r7, #4]
8780358e:	2b00      	cmp	r3, #0
87803590:	d033      	beq.n	878035fa <strnicmp+0x82>
87803592:	68fb      	ldr	r3, [r7, #12]
87803594:	781b      	ldrb	r3, [r3, #0]
87803596:	75fb      	strb	r3, [r7, #23]
87803598:	68bb      	ldr	r3, [r7, #8]
8780359a:	781b      	ldrb	r3, [r3, #0]
8780359c:	75bb      	strb	r3, [r7, #22]
8780359e:	68fb      	ldr	r3, [r7, #12]
878035a0:	3301      	adds	r3, #1
878035a2:	60fb      	str	r3, [r7, #12]
878035a4:	68bb      	ldr	r3, [r7, #8]
878035a6:	3301      	adds	r3, #1
878035a8:	60bb      	str	r3, [r7, #8]
878035aa:	7dfb      	ldrb	r3, [r7, #23]
878035ac:	2b00      	cmp	r3, #0
878035ae:	d01f      	beq.n	878035f0 <strnicmp+0x78>
878035b0:	7dbb      	ldrb	r3, [r7, #22]
878035b2:	2b00      	cmp	r3, #0
878035b4:	d01e      	beq.n	878035f4 <strnicmp+0x7c>
878035b6:	7dfa      	ldrb	r2, [r7, #23]
878035b8:	7dbb      	ldrb	r3, [r7, #22]
878035ba:	429a      	cmp	r2, r3
878035bc:	d010      	beq.n	878035e0 <strnicmp+0x68>
878035be:	7dfb      	ldrb	r3, [r7, #23]
878035c0:	4618      	mov	r0, r3
878035c2:	f7ff ffbb 	bl	8780353c <__tolower>
878035c6:	4603      	mov	r3, r0
878035c8:	75fb      	strb	r3, [r7, #23]
878035ca:	7dbb      	ldrb	r3, [r7, #22]
878035cc:	4618      	mov	r0, r3
878035ce:	f7ff ffb5 	bl	8780353c <__tolower>
878035d2:	4603      	mov	r3, r0
878035d4:	75bb      	strb	r3, [r7, #22]
878035d6:	7dfa      	ldrb	r2, [r7, #23]
878035d8:	7dbb      	ldrb	r3, [r7, #22]
878035da:	429a      	cmp	r2, r3
878035dc:	d10c      	bne.n	878035f8 <strnicmp+0x80>
878035de:	e000      	b.n	878035e2 <strnicmp+0x6a>
878035e0:	bf00      	nop
878035e2:	687b      	ldr	r3, [r7, #4]
878035e4:	3b01      	subs	r3, #1
878035e6:	607b      	str	r3, [r7, #4]
878035e8:	687b      	ldr	r3, [r7, #4]
878035ea:	2b00      	cmp	r3, #0
878035ec:	d1d1      	bne.n	87803592 <strnicmp+0x1a>
878035ee:	e004      	b.n	878035fa <strnicmp+0x82>
878035f0:	bf00      	nop
878035f2:	e002      	b.n	878035fa <strnicmp+0x82>
878035f4:	bf00      	nop
878035f6:	e000      	b.n	878035fa <strnicmp+0x82>
878035f8:	bf00      	nop
878035fa:	7dfa      	ldrb	r2, [r7, #23]
878035fc:	7dbb      	ldrb	r3, [r7, #22]
878035fe:	1ad3      	subs	r3, r2, r3
87803600:	4618      	mov	r0, r3
87803602:	3718      	adds	r7, #24
87803604:	46bd      	mov	sp, r7
87803606:	bd80      	pop	{r7, pc}

87803608 <strcpy>:
87803608:	b480      	push	{r7}
8780360a:	b085      	sub	sp, #20
8780360c:	af00      	add	r7, sp, #0
8780360e:	6078      	str	r0, [r7, #4]
87803610:	6039      	str	r1, [r7, #0]
87803612:	687b      	ldr	r3, [r7, #4]
87803614:	60fb      	str	r3, [r7, #12]
87803616:	bf00      	nop
87803618:	683a      	ldr	r2, [r7, #0]
8780361a:	1c53      	adds	r3, r2, #1
8780361c:	603b      	str	r3, [r7, #0]
8780361e:	687b      	ldr	r3, [r7, #4]
87803620:	1c59      	adds	r1, r3, #1
87803622:	6079      	str	r1, [r7, #4]
87803624:	7812      	ldrb	r2, [r2, #0]
87803626:	701a      	strb	r2, [r3, #0]
87803628:	781b      	ldrb	r3, [r3, #0]
8780362a:	2b00      	cmp	r3, #0
8780362c:	d1f4      	bne.n	87803618 <strcpy+0x10>
8780362e:	68fb      	ldr	r3, [r7, #12]
87803630:	4618      	mov	r0, r3
87803632:	3714      	adds	r7, #20
87803634:	46bd      	mov	sp, r7
87803636:	f85d 7b04 	ldr.w	r7, [sp], #4
8780363a:	4770      	bx	lr

8780363c <strncpy>:
8780363c:	b480      	push	{r7}
8780363e:	b087      	sub	sp, #28
87803640:	af00      	add	r7, sp, #0
87803642:	60f8      	str	r0, [r7, #12]
87803644:	60b9      	str	r1, [r7, #8]
87803646:	607a      	str	r2, [r7, #4]
87803648:	68fb      	ldr	r3, [r7, #12]
8780364a:	617b      	str	r3, [r7, #20]
8780364c:	bf00      	nop
8780364e:	687b      	ldr	r3, [r7, #4]
87803650:	1e5a      	subs	r2, r3, #1
87803652:	607a      	str	r2, [r7, #4]
87803654:	2b00      	cmp	r3, #0
87803656:	d00a      	beq.n	8780366e <strncpy+0x32>
87803658:	68ba      	ldr	r2, [r7, #8]
8780365a:	1c53      	adds	r3, r2, #1
8780365c:	60bb      	str	r3, [r7, #8]
8780365e:	68fb      	ldr	r3, [r7, #12]
87803660:	1c59      	adds	r1, r3, #1
87803662:	60f9      	str	r1, [r7, #12]
87803664:	7812      	ldrb	r2, [r2, #0]
87803666:	701a      	strb	r2, [r3, #0]
87803668:	781b      	ldrb	r3, [r3, #0]
8780366a:	2b00      	cmp	r3, #0
8780366c:	d1ef      	bne.n	8780364e <strncpy+0x12>
8780366e:	697b      	ldr	r3, [r7, #20]
87803670:	4618      	mov	r0, r3
87803672:	371c      	adds	r7, #28
87803674:	46bd      	mov	sp, r7
87803676:	f85d 7b04 	ldr.w	r7, [sp], #4
8780367a:	4770      	bx	lr

8780367c <strcat>:
8780367c:	b480      	push	{r7}
8780367e:	b085      	sub	sp, #20
87803680:	af00      	add	r7, sp, #0
87803682:	6078      	str	r0, [r7, #4]
87803684:	6039      	str	r1, [r7, #0]
87803686:	687b      	ldr	r3, [r7, #4]
87803688:	60fb      	str	r3, [r7, #12]
8780368a:	e002      	b.n	87803692 <strcat+0x16>
8780368c:	687b      	ldr	r3, [r7, #4]
8780368e:	3301      	adds	r3, #1
87803690:	607b      	str	r3, [r7, #4]
87803692:	687b      	ldr	r3, [r7, #4]
87803694:	781b      	ldrb	r3, [r3, #0]
87803696:	2b00      	cmp	r3, #0
87803698:	d1f8      	bne.n	8780368c <strcat+0x10>
8780369a:	bf00      	nop
8780369c:	683a      	ldr	r2, [r7, #0]
8780369e:	1c53      	adds	r3, r2, #1
878036a0:	603b      	str	r3, [r7, #0]
878036a2:	687b      	ldr	r3, [r7, #4]
878036a4:	1c59      	adds	r1, r3, #1
878036a6:	6079      	str	r1, [r7, #4]
878036a8:	7812      	ldrb	r2, [r2, #0]
878036aa:	701a      	strb	r2, [r3, #0]
878036ac:	781b      	ldrb	r3, [r3, #0]
878036ae:	2b00      	cmp	r3, #0
878036b0:	d1f4      	bne.n	8780369c <strcat+0x20>
878036b2:	68fb      	ldr	r3, [r7, #12]
878036b4:	4618      	mov	r0, r3
878036b6:	3714      	adds	r7, #20
878036b8:	46bd      	mov	sp, r7
878036ba:	f85d 7b04 	ldr.w	r7, [sp], #4
878036be:	4770      	bx	lr

878036c0 <strncat>:
878036c0:	b480      	push	{r7}
878036c2:	b087      	sub	sp, #28
878036c4:	af00      	add	r7, sp, #0
878036c6:	60f8      	str	r0, [r7, #12]
878036c8:	60b9      	str	r1, [r7, #8]
878036ca:	607a      	str	r2, [r7, #4]
878036cc:	68fb      	ldr	r3, [r7, #12]
878036ce:	617b      	str	r3, [r7, #20]
878036d0:	687b      	ldr	r3, [r7, #4]
878036d2:	2b00      	cmp	r3, #0
878036d4:	d01d      	beq.n	87803712 <strncat+0x52>
878036d6:	e002      	b.n	878036de <strncat+0x1e>
878036d8:	68fb      	ldr	r3, [r7, #12]
878036da:	3301      	adds	r3, #1
878036dc:	60fb      	str	r3, [r7, #12]
878036de:	68fb      	ldr	r3, [r7, #12]
878036e0:	781b      	ldrb	r3, [r3, #0]
878036e2:	2b00      	cmp	r3, #0
878036e4:	d1f8      	bne.n	878036d8 <strncat+0x18>
878036e6:	e009      	b.n	878036fc <strncat+0x3c>
878036e8:	687b      	ldr	r3, [r7, #4]
878036ea:	3b01      	subs	r3, #1
878036ec:	607b      	str	r3, [r7, #4]
878036ee:	687b      	ldr	r3, [r7, #4]
878036f0:	2b00      	cmp	r3, #0
878036f2:	d103      	bne.n	878036fc <strncat+0x3c>
878036f4:	68fb      	ldr	r3, [r7, #12]
878036f6:	2200      	movs	r2, #0
878036f8:	701a      	strb	r2, [r3, #0]
878036fa:	e00a      	b.n	87803712 <strncat+0x52>
878036fc:	68ba      	ldr	r2, [r7, #8]
878036fe:	1c53      	adds	r3, r2, #1
87803700:	60bb      	str	r3, [r7, #8]
87803702:	68fb      	ldr	r3, [r7, #12]
87803704:	1c59      	adds	r1, r3, #1
87803706:	60f9      	str	r1, [r7, #12]
87803708:	7812      	ldrb	r2, [r2, #0]
8780370a:	701a      	strb	r2, [r3, #0]
8780370c:	781b      	ldrb	r3, [r3, #0]
8780370e:	2b00      	cmp	r3, #0
87803710:	d1ea      	bne.n	878036e8 <strncat+0x28>
87803712:	697b      	ldr	r3, [r7, #20]
87803714:	4618      	mov	r0, r3
87803716:	371c      	adds	r7, #28
87803718:	46bd      	mov	sp, r7
8780371a:	f85d 7b04 	ldr.w	r7, [sp], #4
8780371e:	4770      	bx	lr

87803720 <strcmp>:
87803720:	b490      	push	{r4, r7}
87803722:	b082      	sub	sp, #8
87803724:	af00      	add	r7, sp, #0
87803726:	6078      	str	r0, [r7, #4]
87803728:	6039      	str	r1, [r7, #0]
8780372a:	687b      	ldr	r3, [r7, #4]
8780372c:	781a      	ldrb	r2, [r3, #0]
8780372e:	683b      	ldr	r3, [r7, #0]
87803730:	1c59      	adds	r1, r3, #1
87803732:	6039      	str	r1, [r7, #0]
87803734:	781b      	ldrb	r3, [r3, #0]
87803736:	1ad3      	subs	r3, r2, r3
87803738:	b2db      	uxtb	r3, r3
8780373a:	b25c      	sxtb	r4, r3
8780373c:	2c00      	cmp	r4, #0
8780373e:	d106      	bne.n	8780374e <strcmp+0x2e>
87803740:	687b      	ldr	r3, [r7, #4]
87803742:	1c5a      	adds	r2, r3, #1
87803744:	607a      	str	r2, [r7, #4]
87803746:	781b      	ldrb	r3, [r3, #0]
87803748:	2b00      	cmp	r3, #0
8780374a:	d000      	beq.n	8780374e <strcmp+0x2e>
8780374c:	e7ed      	b.n	8780372a <strcmp+0xa>
8780374e:	4623      	mov	r3, r4
87803750:	4618      	mov	r0, r3
87803752:	3708      	adds	r7, #8
87803754:	46bd      	mov	sp, r7
87803756:	bc90      	pop	{r4, r7}
87803758:	4770      	bx	lr

8780375a <strncmp>:
8780375a:	b490      	push	{r4, r7}
8780375c:	b084      	sub	sp, #16
8780375e:	af00      	add	r7, sp, #0
87803760:	60f8      	str	r0, [r7, #12]
87803762:	60b9      	str	r1, [r7, #8]
87803764:	607a      	str	r2, [r7, #4]
87803766:	2400      	movs	r4, #0
87803768:	e013      	b.n	87803792 <strncmp+0x38>
8780376a:	68fb      	ldr	r3, [r7, #12]
8780376c:	781a      	ldrb	r2, [r3, #0]
8780376e:	68bb      	ldr	r3, [r7, #8]
87803770:	1c59      	adds	r1, r3, #1
87803772:	60b9      	str	r1, [r7, #8]
87803774:	781b      	ldrb	r3, [r3, #0]
87803776:	1ad3      	subs	r3, r2, r3
87803778:	b2db      	uxtb	r3, r3
8780377a:	b25c      	sxtb	r4, r3
8780377c:	2c00      	cmp	r4, #0
8780377e:	d10b      	bne.n	87803798 <strncmp+0x3e>
87803780:	68fb      	ldr	r3, [r7, #12]
87803782:	1c5a      	adds	r2, r3, #1
87803784:	60fa      	str	r2, [r7, #12]
87803786:	781b      	ldrb	r3, [r3, #0]
87803788:	2b00      	cmp	r3, #0
8780378a:	d005      	beq.n	87803798 <strncmp+0x3e>
8780378c:	687b      	ldr	r3, [r7, #4]
8780378e:	3b01      	subs	r3, #1
87803790:	607b      	str	r3, [r7, #4]
87803792:	687b      	ldr	r3, [r7, #4]
87803794:	2b00      	cmp	r3, #0
87803796:	d1e8      	bne.n	8780376a <strncmp+0x10>
87803798:	4623      	mov	r3, r4
8780379a:	4618      	mov	r0, r3
8780379c:	3710      	adds	r7, #16
8780379e:	46bd      	mov	sp, r7
878037a0:	bc90      	pop	{r4, r7}
878037a2:	4770      	bx	lr

878037a4 <strchr>:
878037a4:	b480      	push	{r7}
878037a6:	b083      	sub	sp, #12
878037a8:	af00      	add	r7, sp, #0
878037aa:	6078      	str	r0, [r7, #4]
878037ac:	6039      	str	r1, [r7, #0]
878037ae:	e008      	b.n	878037c2 <strchr+0x1e>
878037b0:	687b      	ldr	r3, [r7, #4]
878037b2:	781b      	ldrb	r3, [r3, #0]
878037b4:	2b00      	cmp	r3, #0
878037b6:	d101      	bne.n	878037bc <strchr+0x18>
878037b8:	2300      	movs	r3, #0
878037ba:	e009      	b.n	878037d0 <strchr+0x2c>
878037bc:	687b      	ldr	r3, [r7, #4]
878037be:	3301      	adds	r3, #1
878037c0:	607b      	str	r3, [r7, #4]
878037c2:	687b      	ldr	r3, [r7, #4]
878037c4:	781a      	ldrb	r2, [r3, #0]
878037c6:	683b      	ldr	r3, [r7, #0]
878037c8:	b2db      	uxtb	r3, r3
878037ca:	429a      	cmp	r2, r3
878037cc:	d1f0      	bne.n	878037b0 <strchr+0xc>
878037ce:	687b      	ldr	r3, [r7, #4]
878037d0:	4618      	mov	r0, r3
878037d2:	370c      	adds	r7, #12
878037d4:	46bd      	mov	sp, r7
878037d6:	f85d 7b04 	ldr.w	r7, [sp], #4
878037da:	4770      	bx	lr

878037dc <strrchr>:
878037dc:	b580      	push	{r7, lr}
878037de:	b084      	sub	sp, #16
878037e0:	af00      	add	r7, sp, #0
878037e2:	6078      	str	r0, [r7, #4]
878037e4:	6039      	str	r1, [r7, #0]
878037e6:	6878      	ldr	r0, [r7, #4]
878037e8:	f000 f818 	bl	8780381c <strlen>
878037ec:	4602      	mov	r2, r0
878037ee:	687b      	ldr	r3, [r7, #4]
878037f0:	4413      	add	r3, r2
878037f2:	60fb      	str	r3, [r7, #12]
878037f4:	68fb      	ldr	r3, [r7, #12]
878037f6:	781a      	ldrb	r2, [r3, #0]
878037f8:	683b      	ldr	r3, [r7, #0]
878037fa:	b2db      	uxtb	r3, r3
878037fc:	429a      	cmp	r2, r3
878037fe:	d101      	bne.n	87803804 <strrchr+0x28>
87803800:	68fb      	ldr	r3, [r7, #12]
87803802:	e007      	b.n	87803814 <strrchr+0x38>
87803804:	68fb      	ldr	r3, [r7, #12]
87803806:	3b01      	subs	r3, #1
87803808:	60fb      	str	r3, [r7, #12]
8780380a:	68fa      	ldr	r2, [r7, #12]
8780380c:	687b      	ldr	r3, [r7, #4]
8780380e:	429a      	cmp	r2, r3
87803810:	d2f0      	bcs.n	878037f4 <strrchr+0x18>
87803812:	2300      	movs	r3, #0
87803814:	4618      	mov	r0, r3
87803816:	3710      	adds	r7, #16
87803818:	46bd      	mov	sp, r7
8780381a:	bd80      	pop	{r7, pc}

8780381c <strlen>:
8780381c:	b480      	push	{r7}
8780381e:	b085      	sub	sp, #20
87803820:	af00      	add	r7, sp, #0
87803822:	6078      	str	r0, [r7, #4]
87803824:	687b      	ldr	r3, [r7, #4]
87803826:	60fb      	str	r3, [r7, #12]
87803828:	e002      	b.n	87803830 <strlen+0x14>
8780382a:	68fb      	ldr	r3, [r7, #12]
8780382c:	3301      	adds	r3, #1
8780382e:	60fb      	str	r3, [r7, #12]
87803830:	68fb      	ldr	r3, [r7, #12]
87803832:	781b      	ldrb	r3, [r3, #0]
87803834:	2b00      	cmp	r3, #0
87803836:	d1f8      	bne.n	8780382a <strlen+0xe>
87803838:	68fa      	ldr	r2, [r7, #12]
8780383a:	687b      	ldr	r3, [r7, #4]
8780383c:	1ad3      	subs	r3, r2, r3
8780383e:	4618      	mov	r0, r3
87803840:	3714      	adds	r7, #20
87803842:	46bd      	mov	sp, r7
87803844:	f85d 7b04 	ldr.w	r7, [sp], #4
87803848:	4770      	bx	lr

8780384a <strnlen>:
8780384a:	b480      	push	{r7}
8780384c:	b085      	sub	sp, #20
8780384e:	af00      	add	r7, sp, #0
87803850:	6078      	str	r0, [r7, #4]
87803852:	6039      	str	r1, [r7, #0]
87803854:	687b      	ldr	r3, [r7, #4]
87803856:	60fb      	str	r3, [r7, #12]
87803858:	e002      	b.n	87803860 <strnlen+0x16>
8780385a:	68fb      	ldr	r3, [r7, #12]
8780385c:	3301      	adds	r3, #1
8780385e:	60fb      	str	r3, [r7, #12]
87803860:	683b      	ldr	r3, [r7, #0]
87803862:	1e5a      	subs	r2, r3, #1
87803864:	603a      	str	r2, [r7, #0]
87803866:	2b00      	cmp	r3, #0
87803868:	d003      	beq.n	87803872 <strnlen+0x28>
8780386a:	68fb      	ldr	r3, [r7, #12]
8780386c:	781b      	ldrb	r3, [r3, #0]
8780386e:	2b00      	cmp	r3, #0
87803870:	d1f3      	bne.n	8780385a <strnlen+0x10>
87803872:	68fa      	ldr	r2, [r7, #12]
87803874:	687b      	ldr	r3, [r7, #4]
87803876:	1ad3      	subs	r3, r2, r3
87803878:	4618      	mov	r0, r3
8780387a:	3714      	adds	r7, #20
8780387c:	46bd      	mov	sp, r7
8780387e:	f85d 7b04 	ldr.w	r7, [sp], #4
87803882:	4770      	bx	lr

87803884 <strspn>:
87803884:	b480      	push	{r7}
87803886:	b087      	sub	sp, #28
87803888:	af00      	add	r7, sp, #0
8780388a:	6078      	str	r0, [r7, #4]
8780388c:	6039      	str	r1, [r7, #0]
8780388e:	2300      	movs	r3, #0
87803890:	60fb      	str	r3, [r7, #12]
87803892:	687b      	ldr	r3, [r7, #4]
87803894:	617b      	str	r3, [r7, #20]
87803896:	e01d      	b.n	878038d4 <strspn+0x50>
87803898:	683b      	ldr	r3, [r7, #0]
8780389a:	613b      	str	r3, [r7, #16]
8780389c:	e008      	b.n	878038b0 <strspn+0x2c>
8780389e:	697b      	ldr	r3, [r7, #20]
878038a0:	781a      	ldrb	r2, [r3, #0]
878038a2:	693b      	ldr	r3, [r7, #16]
878038a4:	781b      	ldrb	r3, [r3, #0]
878038a6:	429a      	cmp	r2, r3
878038a8:	d007      	beq.n	878038ba <strspn+0x36>
878038aa:	693b      	ldr	r3, [r7, #16]
878038ac:	3301      	adds	r3, #1
878038ae:	613b      	str	r3, [r7, #16]
878038b0:	693b      	ldr	r3, [r7, #16]
878038b2:	781b      	ldrb	r3, [r3, #0]
878038b4:	2b00      	cmp	r3, #0
878038b6:	d1f2      	bne.n	8780389e <strspn+0x1a>
878038b8:	e000      	b.n	878038bc <strspn+0x38>
878038ba:	bf00      	nop
878038bc:	693b      	ldr	r3, [r7, #16]
878038be:	781b      	ldrb	r3, [r3, #0]
878038c0:	2b00      	cmp	r3, #0
878038c2:	d101      	bne.n	878038c8 <strspn+0x44>
878038c4:	68fb      	ldr	r3, [r7, #12]
878038c6:	e00a      	b.n	878038de <strspn+0x5a>
878038c8:	68fb      	ldr	r3, [r7, #12]
878038ca:	3301      	adds	r3, #1
878038cc:	60fb      	str	r3, [r7, #12]
878038ce:	697b      	ldr	r3, [r7, #20]
878038d0:	3301      	adds	r3, #1
878038d2:	617b      	str	r3, [r7, #20]
878038d4:	697b      	ldr	r3, [r7, #20]
878038d6:	781b      	ldrb	r3, [r3, #0]
878038d8:	2b00      	cmp	r3, #0
878038da:	d1dd      	bne.n	87803898 <strspn+0x14>
878038dc:	68fb      	ldr	r3, [r7, #12]
878038de:	4618      	mov	r0, r3
878038e0:	371c      	adds	r7, #28
878038e2:	46bd      	mov	sp, r7
878038e4:	f85d 7b04 	ldr.w	r7, [sp], #4
878038e8:	4770      	bx	lr

878038ea <strpbrk>:
878038ea:	b480      	push	{r7}
878038ec:	b085      	sub	sp, #20
878038ee:	af00      	add	r7, sp, #0
878038f0:	6078      	str	r0, [r7, #4]
878038f2:	6039      	str	r1, [r7, #0]
878038f4:	687b      	ldr	r3, [r7, #4]
878038f6:	60fb      	str	r3, [r7, #12]
878038f8:	e014      	b.n	87803924 <strpbrk+0x3a>
878038fa:	683b      	ldr	r3, [r7, #0]
878038fc:	60bb      	str	r3, [r7, #8]
878038fe:	e00a      	b.n	87803916 <strpbrk+0x2c>
87803900:	68fb      	ldr	r3, [r7, #12]
87803902:	781a      	ldrb	r2, [r3, #0]
87803904:	68bb      	ldr	r3, [r7, #8]
87803906:	781b      	ldrb	r3, [r3, #0]
87803908:	429a      	cmp	r2, r3
8780390a:	d101      	bne.n	87803910 <strpbrk+0x26>
8780390c:	68fb      	ldr	r3, [r7, #12]
8780390e:	e00e      	b.n	8780392e <strpbrk+0x44>
87803910:	68bb      	ldr	r3, [r7, #8]
87803912:	3301      	adds	r3, #1
87803914:	60bb      	str	r3, [r7, #8]
87803916:	68bb      	ldr	r3, [r7, #8]
87803918:	781b      	ldrb	r3, [r3, #0]
8780391a:	2b00      	cmp	r3, #0
8780391c:	d1f0      	bne.n	87803900 <strpbrk+0x16>
8780391e:	68fb      	ldr	r3, [r7, #12]
87803920:	3301      	adds	r3, #1
87803922:	60fb      	str	r3, [r7, #12]
87803924:	68fb      	ldr	r3, [r7, #12]
87803926:	781b      	ldrb	r3, [r3, #0]
87803928:	2b00      	cmp	r3, #0
8780392a:	d1e6      	bne.n	878038fa <strpbrk+0x10>
8780392c:	2300      	movs	r3, #0
8780392e:	4618      	mov	r0, r3
87803930:	3714      	adds	r7, #20
87803932:	46bd      	mov	sp, r7
87803934:	f85d 7b04 	ldr.w	r7, [sp], #4
87803938:	4770      	bx	lr

8780393a <strtok>:
8780393a:	b580      	push	{r7, lr}
8780393c:	b084      	sub	sp, #16
8780393e:	af00      	add	r7, sp, #0
87803940:	6078      	str	r0, [r7, #4]
87803942:	6039      	str	r1, [r7, #0]
87803944:	687b      	ldr	r3, [r7, #4]
87803946:	2b00      	cmp	r3, #0
87803948:	d001      	beq.n	8780394e <strtok+0x14>
8780394a:	687b      	ldr	r3, [r7, #4]
8780394c:	e002      	b.n	87803954 <strtok+0x1a>
8780394e:	4b1a      	ldr	r3, [pc, #104]	; (878039b8 <strtok+0x7e>)
87803950:	447b      	add	r3, pc
87803952:	681b      	ldr	r3, [r3, #0]
87803954:	60bb      	str	r3, [r7, #8]
87803956:	68bb      	ldr	r3, [r7, #8]
87803958:	2b00      	cmp	r3, #0
8780395a:	d101      	bne.n	87803960 <strtok+0x26>
8780395c:	2300      	movs	r3, #0
8780395e:	e027      	b.n	878039b0 <strtok+0x76>
87803960:	6839      	ldr	r1, [r7, #0]
87803962:	68b8      	ldr	r0, [r7, #8]
87803964:	f7ff ff8e 	bl	87803884 <strspn>
87803968:	4602      	mov	r2, r0
8780396a:	68bb      	ldr	r3, [r7, #8]
8780396c:	4413      	add	r3, r2
8780396e:	60bb      	str	r3, [r7, #8]
87803970:	68bb      	ldr	r3, [r7, #8]
87803972:	781b      	ldrb	r3, [r3, #0]
87803974:	2b00      	cmp	r3, #0
87803976:	d105      	bne.n	87803984 <strtok+0x4a>
87803978:	4b10      	ldr	r3, [pc, #64]	; (878039bc <strtok+0x82>)
8780397a:	447b      	add	r3, pc
8780397c:	2200      	movs	r2, #0
8780397e:	601a      	str	r2, [r3, #0]
87803980:	2300      	movs	r3, #0
87803982:	e015      	b.n	878039b0 <strtok+0x76>
87803984:	6839      	ldr	r1, [r7, #0]
87803986:	68b8      	ldr	r0, [r7, #8]
87803988:	f7ff ffaf 	bl	878038ea <strpbrk>
8780398c:	60f8      	str	r0, [r7, #12]
8780398e:	68fb      	ldr	r3, [r7, #12]
87803990:	2b00      	cmp	r3, #0
87803992:	d008      	beq.n	878039a6 <strtok+0x6c>
87803994:	68fb      	ldr	r3, [r7, #12]
87803996:	781b      	ldrb	r3, [r3, #0]
87803998:	2b00      	cmp	r3, #0
8780399a:	d004      	beq.n	878039a6 <strtok+0x6c>
8780399c:	68fb      	ldr	r3, [r7, #12]
8780399e:	1c5a      	adds	r2, r3, #1
878039a0:	60fa      	str	r2, [r7, #12]
878039a2:	2200      	movs	r2, #0
878039a4:	701a      	strb	r2, [r3, #0]
878039a6:	4b06      	ldr	r3, [pc, #24]	; (878039c0 <strtok+0x86>)
878039a8:	447b      	add	r3, pc
878039aa:	68fa      	ldr	r2, [r7, #12]
878039ac:	601a      	str	r2, [r3, #0]
878039ae:	68bb      	ldr	r3, [r7, #8]
878039b0:	4618      	mov	r0, r3
878039b2:	3710      	adds	r7, #16
878039b4:	46bd      	mov	sp, r7
878039b6:	bd80      	pop	{r7, pc}
878039b8:	000072e4 	andeq	r7, r0, r4, ror #5
878039bc:	000072ba 			; <UNDEFINED> instruction: 0x000072ba
878039c0:	0000728c 	andeq	r7, r0, ip, lsl #5

878039c4 <strsep>:
878039c4:	b580      	push	{r7, lr}
878039c6:	b084      	sub	sp, #16
878039c8:	af00      	add	r7, sp, #0
878039ca:	6078      	str	r0, [r7, #4]
878039cc:	6039      	str	r1, [r7, #0]
878039ce:	687b      	ldr	r3, [r7, #4]
878039d0:	681b      	ldr	r3, [r3, #0]
878039d2:	60bb      	str	r3, [r7, #8]
878039d4:	68bb      	ldr	r3, [r7, #8]
878039d6:	2b00      	cmp	r3, #0
878039d8:	d101      	bne.n	878039de <strsep+0x1a>
878039da:	2300      	movs	r3, #0
878039dc:	e010      	b.n	87803a00 <strsep+0x3c>
878039de:	6839      	ldr	r1, [r7, #0]
878039e0:	68b8      	ldr	r0, [r7, #8]
878039e2:	f7ff ff82 	bl	878038ea <strpbrk>
878039e6:	60f8      	str	r0, [r7, #12]
878039e8:	68fb      	ldr	r3, [r7, #12]
878039ea:	2b00      	cmp	r3, #0
878039ec:	d004      	beq.n	878039f8 <strsep+0x34>
878039ee:	68fb      	ldr	r3, [r7, #12]
878039f0:	1c5a      	adds	r2, r3, #1
878039f2:	60fa      	str	r2, [r7, #12]
878039f4:	2200      	movs	r2, #0
878039f6:	701a      	strb	r2, [r3, #0]
878039f8:	687b      	ldr	r3, [r7, #4]
878039fa:	68fa      	ldr	r2, [r7, #12]
878039fc:	601a      	str	r2, [r3, #0]
878039fe:	68bb      	ldr	r3, [r7, #8]
87803a00:	4618      	mov	r0, r3
87803a02:	3710      	adds	r7, #16
87803a04:	46bd      	mov	sp, r7
87803a06:	bd80      	pop	{r7, pc}

87803a08 <memset>:
87803a08:	b480      	push	{r7}
87803a0a:	b087      	sub	sp, #28
87803a0c:	af00      	add	r7, sp, #0
87803a0e:	60f8      	str	r0, [r7, #12]
87803a10:	60b9      	str	r1, [r7, #8]
87803a12:	607a      	str	r2, [r7, #4]
87803a14:	68fb      	ldr	r3, [r7, #12]
87803a16:	617b      	str	r3, [r7, #20]
87803a18:	e005      	b.n	87803a26 <memset+0x1e>
87803a1a:	697b      	ldr	r3, [r7, #20]
87803a1c:	1c5a      	adds	r2, r3, #1
87803a1e:	617a      	str	r2, [r7, #20]
87803a20:	68ba      	ldr	r2, [r7, #8]
87803a22:	b2d2      	uxtb	r2, r2
87803a24:	701a      	strb	r2, [r3, #0]
87803a26:	687b      	ldr	r3, [r7, #4]
87803a28:	1e5a      	subs	r2, r3, #1
87803a2a:	607a      	str	r2, [r7, #4]
87803a2c:	2b00      	cmp	r3, #0
87803a2e:	d1f4      	bne.n	87803a1a <memset+0x12>
87803a30:	68fb      	ldr	r3, [r7, #12]
87803a32:	4618      	mov	r0, r3
87803a34:	371c      	adds	r7, #28
87803a36:	46bd      	mov	sp, r7
87803a38:	f85d 7b04 	ldr.w	r7, [sp], #4
87803a3c:	4770      	bx	lr

87803a3e <bcopy>:
87803a3e:	b480      	push	{r7}
87803a40:	b087      	sub	sp, #28
87803a42:	af00      	add	r7, sp, #0
87803a44:	60f8      	str	r0, [r7, #12]
87803a46:	60b9      	str	r1, [r7, #8]
87803a48:	607a      	str	r2, [r7, #4]
87803a4a:	68bb      	ldr	r3, [r7, #8]
87803a4c:	617b      	str	r3, [r7, #20]
87803a4e:	68fb      	ldr	r3, [r7, #12]
87803a50:	613b      	str	r3, [r7, #16]
87803a52:	e007      	b.n	87803a64 <bcopy+0x26>
87803a54:	693a      	ldr	r2, [r7, #16]
87803a56:	1c53      	adds	r3, r2, #1
87803a58:	613b      	str	r3, [r7, #16]
87803a5a:	697b      	ldr	r3, [r7, #20]
87803a5c:	1c59      	adds	r1, r3, #1
87803a5e:	6179      	str	r1, [r7, #20]
87803a60:	7812      	ldrb	r2, [r2, #0]
87803a62:	701a      	strb	r2, [r3, #0]
87803a64:	687b      	ldr	r3, [r7, #4]
87803a66:	1e5a      	subs	r2, r3, #1
87803a68:	607a      	str	r2, [r7, #4]
87803a6a:	2b00      	cmp	r3, #0
87803a6c:	d1f2      	bne.n	87803a54 <bcopy+0x16>
87803a6e:	bf00      	nop
87803a70:	bf00      	nop
87803a72:	371c      	adds	r7, #28
87803a74:	46bd      	mov	sp, r7
87803a76:	f85d 7b04 	ldr.w	r7, [sp], #4
87803a7a:	4770      	bx	lr

87803a7c <memcpy>:
87803a7c:	b480      	push	{r7}
87803a7e:	b087      	sub	sp, #28
87803a80:	af00      	add	r7, sp, #0
87803a82:	60f8      	str	r0, [r7, #12]
87803a84:	60b9      	str	r1, [r7, #8]
87803a86:	607a      	str	r2, [r7, #4]
87803a88:	68fb      	ldr	r3, [r7, #12]
87803a8a:	617b      	str	r3, [r7, #20]
87803a8c:	68bb      	ldr	r3, [r7, #8]
87803a8e:	613b      	str	r3, [r7, #16]
87803a90:	e007      	b.n	87803aa2 <memcpy+0x26>
87803a92:	693a      	ldr	r2, [r7, #16]
87803a94:	1c53      	adds	r3, r2, #1
87803a96:	613b      	str	r3, [r7, #16]
87803a98:	697b      	ldr	r3, [r7, #20]
87803a9a:	1c59      	adds	r1, r3, #1
87803a9c:	6179      	str	r1, [r7, #20]
87803a9e:	7812      	ldrb	r2, [r2, #0]
87803aa0:	701a      	strb	r2, [r3, #0]
87803aa2:	687b      	ldr	r3, [r7, #4]
87803aa4:	1e5a      	subs	r2, r3, #1
87803aa6:	607a      	str	r2, [r7, #4]
87803aa8:	2b00      	cmp	r3, #0
87803aaa:	d1f2      	bne.n	87803a92 <memcpy+0x16>
87803aac:	68fb      	ldr	r3, [r7, #12]
87803aae:	4618      	mov	r0, r3
87803ab0:	371c      	adds	r7, #28
87803ab2:	46bd      	mov	sp, r7
87803ab4:	f85d 7b04 	ldr.w	r7, [sp], #4
87803ab8:	4770      	bx	lr

87803aba <memmove>:
87803aba:	b480      	push	{r7}
87803abc:	b087      	sub	sp, #28
87803abe:	af00      	add	r7, sp, #0
87803ac0:	60f8      	str	r0, [r7, #12]
87803ac2:	60b9      	str	r1, [r7, #8]
87803ac4:	607a      	str	r2, [r7, #4]
87803ac6:	68fa      	ldr	r2, [r7, #12]
87803ac8:	68bb      	ldr	r3, [r7, #8]
87803aca:	429a      	cmp	r2, r3
87803acc:	d812      	bhi.n	87803af4 <memmove+0x3a>
87803ace:	68fb      	ldr	r3, [r7, #12]
87803ad0:	617b      	str	r3, [r7, #20]
87803ad2:	68bb      	ldr	r3, [r7, #8]
87803ad4:	613b      	str	r3, [r7, #16]
87803ad6:	e007      	b.n	87803ae8 <memmove+0x2e>
87803ad8:	693a      	ldr	r2, [r7, #16]
87803ada:	1c53      	adds	r3, r2, #1
87803adc:	613b      	str	r3, [r7, #16]
87803ade:	697b      	ldr	r3, [r7, #20]
87803ae0:	1c59      	adds	r1, r3, #1
87803ae2:	6179      	str	r1, [r7, #20]
87803ae4:	7812      	ldrb	r2, [r2, #0]
87803ae6:	701a      	strb	r2, [r3, #0]
87803ae8:	687b      	ldr	r3, [r7, #4]
87803aea:	1e5a      	subs	r2, r3, #1
87803aec:	607a      	str	r2, [r7, #4]
87803aee:	2b00      	cmp	r3, #0
87803af0:	d1f2      	bne.n	87803ad8 <memmove+0x1e>
87803af2:	e017      	b.n	87803b24 <memmove+0x6a>
87803af4:	68fa      	ldr	r2, [r7, #12]
87803af6:	687b      	ldr	r3, [r7, #4]
87803af8:	4413      	add	r3, r2
87803afa:	617b      	str	r3, [r7, #20]
87803afc:	68ba      	ldr	r2, [r7, #8]
87803afe:	687b      	ldr	r3, [r7, #4]
87803b00:	4413      	add	r3, r2
87803b02:	613b      	str	r3, [r7, #16]
87803b04:	e009      	b.n	87803b1a <memmove+0x60>
87803b06:	693b      	ldr	r3, [r7, #16]
87803b08:	3b01      	subs	r3, #1
87803b0a:	613b      	str	r3, [r7, #16]
87803b0c:	697b      	ldr	r3, [r7, #20]
87803b0e:	3b01      	subs	r3, #1
87803b10:	617b      	str	r3, [r7, #20]
87803b12:	693b      	ldr	r3, [r7, #16]
87803b14:	781a      	ldrb	r2, [r3, #0]
87803b16:	697b      	ldr	r3, [r7, #20]
87803b18:	701a      	strb	r2, [r3, #0]
87803b1a:	687b      	ldr	r3, [r7, #4]
87803b1c:	1e5a      	subs	r2, r3, #1
87803b1e:	607a      	str	r2, [r7, #4]
87803b20:	2b00      	cmp	r3, #0
87803b22:	d1f0      	bne.n	87803b06 <memmove+0x4c>
87803b24:	68fb      	ldr	r3, [r7, #12]
87803b26:	4618      	mov	r0, r3
87803b28:	371c      	adds	r7, #28
87803b2a:	46bd      	mov	sp, r7
87803b2c:	f85d 7b04 	ldr.w	r7, [sp], #4
87803b30:	4770      	bx	lr

87803b32 <memcmp>:
87803b32:	b480      	push	{r7}
87803b34:	b089      	sub	sp, #36	; 0x24
87803b36:	af00      	add	r7, sp, #0
87803b38:	60f8      	str	r0, [r7, #12]
87803b3a:	60b9      	str	r1, [r7, #8]
87803b3c:	607a      	str	r2, [r7, #4]
87803b3e:	2300      	movs	r3, #0
87803b40:	617b      	str	r3, [r7, #20]
87803b42:	68fb      	ldr	r3, [r7, #12]
87803b44:	61fb      	str	r3, [r7, #28]
87803b46:	68bb      	ldr	r3, [r7, #8]
87803b48:	61bb      	str	r3, [r7, #24]
87803b4a:	e012      	b.n	87803b72 <memcmp+0x40>
87803b4c:	69fb      	ldr	r3, [r7, #28]
87803b4e:	781b      	ldrb	r3, [r3, #0]
87803b50:	461a      	mov	r2, r3
87803b52:	69bb      	ldr	r3, [r7, #24]
87803b54:	781b      	ldrb	r3, [r3, #0]
87803b56:	1ad3      	subs	r3, r2, r3
87803b58:	617b      	str	r3, [r7, #20]
87803b5a:	697b      	ldr	r3, [r7, #20]
87803b5c:	2b00      	cmp	r3, #0
87803b5e:	d10c      	bne.n	87803b7a <memcmp+0x48>
87803b60:	69fb      	ldr	r3, [r7, #28]
87803b62:	3301      	adds	r3, #1
87803b64:	61fb      	str	r3, [r7, #28]
87803b66:	69bb      	ldr	r3, [r7, #24]
87803b68:	3301      	adds	r3, #1
87803b6a:	61bb      	str	r3, [r7, #24]
87803b6c:	687b      	ldr	r3, [r7, #4]
87803b6e:	3b01      	subs	r3, #1
87803b70:	607b      	str	r3, [r7, #4]
87803b72:	687b      	ldr	r3, [r7, #4]
87803b74:	2b00      	cmp	r3, #0
87803b76:	d1e9      	bne.n	87803b4c <memcmp+0x1a>
87803b78:	e000      	b.n	87803b7c <memcmp+0x4a>
87803b7a:	bf00      	nop
87803b7c:	697b      	ldr	r3, [r7, #20]
87803b7e:	4618      	mov	r0, r3
87803b80:	3724      	adds	r7, #36	; 0x24
87803b82:	46bd      	mov	sp, r7
87803b84:	f85d 7b04 	ldr.w	r7, [sp], #4
87803b88:	4770      	bx	lr

87803b8a <memscan>:
87803b8a:	b480      	push	{r7}
87803b8c:	b087      	sub	sp, #28
87803b8e:	af00      	add	r7, sp, #0
87803b90:	60f8      	str	r0, [r7, #12]
87803b92:	60b9      	str	r1, [r7, #8]
87803b94:	607a      	str	r2, [r7, #4]
87803b96:	68fb      	ldr	r3, [r7, #12]
87803b98:	617b      	str	r3, [r7, #20]
87803b9a:	e00d      	b.n	87803bb8 <memscan+0x2e>
87803b9c:	697b      	ldr	r3, [r7, #20]
87803b9e:	781b      	ldrb	r3, [r3, #0]
87803ba0:	461a      	mov	r2, r3
87803ba2:	68bb      	ldr	r3, [r7, #8]
87803ba4:	4293      	cmp	r3, r2
87803ba6:	d101      	bne.n	87803bac <memscan+0x22>
87803ba8:	697b      	ldr	r3, [r7, #20]
87803baa:	e009      	b.n	87803bc0 <memscan+0x36>
87803bac:	697b      	ldr	r3, [r7, #20]
87803bae:	3301      	adds	r3, #1
87803bb0:	617b      	str	r3, [r7, #20]
87803bb2:	687b      	ldr	r3, [r7, #4]
87803bb4:	3b01      	subs	r3, #1
87803bb6:	607b      	str	r3, [r7, #4]
87803bb8:	687b      	ldr	r3, [r7, #4]
87803bba:	2b00      	cmp	r3, #0
87803bbc:	d1ee      	bne.n	87803b9c <memscan+0x12>
87803bbe:	697b      	ldr	r3, [r7, #20]
87803bc0:	4618      	mov	r0, r3
87803bc2:	371c      	adds	r7, #28
87803bc4:	46bd      	mov	sp, r7
87803bc6:	f85d 7b04 	ldr.w	r7, [sp], #4
87803bca:	4770      	bx	lr

87803bcc <strstr>:
87803bcc:	b580      	push	{r7, lr}
87803bce:	b084      	sub	sp, #16
87803bd0:	af00      	add	r7, sp, #0
87803bd2:	6078      	str	r0, [r7, #4]
87803bd4:	6039      	str	r1, [r7, #0]
87803bd6:	6838      	ldr	r0, [r7, #0]
87803bd8:	f7ff fe20 	bl	8780381c <strlen>
87803bdc:	4603      	mov	r3, r0
87803bde:	60bb      	str	r3, [r7, #8]
87803be0:	68bb      	ldr	r3, [r7, #8]
87803be2:	2b00      	cmp	r3, #0
87803be4:	d101      	bne.n	87803bea <strstr+0x1e>
87803be6:	687b      	ldr	r3, [r7, #4]
87803be8:	e01b      	b.n	87803c22 <strstr+0x56>
87803bea:	6878      	ldr	r0, [r7, #4]
87803bec:	f7ff fe16 	bl	8780381c <strlen>
87803bf0:	4603      	mov	r3, r0
87803bf2:	60fb      	str	r3, [r7, #12]
87803bf4:	e010      	b.n	87803c18 <strstr+0x4c>
87803bf6:	68fb      	ldr	r3, [r7, #12]
87803bf8:	3b01      	subs	r3, #1
87803bfa:	60fb      	str	r3, [r7, #12]
87803bfc:	68bb      	ldr	r3, [r7, #8]
87803bfe:	461a      	mov	r2, r3
87803c00:	6839      	ldr	r1, [r7, #0]
87803c02:	6878      	ldr	r0, [r7, #4]
87803c04:	f7ff ff95 	bl	87803b32 <memcmp>
87803c08:	4603      	mov	r3, r0
87803c0a:	2b00      	cmp	r3, #0
87803c0c:	d101      	bne.n	87803c12 <strstr+0x46>
87803c0e:	687b      	ldr	r3, [r7, #4]
87803c10:	e007      	b.n	87803c22 <strstr+0x56>
87803c12:	687b      	ldr	r3, [r7, #4]
87803c14:	3301      	adds	r3, #1
87803c16:	607b      	str	r3, [r7, #4]
87803c18:	68fa      	ldr	r2, [r7, #12]
87803c1a:	68bb      	ldr	r3, [r7, #8]
87803c1c:	429a      	cmp	r2, r3
87803c1e:	daea      	bge.n	87803bf6 <strstr+0x2a>
87803c20:	2300      	movs	r3, #0
87803c22:	4618      	mov	r0, r3
87803c24:	3710      	adds	r7, #16
87803c26:	46bd      	mov	sp, r7
87803c28:	bd80      	pop	{r7, pc}

87803c2a <memchr>:
87803c2a:	b480      	push	{r7}
87803c2c:	b087      	sub	sp, #28
87803c2e:	af00      	add	r7, sp, #0
87803c30:	60f8      	str	r0, [r7, #12]
87803c32:	60b9      	str	r1, [r7, #8]
87803c34:	607a      	str	r2, [r7, #4]
87803c36:	68fb      	ldr	r3, [r7, #12]
87803c38:	617b      	str	r3, [r7, #20]
87803c3a:	e00a      	b.n	87803c52 <memchr+0x28>
87803c3c:	68bb      	ldr	r3, [r7, #8]
87803c3e:	b2da      	uxtb	r2, r3
87803c40:	697b      	ldr	r3, [r7, #20]
87803c42:	1c59      	adds	r1, r3, #1
87803c44:	6179      	str	r1, [r7, #20]
87803c46:	781b      	ldrb	r3, [r3, #0]
87803c48:	429a      	cmp	r2, r3
87803c4a:	d102      	bne.n	87803c52 <memchr+0x28>
87803c4c:	697b      	ldr	r3, [r7, #20]
87803c4e:	3b01      	subs	r3, #1
87803c50:	e005      	b.n	87803c5e <memchr+0x34>
87803c52:	687b      	ldr	r3, [r7, #4]
87803c54:	1e5a      	subs	r2, r3, #1
87803c56:	607a      	str	r2, [r7, #4]
87803c58:	2b00      	cmp	r3, #0
87803c5a:	d1ef      	bne.n	87803c3c <memchr+0x12>
87803c5c:	2300      	movs	r3, #0
87803c5e:	4618      	mov	r0, r3
87803c60:	371c      	adds	r7, #28
87803c62:	46bd      	mov	sp, r7
87803c64:	f85d 7b04 	ldr.w	r7, [sp], #4
87803c68:	4770      	bx	lr
87803c6a:	bf00      	nop

87803c6c <__toupper>:
87803c6c:	b480      	push	{r7}
87803c6e:	b083      	sub	sp, #12
87803c70:	af00      	add	r7, sp, #0
87803c72:	4603      	mov	r3, r0
87803c74:	71fb      	strb	r3, [r7, #7]
87803c76:	490a      	ldr	r1, [pc, #40]	; (87803ca0 <__toupper+0x34>)
87803c78:	4479      	add	r1, pc
87803c7a:	79fb      	ldrb	r3, [r7, #7]
87803c7c:	4a09      	ldr	r2, [pc, #36]	; (87803ca4 <__toupper+0x38>)
87803c7e:	588a      	ldr	r2, [r1, r2]
87803c80:	5cd3      	ldrb	r3, [r2, r3]
87803c82:	f003 0302 	and.w	r3, r3, #2
87803c86:	2b00      	cmp	r3, #0
87803c88:	d002      	beq.n	87803c90 <__toupper+0x24>
87803c8a:	79fb      	ldrb	r3, [r7, #7]
87803c8c:	3b20      	subs	r3, #32
87803c8e:	71fb      	strb	r3, [r7, #7]
87803c90:	79fb      	ldrb	r3, [r7, #7]
87803c92:	4618      	mov	r0, r3
87803c94:	370c      	adds	r7, #12
87803c96:	46bd      	mov	sp, r7
87803c98:	f85d 7b04 	ldr.w	r7, [sp], #4
87803c9c:	4770      	bx	lr
87803c9e:	bf00      	nop
87803ca0:	00006780 	andeq	r6, r0, r0, lsl #15
87803ca4:	00000000 	andeq	r0, r0, r0

87803ca8 <simple_strtoul>:
87803ca8:	b590      	push	{r4, r7, lr}
87803caa:	b087      	sub	sp, #28
87803cac:	af00      	add	r7, sp, #0
87803cae:	60f8      	str	r0, [r7, #12]
87803cb0:	60b9      	str	r1, [r7, #8]
87803cb2:	607a      	str	r2, [r7, #4]
87803cb4:	4c3b      	ldr	r4, [pc, #236]	; (87803da4 <simple_strtoul+0xfc>)
87803cb6:	447c      	add	r4, pc
87803cb8:	2300      	movs	r3, #0
87803cba:	617b      	str	r3, [r7, #20]
87803cbc:	687b      	ldr	r3, [r7, #4]
87803cbe:	2b00      	cmp	r3, #0
87803cc0:	d123      	bne.n	87803d0a <simple_strtoul+0x62>
87803cc2:	230a      	movs	r3, #10
87803cc4:	607b      	str	r3, [r7, #4]
87803cc6:	68fb      	ldr	r3, [r7, #12]
87803cc8:	781b      	ldrb	r3, [r3, #0]
87803cca:	2b30      	cmp	r3, #48	; 0x30
87803ccc:	d13b      	bne.n	87803d46 <simple_strtoul+0x9e>
87803cce:	2308      	movs	r3, #8
87803cd0:	607b      	str	r3, [r7, #4]
87803cd2:	68fb      	ldr	r3, [r7, #12]
87803cd4:	3301      	adds	r3, #1
87803cd6:	60fb      	str	r3, [r7, #12]
87803cd8:	68fb      	ldr	r3, [r7, #12]
87803cda:	781b      	ldrb	r3, [r3, #0]
87803cdc:	4618      	mov	r0, r3
87803cde:	f7ff ffc5 	bl	87803c6c <__toupper>
87803ce2:	4603      	mov	r3, r0
87803ce4:	2b58      	cmp	r3, #88	; 0x58
87803ce6:	d12e      	bne.n	87803d46 <simple_strtoul+0x9e>
87803ce8:	68fb      	ldr	r3, [r7, #12]
87803cea:	3301      	adds	r3, #1
87803cec:	781b      	ldrb	r3, [r3, #0]
87803cee:	461a      	mov	r2, r3
87803cf0:	4b2d      	ldr	r3, [pc, #180]	; (87803da8 <simple_strtoul+0x100>)
87803cf2:	58e3      	ldr	r3, [r4, r3]
87803cf4:	5c9b      	ldrb	r3, [r3, r2]
87803cf6:	f003 0344 	and.w	r3, r3, #68	; 0x44
87803cfa:	2b00      	cmp	r3, #0
87803cfc:	d023      	beq.n	87803d46 <simple_strtoul+0x9e>
87803cfe:	68fb      	ldr	r3, [r7, #12]
87803d00:	3301      	adds	r3, #1
87803d02:	60fb      	str	r3, [r7, #12]
87803d04:	2310      	movs	r3, #16
87803d06:	607b      	str	r3, [r7, #4]
87803d08:	e01d      	b.n	87803d46 <simple_strtoul+0x9e>
87803d0a:	687b      	ldr	r3, [r7, #4]
87803d0c:	2b10      	cmp	r3, #16
87803d0e:	d11a      	bne.n	87803d46 <simple_strtoul+0x9e>
87803d10:	68fb      	ldr	r3, [r7, #12]
87803d12:	781b      	ldrb	r3, [r3, #0]
87803d14:	2b30      	cmp	r3, #48	; 0x30
87803d16:	d116      	bne.n	87803d46 <simple_strtoul+0x9e>
87803d18:	68fb      	ldr	r3, [r7, #12]
87803d1a:	3301      	adds	r3, #1
87803d1c:	781b      	ldrb	r3, [r3, #0]
87803d1e:	4618      	mov	r0, r3
87803d20:	f7ff ffa4 	bl	87803c6c <__toupper>
87803d24:	4603      	mov	r3, r0
87803d26:	2b58      	cmp	r3, #88	; 0x58
87803d28:	d10d      	bne.n	87803d46 <simple_strtoul+0x9e>
87803d2a:	68fb      	ldr	r3, [r7, #12]
87803d2c:	3302      	adds	r3, #2
87803d2e:	60fb      	str	r3, [r7, #12]
87803d30:	e009      	b.n	87803d46 <simple_strtoul+0x9e>
87803d32:	697b      	ldr	r3, [r7, #20]
87803d34:	687a      	ldr	r2, [r7, #4]
87803d36:	fb02 f303 	mul.w	r3, r2, r3
87803d3a:	693a      	ldr	r2, [r7, #16]
87803d3c:	4413      	add	r3, r2
87803d3e:	617b      	str	r3, [r7, #20]
87803d40:	68fb      	ldr	r3, [r7, #12]
87803d42:	3301      	adds	r3, #1
87803d44:	60fb      	str	r3, [r7, #12]
87803d46:	68fb      	ldr	r3, [r7, #12]
87803d48:	781b      	ldrb	r3, [r3, #0]
87803d4a:	461a      	mov	r2, r3
87803d4c:	4b16      	ldr	r3, [pc, #88]	; (87803da8 <simple_strtoul+0x100>)
87803d4e:	58e3      	ldr	r3, [r4, r3]
87803d50:	5c9b      	ldrb	r3, [r3, r2]
87803d52:	f003 0344 	and.w	r3, r3, #68	; 0x44
87803d56:	2b00      	cmp	r3, #0
87803d58:	d019      	beq.n	87803d8e <simple_strtoul+0xe6>
87803d5a:	68fb      	ldr	r3, [r7, #12]
87803d5c:	781b      	ldrb	r3, [r3, #0]
87803d5e:	461a      	mov	r2, r3
87803d60:	4b11      	ldr	r3, [pc, #68]	; (87803da8 <simple_strtoul+0x100>)
87803d62:	58e3      	ldr	r3, [r4, r3]
87803d64:	5c9b      	ldrb	r3, [r3, r2]
87803d66:	f003 0304 	and.w	r3, r3, #4
87803d6a:	2b00      	cmp	r3, #0
87803d6c:	d003      	beq.n	87803d76 <simple_strtoul+0xce>
87803d6e:	68fb      	ldr	r3, [r7, #12]
87803d70:	781b      	ldrb	r3, [r3, #0]
87803d72:	3b30      	subs	r3, #48	; 0x30
87803d74:	e006      	b.n	87803d84 <simple_strtoul+0xdc>
87803d76:	68fb      	ldr	r3, [r7, #12]
87803d78:	781b      	ldrb	r3, [r3, #0]
87803d7a:	4618      	mov	r0, r3
87803d7c:	f7ff ff76 	bl	87803c6c <__toupper>
87803d80:	4603      	mov	r3, r0
87803d82:	3b37      	subs	r3, #55	; 0x37
87803d84:	613b      	str	r3, [r7, #16]
87803d86:	693a      	ldr	r2, [r7, #16]
87803d88:	687b      	ldr	r3, [r7, #4]
87803d8a:	429a      	cmp	r2, r3
87803d8c:	d3d1      	bcc.n	87803d32 <simple_strtoul+0x8a>
87803d8e:	68bb      	ldr	r3, [r7, #8]
87803d90:	2b00      	cmp	r3, #0
87803d92:	d002      	beq.n	87803d9a <simple_strtoul+0xf2>
87803d94:	68bb      	ldr	r3, [r7, #8]
87803d96:	68fa      	ldr	r2, [r7, #12]
87803d98:	601a      	str	r2, [r3, #0]
87803d9a:	697b      	ldr	r3, [r7, #20]
87803d9c:	4618      	mov	r0, r3
87803d9e:	371c      	adds	r7, #28
87803da0:	46bd      	mov	sp, r7
87803da2:	bd90      	pop	{r4, r7, pc}
87803da4:	00006742 	andeq	r6, r0, r2, asr #14
87803da8:	00000000 	andeq	r0, r0, r0

87803dac <simple_strtol>:
87803dac:	b580      	push	{r7, lr}
87803dae:	b084      	sub	sp, #16
87803db0:	af00      	add	r7, sp, #0
87803db2:	60f8      	str	r0, [r7, #12]
87803db4:	60b9      	str	r1, [r7, #8]
87803db6:	607a      	str	r2, [r7, #4]
87803db8:	68fb      	ldr	r3, [r7, #12]
87803dba:	781b      	ldrb	r3, [r3, #0]
87803dbc:	2b2d      	cmp	r3, #45	; 0x2d
87803dbe:	d109      	bne.n	87803dd4 <simple_strtol+0x28>
87803dc0:	68fb      	ldr	r3, [r7, #12]
87803dc2:	3301      	adds	r3, #1
87803dc4:	687a      	ldr	r2, [r7, #4]
87803dc6:	68b9      	ldr	r1, [r7, #8]
87803dc8:	4618      	mov	r0, r3
87803dca:	f7ff ff6d 	bl	87803ca8 <simple_strtoul>
87803dce:	4603      	mov	r3, r0
87803dd0:	425b      	negs	r3, r3
87803dd2:	e005      	b.n	87803de0 <simple_strtol+0x34>
87803dd4:	687a      	ldr	r2, [r7, #4]
87803dd6:	68b9      	ldr	r1, [r7, #8]
87803dd8:	68f8      	ldr	r0, [r7, #12]
87803dda:	f7ff ff65 	bl	87803ca8 <simple_strtoul>
87803dde:	4603      	mov	r3, r0
87803de0:	4618      	mov	r0, r3
87803de2:	3710      	adds	r7, #16
87803de4:	46bd      	mov	sp, r7
87803de6:	bd80      	pop	{r7, pc}

87803de8 <simple_strtoull>:
87803de8:	e92d 4ff0 	stmdb	sp!, {r4, r5, r6, r7, r8, r9, sl, fp, lr}
87803dec:	b08d      	sub	sp, #52	; 0x34
87803dee:	af00      	add	r7, sp, #0
87803df0:	61f8      	str	r0, [r7, #28]
87803df2:	61b9      	str	r1, [r7, #24]
87803df4:	617a      	str	r2, [r7, #20]
87803df6:	4e56      	ldr	r6, [pc, #344]	; (87803f50 <simple_strtoull+0x168>)
87803df8:	447e      	add	r6, pc
87803dfa:	f04f 0200 	mov.w	r2, #0
87803dfe:	f04f 0300 	mov.w	r3, #0
87803e02:	e9c7 230a 	strd	r2, r3, [r7, #40]	; 0x28
87803e06:	697b      	ldr	r3, [r7, #20]
87803e08:	2b00      	cmp	r3, #0
87803e0a:	d123      	bne.n	87803e54 <simple_strtoull+0x6c>
87803e0c:	230a      	movs	r3, #10
87803e0e:	617b      	str	r3, [r7, #20]
87803e10:	69fb      	ldr	r3, [r7, #28]
87803e12:	781b      	ldrb	r3, [r3, #0]
87803e14:	2b30      	cmp	r3, #48	; 0x30
87803e16:	d14e      	bne.n	87803eb6 <simple_strtoull+0xce>
87803e18:	2308      	movs	r3, #8
87803e1a:	617b      	str	r3, [r7, #20]
87803e1c:	69fb      	ldr	r3, [r7, #28]
87803e1e:	3301      	adds	r3, #1
87803e20:	61fb      	str	r3, [r7, #28]
87803e22:	69fb      	ldr	r3, [r7, #28]
87803e24:	781b      	ldrb	r3, [r3, #0]
87803e26:	4618      	mov	r0, r3
87803e28:	f7ff ff20 	bl	87803c6c <__toupper>
87803e2c:	4603      	mov	r3, r0
87803e2e:	2b58      	cmp	r3, #88	; 0x58
87803e30:	d141      	bne.n	87803eb6 <simple_strtoull+0xce>
87803e32:	69fb      	ldr	r3, [r7, #28]
87803e34:	3301      	adds	r3, #1
87803e36:	781b      	ldrb	r3, [r3, #0]
87803e38:	461a      	mov	r2, r3
87803e3a:	4b46      	ldr	r3, [pc, #280]	; (87803f54 <simple_strtoull+0x16c>)
87803e3c:	58f3      	ldr	r3, [r6, r3]
87803e3e:	5c9b      	ldrb	r3, [r3, r2]
87803e40:	f003 0344 	and.w	r3, r3, #68	; 0x44
87803e44:	2b00      	cmp	r3, #0
87803e46:	d036      	beq.n	87803eb6 <simple_strtoull+0xce>
87803e48:	69fb      	ldr	r3, [r7, #28]
87803e4a:	3301      	adds	r3, #1
87803e4c:	61fb      	str	r3, [r7, #28]
87803e4e:	2310      	movs	r3, #16
87803e50:	617b      	str	r3, [r7, #20]
87803e52:	e030      	b.n	87803eb6 <simple_strtoull+0xce>
87803e54:	697b      	ldr	r3, [r7, #20]
87803e56:	2b10      	cmp	r3, #16
87803e58:	d12d      	bne.n	87803eb6 <simple_strtoull+0xce>
87803e5a:	69fb      	ldr	r3, [r7, #28]
87803e5c:	781b      	ldrb	r3, [r3, #0]
87803e5e:	2b30      	cmp	r3, #48	; 0x30
87803e60:	d129      	bne.n	87803eb6 <simple_strtoull+0xce>
87803e62:	69fb      	ldr	r3, [r7, #28]
87803e64:	3301      	adds	r3, #1
87803e66:	781b      	ldrb	r3, [r3, #0]
87803e68:	4618      	mov	r0, r3
87803e6a:	f7ff feff 	bl	87803c6c <__toupper>
87803e6e:	4603      	mov	r3, r0
87803e70:	2b58      	cmp	r3, #88	; 0x58
87803e72:	d120      	bne.n	87803eb6 <simple_strtoull+0xce>
87803e74:	69fb      	ldr	r3, [r7, #28]
87803e76:	3302      	adds	r3, #2
87803e78:	61fb      	str	r3, [r7, #28]
87803e7a:	e01c      	b.n	87803eb6 <simple_strtoull+0xce>
87803e7c:	697b      	ldr	r3, [r7, #20]
87803e7e:	2200      	movs	r2, #0
87803e80:	4698      	mov	r8, r3
87803e82:	4691      	mov	r9, r2
87803e84:	6abb      	ldr	r3, [r7, #40]	; 0x28
87803e86:	fb09 f203 	mul.w	r2, r9, r3
87803e8a:	6afb      	ldr	r3, [r7, #44]	; 0x2c
87803e8c:	fb08 f303 	mul.w	r3, r8, r3
87803e90:	4413      	add	r3, r2
87803e92:	6aba      	ldr	r2, [r7, #40]	; 0x28
87803e94:	fba2 4508 	umull	r4, r5, r2, r8
87803e98:	442b      	add	r3, r5
87803e9a:	461d      	mov	r5, r3
87803e9c:	e9d7 2308 	ldrd	r2, r3, [r7, #32]
87803ea0:	1911      	adds	r1, r2, r4
87803ea2:	60b9      	str	r1, [r7, #8]
87803ea4:	416b      	adcs	r3, r5
87803ea6:	60fb      	str	r3, [r7, #12]
87803ea8:	e9d7 2302 	ldrd	r2, r3, [r7, #8]
87803eac:	e9c7 230a 	strd	r2, r3, [r7, #40]	; 0x28
87803eb0:	69fb      	ldr	r3, [r7, #28]
87803eb2:	3301      	adds	r3, #1
87803eb4:	61fb      	str	r3, [r7, #28]
87803eb6:	69fb      	ldr	r3, [r7, #28]
87803eb8:	781b      	ldrb	r3, [r3, #0]
87803eba:	461a      	mov	r2, r3
87803ebc:	4b25      	ldr	r3, [pc, #148]	; (87803f54 <simple_strtoull+0x16c>)
87803ebe:	58f3      	ldr	r3, [r6, r3]
87803ec0:	5c9b      	ldrb	r3, [r3, r2]
87803ec2:	f003 0344 	and.w	r3, r3, #68	; 0x44
87803ec6:	2b00      	cmp	r3, #0
87803ec8:	d033      	beq.n	87803f32 <simple_strtoull+0x14a>
87803eca:	69fb      	ldr	r3, [r7, #28]
87803ecc:	781b      	ldrb	r3, [r3, #0]
87803ece:	461a      	mov	r2, r3
87803ed0:	4b20      	ldr	r3, [pc, #128]	; (87803f54 <simple_strtoull+0x16c>)
87803ed2:	58f3      	ldr	r3, [r6, r3]
87803ed4:	5c9b      	ldrb	r3, [r3, r2]
87803ed6:	f003 0304 	and.w	r3, r3, #4
87803eda:	2b00      	cmp	r3, #0
87803edc:	d003      	beq.n	87803ee6 <simple_strtoull+0xfe>
87803ede:	69fb      	ldr	r3, [r7, #28]
87803ee0:	781b      	ldrb	r3, [r3, #0]
87803ee2:	3b30      	subs	r3, #48	; 0x30
87803ee4:	e014      	b.n	87803f10 <simple_strtoull+0x128>
87803ee6:	69fb      	ldr	r3, [r7, #28]
87803ee8:	781b      	ldrb	r3, [r3, #0]
87803eea:	461a      	mov	r2, r3
87803eec:	4b19      	ldr	r3, [pc, #100]	; (87803f54 <simple_strtoull+0x16c>)
87803eee:	58f3      	ldr	r3, [r6, r3]
87803ef0:	5c9b      	ldrb	r3, [r3, r2]
87803ef2:	f003 0302 	and.w	r3, r3, #2
87803ef6:	2b00      	cmp	r3, #0
87803ef8:	d007      	beq.n	87803f0a <simple_strtoull+0x122>
87803efa:	69fb      	ldr	r3, [r7, #28]
87803efc:	781b      	ldrb	r3, [r3, #0]
87803efe:	4618      	mov	r0, r3
87803f00:	f7ff feb4 	bl	87803c6c <__toupper>
87803f04:	4603      	mov	r3, r0
87803f06:	3b37      	subs	r3, #55	; 0x37
87803f08:	e002      	b.n	87803f10 <simple_strtoull+0x128>
87803f0a:	69fb      	ldr	r3, [r7, #28]
87803f0c:	781b      	ldrb	r3, [r3, #0]
87803f0e:	3b37      	subs	r3, #55	; 0x37
87803f10:	17da      	asrs	r2, r3, #31
87803f12:	603b      	str	r3, [r7, #0]
87803f14:	607a      	str	r2, [r7, #4]
87803f16:	e9d7 2300 	ldrd	r2, r3, [r7]
87803f1a:	e9c7 2308 	strd	r2, r3, [r7, #32]
87803f1e:	697b      	ldr	r3, [r7, #20]
87803f20:	2200      	movs	r2, #0
87803f22:	469a      	mov	sl, r3
87803f24:	4693      	mov	fp, r2
87803f26:	e9d7 2308 	ldrd	r2, r3, [r7, #32]
87803f2a:	4552      	cmp	r2, sl
87803f2c:	eb73 030b 	sbcs.w	r3, r3, fp
87803f30:	d3a4      	bcc.n	87803e7c <simple_strtoull+0x94>
87803f32:	69bb      	ldr	r3, [r7, #24]
87803f34:	2b00      	cmp	r3, #0
87803f36:	d002      	beq.n	87803f3e <simple_strtoull+0x156>
87803f38:	69bb      	ldr	r3, [r7, #24]
87803f3a:	69fa      	ldr	r2, [r7, #28]
87803f3c:	601a      	str	r2, [r3, #0]
87803f3e:	e9d7 230a 	ldrd	r2, r3, [r7, #40]	; 0x28
87803f42:	4610      	mov	r0, r2
87803f44:	4619      	mov	r1, r3
87803f46:	3734      	adds	r7, #52	; 0x34
87803f48:	46bd      	mov	sp, r7
87803f4a:	e8bd 8ff0 	ldmia.w	sp!, {r4, r5, r6, r7, r8, r9, sl, fp, pc}
87803f4e:	bf00      	nop
87803f50:	00006600 	andeq	r6, r0, r0, lsl #12
87803f54:	00000000 	andeq	r0, r0, r0

87803f58 <simple_strtoll>:
87803f58:	b5b0      	push	{r4, r5, r7, lr}
87803f5a:	b084      	sub	sp, #16
87803f5c:	af00      	add	r7, sp, #0
87803f5e:	60f8      	str	r0, [r7, #12]
87803f60:	60b9      	str	r1, [r7, #8]
87803f62:	607a      	str	r2, [r7, #4]
87803f64:	68fb      	ldr	r3, [r7, #12]
87803f66:	781b      	ldrb	r3, [r3, #0]
87803f68:	2b2d      	cmp	r3, #45	; 0x2d
87803f6a:	d10f      	bne.n	87803f8c <simple_strtoll+0x34>
87803f6c:	68fb      	ldr	r3, [r7, #12]
87803f6e:	3301      	adds	r3, #1
87803f70:	687a      	ldr	r2, [r7, #4]
87803f72:	68b9      	ldr	r1, [r7, #8]
87803f74:	4618      	mov	r0, r3
87803f76:	f7ff ff37 	bl	87803de8 <simple_strtoull>
87803f7a:	4602      	mov	r2, r0
87803f7c:	460b      	mov	r3, r1
87803f7e:	2100      	movs	r1, #0
87803f80:	4254      	negs	r4, r2
87803f82:	eb61 0503 	sbc.w	r5, r1, r3
87803f86:	4622      	mov	r2, r4
87803f88:	462b      	mov	r3, r5
87803f8a:	e006      	b.n	87803f9a <simple_strtoll+0x42>
87803f8c:	687a      	ldr	r2, [r7, #4]
87803f8e:	68b9      	ldr	r1, [r7, #8]
87803f90:	68f8      	ldr	r0, [r7, #12]
87803f92:	f7ff ff29 	bl	87803de8 <simple_strtoull>
87803f96:	4602      	mov	r2, r0
87803f98:	460b      	mov	r3, r1
87803f9a:	4610      	mov	r0, r2
87803f9c:	4619      	mov	r1, r3
87803f9e:	3710      	adds	r7, #16
87803fa0:	46bd      	mov	sp, r7
87803fa2:	bdb0      	pop	{r4, r5, r7, pc}

87803fa4 <skip_atoi>:
87803fa4:	b490      	push	{r4, r7}
87803fa6:	b084      	sub	sp, #16
87803fa8:	af00      	add	r7, sp, #0
87803faa:	6078      	str	r0, [r7, #4]
87803fac:	4a11      	ldr	r2, [pc, #68]	; (87803ff4 <skip_atoi+0x50>)
87803fae:	447a      	add	r2, pc
87803fb0:	2300      	movs	r3, #0
87803fb2:	60fb      	str	r3, [r7, #12]
87803fb4:	e00c      	b.n	87803fd0 <skip_atoi+0x2c>
87803fb6:	68fb      	ldr	r3, [r7, #12]
87803fb8:	210a      	movs	r1, #10
87803fba:	fb03 f101 	mul.w	r1, r3, r1
87803fbe:	687b      	ldr	r3, [r7, #4]
87803fc0:	681b      	ldr	r3, [r3, #0]
87803fc2:	1c5c      	adds	r4, r3, #1
87803fc4:	6878      	ldr	r0, [r7, #4]
87803fc6:	6004      	str	r4, [r0, #0]
87803fc8:	781b      	ldrb	r3, [r3, #0]
87803fca:	440b      	add	r3, r1
87803fcc:	3b30      	subs	r3, #48	; 0x30
87803fce:	60fb      	str	r3, [r7, #12]
87803fd0:	687b      	ldr	r3, [r7, #4]
87803fd2:	681b      	ldr	r3, [r3, #0]
87803fd4:	781b      	ldrb	r3, [r3, #0]
87803fd6:	4619      	mov	r1, r3
87803fd8:	4b07      	ldr	r3, [pc, #28]	; (87803ff8 <skip_atoi+0x54>)
87803fda:	58d3      	ldr	r3, [r2, r3]
87803fdc:	5c5b      	ldrb	r3, [r3, r1]
87803fde:	f003 0304 	and.w	r3, r3, #4
87803fe2:	2b00      	cmp	r3, #0
87803fe4:	d1e7      	bne.n	87803fb6 <skip_atoi+0x12>
87803fe6:	68fb      	ldr	r3, [r7, #12]
87803fe8:	4618      	mov	r0, r3
87803fea:	3710      	adds	r7, #16
87803fec:	46bd      	mov	sp, r7
87803fee:	bc90      	pop	{r4, r7}
87803ff0:	4770      	bx	lr
87803ff2:	bf00      	nop
87803ff4:	0000644a 	andeq	r6, r0, sl, asr #8
87803ff8:	00000000 	andeq	r0, r0, r0

87803ffc <put_dec_trunc>:
87803ffc:	b480      	push	{r7}
87803ffe:	b087      	sub	sp, #28
87804000:	af00      	add	r7, sp, #0
87804002:	6078      	str	r0, [r7, #4]
87804004:	6039      	str	r1, [r7, #0]
87804006:	683b      	ldr	r3, [r7, #0]
87804008:	091b      	lsrs	r3, r3, #4
8780400a:	f003 030f 	and.w	r3, r3, #15
8780400e:	617b      	str	r3, [r7, #20]
87804010:	683b      	ldr	r3, [r7, #0]
87804012:	0a1b      	lsrs	r3, r3, #8
87804014:	f003 030f 	and.w	r3, r3, #15
87804018:	613b      	str	r3, [r7, #16]
8780401a:	683b      	ldr	r3, [r7, #0]
8780401c:	0b1b      	lsrs	r3, r3, #12
8780401e:	60fb      	str	r3, [r7, #12]
87804020:	68fa      	ldr	r2, [r7, #12]
87804022:	693b      	ldr	r3, [r7, #16]
87804024:	441a      	add	r2, r3
87804026:	697b      	ldr	r3, [r7, #20]
87804028:	4413      	add	r3, r2
8780402a:	2206      	movs	r2, #6
8780402c:	fb03 f202 	mul.w	r2, r3, r2
87804030:	683b      	ldr	r3, [r7, #0]
87804032:	f003 030f 	and.w	r3, r3, #15
87804036:	4413      	add	r3, r2
87804038:	60bb      	str	r3, [r7, #8]
8780403a:	68bb      	ldr	r3, [r7, #8]
8780403c:	22cd      	movs	r2, #205	; 0xcd
8780403e:	fb02 f303 	mul.w	r3, r2, r3
87804042:	0adb      	lsrs	r3, r3, #11
87804044:	603b      	str	r3, [r7, #0]
87804046:	683b      	ldr	r3, [r7, #0]
87804048:	220a      	movs	r2, #10
8780404a:	fb02 f303 	mul.w	r3, r2, r3
8780404e:	68ba      	ldr	r2, [r7, #8]
87804050:	1ad3      	subs	r3, r2, r3
87804052:	60bb      	str	r3, [r7, #8]
87804054:	68bb      	ldr	r3, [r7, #8]
87804056:	b2da      	uxtb	r2, r3
87804058:	687b      	ldr	r3, [r7, #4]
8780405a:	1c59      	adds	r1, r3, #1
8780405c:	6079      	str	r1, [r7, #4]
8780405e:	3230      	adds	r2, #48	; 0x30
87804060:	b2d2      	uxtb	r2, r2
87804062:	701a      	strb	r2, [r3, #0]
87804064:	68fa      	ldr	r2, [r7, #12]
87804066:	4613      	mov	r3, r2
87804068:	00db      	lsls	r3, r3, #3
8780406a:	1899      	adds	r1, r3, r2
8780406c:	693a      	ldr	r2, [r7, #16]
8780406e:	4613      	mov	r3, r2
87804070:	009b      	lsls	r3, r3, #2
87804072:	4413      	add	r3, r2
87804074:	18ca      	adds	r2, r1, r3
87804076:	683b      	ldr	r3, [r7, #0]
87804078:	4413      	add	r3, r2
8780407a:	697a      	ldr	r2, [r7, #20]
8780407c:	4413      	add	r3, r2
8780407e:	617b      	str	r3, [r7, #20]
87804080:	697b      	ldr	r3, [r7, #20]
87804082:	2b00      	cmp	r3, #0
87804084:	d05c      	beq.n	87804140 <put_dec_trunc+0x144>
87804086:	697b      	ldr	r3, [r7, #20]
87804088:	22cd      	movs	r2, #205	; 0xcd
8780408a:	fb02 f303 	mul.w	r3, r2, r3
8780408e:	0adb      	lsrs	r3, r3, #11
87804090:	603b      	str	r3, [r7, #0]
87804092:	683b      	ldr	r3, [r7, #0]
87804094:	220a      	movs	r2, #10
87804096:	fb02 f303 	mul.w	r3, r2, r3
8780409a:	697a      	ldr	r2, [r7, #20]
8780409c:	1ad3      	subs	r3, r2, r3
8780409e:	617b      	str	r3, [r7, #20]
878040a0:	697b      	ldr	r3, [r7, #20]
878040a2:	b2da      	uxtb	r2, r3
878040a4:	687b      	ldr	r3, [r7, #4]
878040a6:	1c59      	adds	r1, r3, #1
878040a8:	6079      	str	r1, [r7, #4]
878040aa:	3230      	adds	r2, #48	; 0x30
878040ac:	b2d2      	uxtb	r2, r2
878040ae:	701a      	strb	r2, [r3, #0]
878040b0:	693b      	ldr	r3, [r7, #16]
878040b2:	005b      	lsls	r3, r3, #1
878040b4:	683a      	ldr	r2, [r7, #0]
878040b6:	4413      	add	r3, r2
878040b8:	613b      	str	r3, [r7, #16]
878040ba:	693b      	ldr	r3, [r7, #16]
878040bc:	2b00      	cmp	r3, #0
878040be:	d102      	bne.n	878040c6 <put_dec_trunc+0xca>
878040c0:	68fb      	ldr	r3, [r7, #12]
878040c2:	2b00      	cmp	r3, #0
878040c4:	d03c      	beq.n	87804140 <put_dec_trunc+0x144>
878040c6:	693b      	ldr	r3, [r7, #16]
878040c8:	220d      	movs	r2, #13
878040ca:	fb02 f303 	mul.w	r3, r2, r3
878040ce:	09db      	lsrs	r3, r3, #7
878040d0:	603b      	str	r3, [r7, #0]
878040d2:	683b      	ldr	r3, [r7, #0]
878040d4:	220a      	movs	r2, #10
878040d6:	fb02 f303 	mul.w	r3, r2, r3
878040da:	693a      	ldr	r2, [r7, #16]
878040dc:	1ad3      	subs	r3, r2, r3
878040de:	613b      	str	r3, [r7, #16]
878040e0:	693b      	ldr	r3, [r7, #16]
878040e2:	b2da      	uxtb	r2, r3
878040e4:	687b      	ldr	r3, [r7, #4]
878040e6:	1c59      	adds	r1, r3, #1
878040e8:	6079      	str	r1, [r7, #4]
878040ea:	3230      	adds	r2, #48	; 0x30
878040ec:	b2d2      	uxtb	r2, r2
878040ee:	701a      	strb	r2, [r3, #0]
878040f0:	68fb      	ldr	r3, [r7, #12]
878040f2:	009b      	lsls	r3, r3, #2
878040f4:	683a      	ldr	r2, [r7, #0]
878040f6:	4413      	add	r3, r2
878040f8:	60fb      	str	r3, [r7, #12]
878040fa:	68fb      	ldr	r3, [r7, #12]
878040fc:	2b00      	cmp	r3, #0
878040fe:	d01f      	beq.n	87804140 <put_dec_trunc+0x144>
87804100:	68fb      	ldr	r3, [r7, #12]
87804102:	22cd      	movs	r2, #205	; 0xcd
87804104:	fb02 f303 	mul.w	r3, r2, r3
87804108:	0adb      	lsrs	r3, r3, #11
8780410a:	603b      	str	r3, [r7, #0]
8780410c:	683b      	ldr	r3, [r7, #0]
8780410e:	220a      	movs	r2, #10
87804110:	fb02 f303 	mul.w	r3, r2, r3
87804114:	68fa      	ldr	r2, [r7, #12]
87804116:	1ad3      	subs	r3, r2, r3
87804118:	60fb      	str	r3, [r7, #12]
8780411a:	68fb      	ldr	r3, [r7, #12]
8780411c:	b2da      	uxtb	r2, r3
8780411e:	687b      	ldr	r3, [r7, #4]
87804120:	1c59      	adds	r1, r3, #1
87804122:	6079      	str	r1, [r7, #4]
87804124:	3230      	adds	r2, #48	; 0x30
87804126:	b2d2      	uxtb	r2, r2
87804128:	701a      	strb	r2, [r3, #0]
8780412a:	683b      	ldr	r3, [r7, #0]
8780412c:	2b00      	cmp	r3, #0
8780412e:	d007      	beq.n	87804140 <put_dec_trunc+0x144>
87804130:	683b      	ldr	r3, [r7, #0]
87804132:	b2da      	uxtb	r2, r3
87804134:	687b      	ldr	r3, [r7, #4]
87804136:	1c59      	adds	r1, r3, #1
87804138:	6079      	str	r1, [r7, #4]
8780413a:	3230      	adds	r2, #48	; 0x30
8780413c:	b2d2      	uxtb	r2, r2
8780413e:	701a      	strb	r2, [r3, #0]
87804140:	687b      	ldr	r3, [r7, #4]
87804142:	4618      	mov	r0, r3
87804144:	371c      	adds	r7, #28
87804146:	46bd      	mov	sp, r7
87804148:	f85d 7b04 	ldr.w	r7, [sp], #4
8780414c:	4770      	bx	lr

8780414e <put_dec_full>:
8780414e:	b480      	push	{r7}
87804150:	b087      	sub	sp, #28
87804152:	af00      	add	r7, sp, #0
87804154:	6078      	str	r0, [r7, #4]
87804156:	6039      	str	r1, [r7, #0]
87804158:	683b      	ldr	r3, [r7, #0]
8780415a:	091b      	lsrs	r3, r3, #4
8780415c:	f003 030f 	and.w	r3, r3, #15
87804160:	617b      	str	r3, [r7, #20]
87804162:	683b      	ldr	r3, [r7, #0]
87804164:	0a1b      	lsrs	r3, r3, #8
87804166:	f003 030f 	and.w	r3, r3, #15
8780416a:	613b      	str	r3, [r7, #16]
8780416c:	683b      	ldr	r3, [r7, #0]
8780416e:	0b1b      	lsrs	r3, r3, #12
87804170:	60fb      	str	r3, [r7, #12]
87804172:	68fa      	ldr	r2, [r7, #12]
87804174:	693b      	ldr	r3, [r7, #16]
87804176:	441a      	add	r2, r3
87804178:	697b      	ldr	r3, [r7, #20]
8780417a:	4413      	add	r3, r2
8780417c:	2206      	movs	r2, #6
8780417e:	fb03 f202 	mul.w	r2, r3, r2
87804182:	683b      	ldr	r3, [r7, #0]
87804184:	f003 030f 	and.w	r3, r3, #15
87804188:	4413      	add	r3, r2
8780418a:	60bb      	str	r3, [r7, #8]
8780418c:	68bb      	ldr	r3, [r7, #8]
8780418e:	22cd      	movs	r2, #205	; 0xcd
87804190:	fb02 f303 	mul.w	r3, r2, r3
87804194:	0adb      	lsrs	r3, r3, #11
87804196:	603b      	str	r3, [r7, #0]
87804198:	683b      	ldr	r3, [r7, #0]
8780419a:	220a      	movs	r2, #10
8780419c:	fb02 f303 	mul.w	r3, r2, r3
878041a0:	68ba      	ldr	r2, [r7, #8]
878041a2:	1ad3      	subs	r3, r2, r3
878041a4:	60bb      	str	r3, [r7, #8]
878041a6:	68bb      	ldr	r3, [r7, #8]
878041a8:	b2da      	uxtb	r2, r3
878041aa:	687b      	ldr	r3, [r7, #4]
878041ac:	1c59      	adds	r1, r3, #1
878041ae:	6079      	str	r1, [r7, #4]
878041b0:	3230      	adds	r2, #48	; 0x30
878041b2:	b2d2      	uxtb	r2, r2
878041b4:	701a      	strb	r2, [r3, #0]
878041b6:	68fa      	ldr	r2, [r7, #12]
878041b8:	4613      	mov	r3, r2
878041ba:	00db      	lsls	r3, r3, #3
878041bc:	1899      	adds	r1, r3, r2
878041be:	693a      	ldr	r2, [r7, #16]
878041c0:	4613      	mov	r3, r2
878041c2:	009b      	lsls	r3, r3, #2
878041c4:	4413      	add	r3, r2
878041c6:	18ca      	adds	r2, r1, r3
878041c8:	683b      	ldr	r3, [r7, #0]
878041ca:	4413      	add	r3, r2
878041cc:	697a      	ldr	r2, [r7, #20]
878041ce:	4413      	add	r3, r2
878041d0:	617b      	str	r3, [r7, #20]
878041d2:	697b      	ldr	r3, [r7, #20]
878041d4:	22cd      	movs	r2, #205	; 0xcd
878041d6:	fb02 f303 	mul.w	r3, r2, r3
878041da:	0adb      	lsrs	r3, r3, #11
878041dc:	603b      	str	r3, [r7, #0]
878041de:	683b      	ldr	r3, [r7, #0]
878041e0:	220a      	movs	r2, #10
878041e2:	fb02 f303 	mul.w	r3, r2, r3
878041e6:	697a      	ldr	r2, [r7, #20]
878041e8:	1ad3      	subs	r3, r2, r3
878041ea:	617b      	str	r3, [r7, #20]
878041ec:	697b      	ldr	r3, [r7, #20]
878041ee:	b2da      	uxtb	r2, r3
878041f0:	687b      	ldr	r3, [r7, #4]
878041f2:	1c59      	adds	r1, r3, #1
878041f4:	6079      	str	r1, [r7, #4]
878041f6:	3230      	adds	r2, #48	; 0x30
878041f8:	b2d2      	uxtb	r2, r2
878041fa:	701a      	strb	r2, [r3, #0]
878041fc:	693b      	ldr	r3, [r7, #16]
878041fe:	005b      	lsls	r3, r3, #1
87804200:	683a      	ldr	r2, [r7, #0]
87804202:	4413      	add	r3, r2
87804204:	613b      	str	r3, [r7, #16]
87804206:	693b      	ldr	r3, [r7, #16]
87804208:	220d      	movs	r2, #13
8780420a:	fb02 f303 	mul.w	r3, r2, r3
8780420e:	09db      	lsrs	r3, r3, #7
87804210:	603b      	str	r3, [r7, #0]
87804212:	683b      	ldr	r3, [r7, #0]
87804214:	220a      	movs	r2, #10
87804216:	fb02 f303 	mul.w	r3, r2, r3
8780421a:	693a      	ldr	r2, [r7, #16]
8780421c:	1ad3      	subs	r3, r2, r3
8780421e:	613b      	str	r3, [r7, #16]
87804220:	693b      	ldr	r3, [r7, #16]
87804222:	b2da      	uxtb	r2, r3
87804224:	687b      	ldr	r3, [r7, #4]
87804226:	1c59      	adds	r1, r3, #1
87804228:	6079      	str	r1, [r7, #4]
8780422a:	3230      	adds	r2, #48	; 0x30
8780422c:	b2d2      	uxtb	r2, r2
8780422e:	701a      	strb	r2, [r3, #0]
87804230:	68fb      	ldr	r3, [r7, #12]
87804232:	009b      	lsls	r3, r3, #2
87804234:	683a      	ldr	r2, [r7, #0]
87804236:	4413      	add	r3, r2
87804238:	60fb      	str	r3, [r7, #12]
8780423a:	68fb      	ldr	r3, [r7, #12]
8780423c:	22cd      	movs	r2, #205	; 0xcd
8780423e:	fb02 f303 	mul.w	r3, r2, r3
87804242:	0adb      	lsrs	r3, r3, #11
87804244:	603b      	str	r3, [r7, #0]
87804246:	683b      	ldr	r3, [r7, #0]
87804248:	220a      	movs	r2, #10
8780424a:	fb02 f303 	mul.w	r3, r2, r3
8780424e:	68fa      	ldr	r2, [r7, #12]
87804250:	1ad3      	subs	r3, r2, r3
87804252:	60fb      	str	r3, [r7, #12]
87804254:	68fb      	ldr	r3, [r7, #12]
87804256:	b2da      	uxtb	r2, r3
87804258:	687b      	ldr	r3, [r7, #4]
8780425a:	1c59      	adds	r1, r3, #1
8780425c:	6079      	str	r1, [r7, #4]
8780425e:	3230      	adds	r2, #48	; 0x30
87804260:	b2d2      	uxtb	r2, r2
87804262:	701a      	strb	r2, [r3, #0]
87804264:	683b      	ldr	r3, [r7, #0]
87804266:	b2da      	uxtb	r2, r3
87804268:	687b      	ldr	r3, [r7, #4]
8780426a:	1c59      	adds	r1, r3, #1
8780426c:	6079      	str	r1, [r7, #4]
8780426e:	3230      	adds	r2, #48	; 0x30
87804270:	b2d2      	uxtb	r2, r2
87804272:	701a      	strb	r2, [r3, #0]
87804274:	687b      	ldr	r3, [r7, #4]
87804276:	4618      	mov	r0, r3
87804278:	371c      	adds	r7, #28
8780427a:	46bd      	mov	sp, r7
8780427c:	f85d 7b04 	ldr.w	r7, [sp], #4
87804280:	4770      	bx	lr

87804282 <put_dec>:
87804282:	b5b0      	push	{r4, r5, r7, lr}
87804284:	b088      	sub	sp, #32
87804286:	af00      	add	r7, sp, #0
87804288:	60f8      	str	r0, [r7, #12]
8780428a:	e9c7 2300 	strd	r2, r3, [r7]
8780428e:	e9d7 2300 	ldrd	r2, r3, [r7]
87804292:	f248 61a0 	movw	r1, #34464	; 0x86a0
87804296:	f2c0 0101 	movt	r1, #1
8780429a:	428a      	cmp	r2, r1
8780429c:	f173 0300 	sbcs.w	r3, r3, #0
878042a0:	d208      	bcs.n	878042b4 <put_dec+0x32>
878042a2:	e9d7 2300 	ldrd	r2, r3, [r7]
878042a6:	4613      	mov	r3, r2
878042a8:	4619      	mov	r1, r3
878042aa:	68f8      	ldr	r0, [r7, #12]
878042ac:	f7ff fea6 	bl	87803ffc <put_dec_trunc>
878042b0:	4603      	mov	r3, r0
878042b2:	e034      	b.n	8780431e <put_dec+0x9c>
878042b4:	f248 63a0 	movw	r3, #34464	; 0x86a0
878042b8:	f2c0 0301 	movt	r3, #1
878042bc:	61bb      	str	r3, [r7, #24]
878042be:	e9d7 0100 	ldrd	r0, r1, [r7]
878042c2:	f04f 0200 	mov.w	r2, #0
878042c6:	f04f 0300 	mov.w	r3, #0
878042ca:	000a      	movs	r2, r1
878042cc:	2300      	movs	r3, #0
878042ce:	4313      	orrs	r3, r2
878042d0:	d117      	bne.n	87804302 <put_dec+0x80>
878042d2:	e9d7 2300 	ldrd	r2, r3, [r7]
878042d6:	4613      	mov	r3, r2
878042d8:	69b9      	ldr	r1, [r7, #24]
878042da:	4618      	mov	r0, r3
878042dc:	f001 fb52 	bl	87805984 <__aeabi_uidivmod>
878042e0:	460b      	mov	r3, r1
878042e2:	61fb      	str	r3, [r7, #28]
878042e4:	e9d7 2300 	ldrd	r2, r3, [r7]
878042e8:	4613      	mov	r3, r2
878042ea:	69b9      	ldr	r1, [r7, #24]
878042ec:	4618      	mov	r0, r3
878042ee:	f001 fa1b 	bl	87805728 <__udivsi3>
878042f2:	4603      	mov	r3, r0
878042f4:	461a      	mov	r2, r3
878042f6:	2300      	movs	r3, #0
878042f8:	4614      	mov	r4, r2
878042fa:	461d      	mov	r5, r3
878042fc:	e9c7 4500 	strd	r4, r5, [r7]
87804300:	e005      	b.n	8780430e <put_dec+0x8c>
87804302:	463b      	mov	r3, r7
87804304:	69b9      	ldr	r1, [r7, #24]
87804306:	4618      	mov	r0, r3
87804308:	f7fe ffa2 	bl	87803250 <__div64_32>
8780430c:	61f8      	str	r0, [r7, #28]
8780430e:	69fb      	ldr	r3, [r7, #28]
87804310:	617b      	str	r3, [r7, #20]
87804312:	6979      	ldr	r1, [r7, #20]
87804314:	68f8      	ldr	r0, [r7, #12]
87804316:	f7ff ff1a 	bl	8780414e <put_dec_full>
8780431a:	60f8      	str	r0, [r7, #12]
8780431c:	e7b7      	b.n	8780428e <put_dec+0xc>
8780431e:	4618      	mov	r0, r3
87804320:	3720      	adds	r7, #32
87804322:	46bd      	mov	sp, r7
87804324:	bdb0      	pop	{r4, r5, r7, pc}

87804326 <number>:
87804326:	e92d 43f0 	stmdb	sp!, {r4, r5, r6, r7, r8, r9, lr}
8780432a:	b0a5      	sub	sp, #148	; 0x94
8780432c:	af00      	add	r7, sp, #0
8780432e:	60f8      	str	r0, [r7, #12]
87804330:	60b9      	str	r1, [r7, #8]
87804332:	e9c7 2300 	strd	r2, r3, [r7]
87804336:	f8d7 30bc 	ldr.w	r3, [r7, #188]	; 0xbc
8780433a:	f003 0320 	and.w	r3, r3, #32
8780433e:	2b00      	cmp	r3, #0
87804340:	d005      	beq.n	8780434e <number+0x28>
87804342:	f8d7 30b0 	ldr.w	r3, [r7, #176]	; 0xb0
87804346:	2b0a      	cmp	r3, #10
87804348:	d001      	beq.n	8780434e <number+0x28>
8780434a:	2301      	movs	r3, #1
8780434c:	e000      	b.n	87804350 <number+0x2a>
8780434e:	2300      	movs	r3, #0
87804350:	f8c7 3080 	str.w	r3, [r7, #128]	; 0x80
87804354:	f8d7 30bc 	ldr.w	r3, [r7, #188]	; 0xbc
87804358:	b2db      	uxtb	r3, r3
8780435a:	f003 0320 	and.w	r3, r3, #32
8780435e:	f887 307f 	strb.w	r3, [r7, #127]	; 0x7f
87804362:	f8d7 30bc 	ldr.w	r3, [r7, #188]	; 0xbc
87804366:	f003 0310 	and.w	r3, r3, #16
8780436a:	2b00      	cmp	r3, #0
8780436c:	d005      	beq.n	8780437a <number+0x54>
8780436e:	f8d7 30bc 	ldr.w	r3, [r7, #188]	; 0xbc
87804372:	f023 0301 	bic.w	r3, r3, #1
87804376:	f8c7 30bc 	str.w	r3, [r7, #188]	; 0xbc
8780437a:	2300      	movs	r3, #0
8780437c:	f887 308f 	strb.w	r3, [r7, #143]	; 0x8f
87804380:	f8d7 30bc 	ldr.w	r3, [r7, #188]	; 0xbc
87804384:	f003 0302 	and.w	r3, r3, #2
87804388:	2b00      	cmp	r3, #0
8780438a:	d032      	beq.n	878043f2 <number+0xcc>
8780438c:	e9d7 2300 	ldrd	r2, r3, [r7]
87804390:	2b00      	cmp	r3, #0
87804392:	da11      	bge.n	878043b8 <number+0x92>
87804394:	232d      	movs	r3, #45	; 0x2d
87804396:	f887 308f 	strb.w	r3, [r7, #143]	; 0x8f
8780439a:	e9d7 2300 	ldrd	r2, r3, [r7]
8780439e:	2100      	movs	r1, #0
878043a0:	f1d2 0800 	rsbs	r8, r2, #0
878043a4:	eb61 0903 	sbc.w	r9, r1, r3
878043a8:	e9c7 8900 	strd	r8, r9, [r7]
878043ac:	f8d7 30b4 	ldr.w	r3, [r7, #180]	; 0xb4
878043b0:	3b01      	subs	r3, #1
878043b2:	f8c7 30b4 	str.w	r3, [r7, #180]	; 0xb4
878043b6:	e01c      	b.n	878043f2 <number+0xcc>
878043b8:	f8d7 30bc 	ldr.w	r3, [r7, #188]	; 0xbc
878043bc:	f003 0304 	and.w	r3, r3, #4
878043c0:	2b00      	cmp	r3, #0
878043c2:	d008      	beq.n	878043d6 <number+0xb0>
878043c4:	232b      	movs	r3, #43	; 0x2b
878043c6:	f887 308f 	strb.w	r3, [r7, #143]	; 0x8f
878043ca:	f8d7 30b4 	ldr.w	r3, [r7, #180]	; 0xb4
878043ce:	3b01      	subs	r3, #1
878043d0:	f8c7 30b4 	str.w	r3, [r7, #180]	; 0xb4
878043d4:	e00d      	b.n	878043f2 <number+0xcc>
878043d6:	f8d7 30bc 	ldr.w	r3, [r7, #188]	; 0xbc
878043da:	f003 0308 	and.w	r3, r3, #8
878043de:	2b00      	cmp	r3, #0
878043e0:	d007      	beq.n	878043f2 <number+0xcc>
878043e2:	2320      	movs	r3, #32
878043e4:	f887 308f 	strb.w	r3, [r7, #143]	; 0x8f
878043e8:	f8d7 30b4 	ldr.w	r3, [r7, #180]	; 0xb4
878043ec:	3b01      	subs	r3, #1
878043ee:	f8c7 30b4 	str.w	r3, [r7, #180]	; 0xb4
878043f2:	f8d7 3080 	ldr.w	r3, [r7, #128]	; 0x80
878043f6:	2b00      	cmp	r3, #0
878043f8:	d00d      	beq.n	87804416 <number+0xf0>
878043fa:	f8d7 30b4 	ldr.w	r3, [r7, #180]	; 0xb4
878043fe:	3b01      	subs	r3, #1
87804400:	f8c7 30b4 	str.w	r3, [r7, #180]	; 0xb4
87804404:	f8d7 30b0 	ldr.w	r3, [r7, #176]	; 0xb0
87804408:	2b10      	cmp	r3, #16
8780440a:	d104      	bne.n	87804416 <number+0xf0>
8780440c:	f8d7 30b4 	ldr.w	r3, [r7, #180]	; 0xb4
87804410:	3b01      	subs	r3, #1
87804412:	f8c7 30b4 	str.w	r3, [r7, #180]	; 0xb4
87804416:	2300      	movs	r3, #0
87804418:	f8c7 3088 	str.w	r3, [r7, #136]	; 0x88
8780441c:	e9d7 2300 	ldrd	r2, r3, [r7]
87804420:	4313      	orrs	r3, r2
87804422:	d10a      	bne.n	8780443a <number+0x114>
87804424:	f8d7 3088 	ldr.w	r3, [r7, #136]	; 0x88
87804428:	1c5a      	adds	r2, r3, #1
8780442a:	f8c7 2088 	str.w	r2, [r7, #136]	; 0x88
8780442e:	3390      	adds	r3, #144	; 0x90
87804430:	443b      	add	r3, r7
87804432:	2230      	movs	r2, #48	; 0x30
87804434:	f803 2c80 	strb.w	r2, [r3, #-128]
87804438:	e04d      	b.n	878044d6 <number+0x1b0>
8780443a:	f8d7 30b0 	ldr.w	r3, [r7, #176]	; 0xb0
8780443e:	2b0a      	cmp	r3, #10
87804440:	d03c      	beq.n	878044bc <number+0x196>
87804442:	f8d7 30b0 	ldr.w	r3, [r7, #176]	; 0xb0
87804446:	3b01      	subs	r3, #1
87804448:	67bb      	str	r3, [r7, #120]	; 0x78
8780444a:	2303      	movs	r3, #3
8780444c:	f8c7 3084 	str.w	r3, [r7, #132]	; 0x84
87804450:	f8d7 30b0 	ldr.w	r3, [r7, #176]	; 0xb0
87804454:	2b10      	cmp	r3, #16
87804456:	d102      	bne.n	8780445e <number+0x138>
87804458:	2304      	movs	r3, #4
8780445a:	f8c7 3084 	str.w	r3, [r7, #132]	; 0x84
8780445e:	783b      	ldrb	r3, [r7, #0]
87804460:	461a      	mov	r2, r3
87804462:	6fbb      	ldr	r3, [r7, #120]	; 0x78
87804464:	4013      	ands	r3, r2
87804466:	4a80      	ldr	r2, [pc, #512]	; (87804668 <number+0x342>)
87804468:	447a      	add	r2, pc
8780446a:	5cd1      	ldrb	r1, [r2, r3]
8780446c:	f8d7 3088 	ldr.w	r3, [r7, #136]	; 0x88
87804470:	1c5a      	adds	r2, r3, #1
87804472:	f8c7 2088 	str.w	r2, [r7, #136]	; 0x88
87804476:	f897 207f 	ldrb.w	r2, [r7, #127]	; 0x7f
8780447a:	430a      	orrs	r2, r1
8780447c:	b2d2      	uxtb	r2, r2
8780447e:	3390      	adds	r3, #144	; 0x90
87804480:	443b      	add	r3, r7
87804482:	f803 2c80 	strb.w	r2, [r3, #-128]
87804486:	e9d7 2300 	ldrd	r2, r3, [r7]
8780448a:	f8d7 1084 	ldr.w	r1, [r7, #132]	; 0x84
8780448e:	f1c1 0620 	rsb	r6, r1, #32
87804492:	f1b1 0020 	subs.w	r0, r1, #32
87804496:	fa22 f401 	lsr.w	r4, r2, r1
8780449a:	fa03 f606 	lsl.w	r6, r3, r6
8780449e:	ea44 0406 	orr.w	r4, r4, r6
878044a2:	d402      	bmi.n	878044aa <number+0x184>
878044a4:	fa43 f000 	asr.w	r0, r3, r0
878044a8:	4304      	orrs	r4, r0
878044aa:	fa43 f501 	asr.w	r5, r3, r1
878044ae:	e9c7 4500 	strd	r4, r5, [r7]
878044b2:	e9d7 2300 	ldrd	r2, r3, [r7]
878044b6:	4313      	orrs	r3, r2
878044b8:	d1d1      	bne.n	8780445e <number+0x138>
878044ba:	e00c      	b.n	878044d6 <number+0x1b0>
878044bc:	e9d7 2300 	ldrd	r2, r3, [r7]
878044c0:	f107 0110 	add.w	r1, r7, #16
878044c4:	4608      	mov	r0, r1
878044c6:	f7ff fedc 	bl	87804282 <put_dec>
878044ca:	4602      	mov	r2, r0
878044cc:	f107 0310 	add.w	r3, r7, #16
878044d0:	1ad3      	subs	r3, r2, r3
878044d2:	f8c7 3088 	str.w	r3, [r7, #136]	; 0x88
878044d6:	f8d7 2088 	ldr.w	r2, [r7, #136]	; 0x88
878044da:	f8d7 30b8 	ldr.w	r3, [r7, #184]	; 0xb8
878044de:	429a      	cmp	r2, r3
878044e0:	dd03      	ble.n	878044ea <number+0x1c4>
878044e2:	f8d7 3088 	ldr.w	r3, [r7, #136]	; 0x88
878044e6:	f8c7 30b8 	str.w	r3, [r7, #184]	; 0xb8
878044ea:	f8d7 20b4 	ldr.w	r2, [r7, #180]	; 0xb4
878044ee:	f8d7 30b8 	ldr.w	r3, [r7, #184]	; 0xb8
878044f2:	1ad3      	subs	r3, r2, r3
878044f4:	f8c7 30b4 	str.w	r3, [r7, #180]	; 0xb4
878044f8:	f8d7 30bc 	ldr.w	r3, [r7, #188]	; 0xbc
878044fc:	f003 0311 	and.w	r3, r3, #17
87804500:	2b00      	cmp	r3, #0
87804502:	d113      	bne.n	8780452c <number+0x206>
87804504:	e009      	b.n	8780451a <number+0x1f4>
87804506:	68fa      	ldr	r2, [r7, #12]
87804508:	68bb      	ldr	r3, [r7, #8]
8780450a:	429a      	cmp	r2, r3
8780450c:	d202      	bcs.n	87804514 <number+0x1ee>
8780450e:	68fb      	ldr	r3, [r7, #12]
87804510:	2220      	movs	r2, #32
87804512:	701a      	strb	r2, [r3, #0]
87804514:	68fb      	ldr	r3, [r7, #12]
87804516:	3301      	adds	r3, #1
87804518:	60fb      	str	r3, [r7, #12]
8780451a:	f8d7 30b4 	ldr.w	r3, [r7, #180]	; 0xb4
8780451e:	3b01      	subs	r3, #1
87804520:	f8c7 30b4 	str.w	r3, [r7, #180]	; 0xb4
87804524:	f8d7 30b4 	ldr.w	r3, [r7, #180]	; 0xb4
87804528:	2b00      	cmp	r3, #0
8780452a:	daec      	bge.n	87804506 <number+0x1e0>
8780452c:	f897 308f 	ldrb.w	r3, [r7, #143]	; 0x8f
87804530:	2b00      	cmp	r3, #0
87804532:	d00a      	beq.n	8780454a <number+0x224>
87804534:	68fa      	ldr	r2, [r7, #12]
87804536:	68bb      	ldr	r3, [r7, #8]
87804538:	429a      	cmp	r2, r3
8780453a:	d203      	bcs.n	87804544 <number+0x21e>
8780453c:	68fb      	ldr	r3, [r7, #12]
8780453e:	f897 208f 	ldrb.w	r2, [r7, #143]	; 0x8f
87804542:	701a      	strb	r2, [r3, #0]
87804544:	68fb      	ldr	r3, [r7, #12]
87804546:	3301      	adds	r3, #1
87804548:	60fb      	str	r3, [r7, #12]
8780454a:	f8d7 3080 	ldr.w	r3, [r7, #128]	; 0x80
8780454e:	2b00      	cmp	r3, #0
87804550:	d01b      	beq.n	8780458a <number+0x264>
87804552:	68fa      	ldr	r2, [r7, #12]
87804554:	68bb      	ldr	r3, [r7, #8]
87804556:	429a      	cmp	r2, r3
87804558:	d202      	bcs.n	87804560 <number+0x23a>
8780455a:	68fb      	ldr	r3, [r7, #12]
8780455c:	2230      	movs	r2, #48	; 0x30
8780455e:	701a      	strb	r2, [r3, #0]
87804560:	68fb      	ldr	r3, [r7, #12]
87804562:	3301      	adds	r3, #1
87804564:	60fb      	str	r3, [r7, #12]
87804566:	f8d7 30b0 	ldr.w	r3, [r7, #176]	; 0xb0
8780456a:	2b10      	cmp	r3, #16
8780456c:	d10d      	bne.n	8780458a <number+0x264>
8780456e:	68fa      	ldr	r2, [r7, #12]
87804570:	68bb      	ldr	r3, [r7, #8]
87804572:	429a      	cmp	r2, r3
87804574:	d206      	bcs.n	87804584 <number+0x25e>
87804576:	f897 307f 	ldrb.w	r3, [r7, #127]	; 0x7f
8780457a:	f043 0358 	orr.w	r3, r3, #88	; 0x58
8780457e:	b2da      	uxtb	r2, r3
87804580:	68fb      	ldr	r3, [r7, #12]
87804582:	701a      	strb	r2, [r3, #0]
87804584:	68fb      	ldr	r3, [r7, #12]
87804586:	3301      	adds	r3, #1
87804588:	60fb      	str	r3, [r7, #12]
8780458a:	f8d7 30bc 	ldr.w	r3, [r7, #188]	; 0xbc
8780458e:	f003 0310 	and.w	r3, r3, #16
87804592:	2b00      	cmp	r3, #0
87804594:	d12a      	bne.n	878045ec <number+0x2c6>
87804596:	f8d7 30bc 	ldr.w	r3, [r7, #188]	; 0xbc
8780459a:	f003 0301 	and.w	r3, r3, #1
8780459e:	2b00      	cmp	r3, #0
878045a0:	d001      	beq.n	878045a6 <number+0x280>
878045a2:	2330      	movs	r3, #48	; 0x30
878045a4:	e000      	b.n	878045a8 <number+0x282>
878045a6:	2320      	movs	r3, #32
878045a8:	f887 3077 	strb.w	r3, [r7, #119]	; 0x77
878045ac:	e00a      	b.n	878045c4 <number+0x29e>
878045ae:	68fa      	ldr	r2, [r7, #12]
878045b0:	68bb      	ldr	r3, [r7, #8]
878045b2:	429a      	cmp	r2, r3
878045b4:	d203      	bcs.n	878045be <number+0x298>
878045b6:	68fb      	ldr	r3, [r7, #12]
878045b8:	f897 2077 	ldrb.w	r2, [r7, #119]	; 0x77
878045bc:	701a      	strb	r2, [r3, #0]
878045be:	68fb      	ldr	r3, [r7, #12]
878045c0:	3301      	adds	r3, #1
878045c2:	60fb      	str	r3, [r7, #12]
878045c4:	f8d7 30b4 	ldr.w	r3, [r7, #180]	; 0xb4
878045c8:	3b01      	subs	r3, #1
878045ca:	f8c7 30b4 	str.w	r3, [r7, #180]	; 0xb4
878045ce:	f8d7 30b4 	ldr.w	r3, [r7, #180]	; 0xb4
878045d2:	2b00      	cmp	r3, #0
878045d4:	daeb      	bge.n	878045ae <number+0x288>
878045d6:	e009      	b.n	878045ec <number+0x2c6>
878045d8:	68fa      	ldr	r2, [r7, #12]
878045da:	68bb      	ldr	r3, [r7, #8]
878045dc:	429a      	cmp	r2, r3
878045de:	d202      	bcs.n	878045e6 <number+0x2c0>
878045e0:	68fb      	ldr	r3, [r7, #12]
878045e2:	2230      	movs	r2, #48	; 0x30
878045e4:	701a      	strb	r2, [r3, #0]
878045e6:	68fb      	ldr	r3, [r7, #12]
878045e8:	3301      	adds	r3, #1
878045ea:	60fb      	str	r3, [r7, #12]
878045ec:	f8d7 30b8 	ldr.w	r3, [r7, #184]	; 0xb8
878045f0:	3b01      	subs	r3, #1
878045f2:	f8c7 30b8 	str.w	r3, [r7, #184]	; 0xb8
878045f6:	f8d7 20b8 	ldr.w	r2, [r7, #184]	; 0xb8
878045fa:	f8d7 3088 	ldr.w	r3, [r7, #136]	; 0x88
878045fe:	429a      	cmp	r2, r3
87804600:	daea      	bge.n	878045d8 <number+0x2b2>
87804602:	e00e      	b.n	87804622 <number+0x2fc>
87804604:	68fa      	ldr	r2, [r7, #12]
87804606:	68bb      	ldr	r3, [r7, #8]
87804608:	429a      	cmp	r2, r3
8780460a:	d207      	bcs.n	8780461c <number+0x2f6>
8780460c:	f107 0210 	add.w	r2, r7, #16
87804610:	f8d7 3088 	ldr.w	r3, [r7, #136]	; 0x88
87804614:	4413      	add	r3, r2
87804616:	781a      	ldrb	r2, [r3, #0]
87804618:	68fb      	ldr	r3, [r7, #12]
8780461a:	701a      	strb	r2, [r3, #0]
8780461c:	68fb      	ldr	r3, [r7, #12]
8780461e:	3301      	adds	r3, #1
87804620:	60fb      	str	r3, [r7, #12]
87804622:	f8d7 3088 	ldr.w	r3, [r7, #136]	; 0x88
87804626:	3b01      	subs	r3, #1
87804628:	f8c7 3088 	str.w	r3, [r7, #136]	; 0x88
8780462c:	f8d7 3088 	ldr.w	r3, [r7, #136]	; 0x88
87804630:	2b00      	cmp	r3, #0
87804632:	dae7      	bge.n	87804604 <number+0x2de>
87804634:	e009      	b.n	8780464a <number+0x324>
87804636:	68fa      	ldr	r2, [r7, #12]
87804638:	68bb      	ldr	r3, [r7, #8]
8780463a:	429a      	cmp	r2, r3
8780463c:	d202      	bcs.n	87804644 <number+0x31e>
8780463e:	68fb      	ldr	r3, [r7, #12]
87804640:	2220      	movs	r2, #32
87804642:	701a      	strb	r2, [r3, #0]
87804644:	68fb      	ldr	r3, [r7, #12]
87804646:	3301      	adds	r3, #1
87804648:	60fb      	str	r3, [r7, #12]
8780464a:	f8d7 30b4 	ldr.w	r3, [r7, #180]	; 0xb4
8780464e:	3b01      	subs	r3, #1
87804650:	f8c7 30b4 	str.w	r3, [r7, #180]	; 0xb4
87804654:	f8d7 30b4 	ldr.w	r3, [r7, #180]	; 0xb4
87804658:	2b00      	cmp	r3, #0
8780465a:	daec      	bge.n	87804636 <number+0x310>
8780465c:	68fb      	ldr	r3, [r7, #12]
8780465e:	4618      	mov	r0, r3
87804660:	3794      	adds	r7, #148	; 0x94
87804662:	46bd      	mov	sp, r7
87804664:	e8bd 83f0 	ldmia.w	sp!, {r4, r5, r6, r7, r8, r9, pc}
87804668:	00005e74 	andeq	r5, r0, r4, ror lr

8780466c <vsnprintf>:
8780466c:	e92d 4ff0 	stmdb	sp!, {r4, r5, r6, r7, r8, r9, sl, fp, lr}
87804670:	b0a3      	sub	sp, #140	; 0x8c
87804672:	af04      	add	r7, sp, #16
87804674:	6378      	str	r0, [r7, #52]	; 0x34
87804676:	6339      	str	r1, [r7, #48]	; 0x30
87804678:	62fa      	str	r2, [r7, #44]	; 0x2c
8780467a:	62bb      	str	r3, [r7, #40]	; 0x28
8780467c:	f8df 46ec 	ldr.w	r4, [pc, #1772]	; 87804d6c <vsnprintf+0x700>
87804680:	447c      	add	r4, pc
87804682:	6b3b      	ldr	r3, [r7, #48]	; 0x30
87804684:	0fdb      	lsrs	r3, r3, #31
87804686:	b2db      	uxtb	r3, r3
87804688:	2b00      	cmp	r3, #0
8780468a:	d001      	beq.n	87804690 <vsnprintf+0x24>
8780468c:	2300      	movs	r3, #0
8780468e:	e368      	b.n	87804d62 <vsnprintf+0x6f6>
87804690:	6b7b      	ldr	r3, [r7, #52]	; 0x34
87804692:	667b      	str	r3, [r7, #100]	; 0x64
87804694:	6b3b      	ldr	r3, [r7, #48]	; 0x30
87804696:	1e5a      	subs	r2, r3, #1
87804698:	6b7b      	ldr	r3, [r7, #52]	; 0x34
8780469a:	4413      	add	r3, r2
8780469c:	663b      	str	r3, [r7, #96]	; 0x60
8780469e:	6b7b      	ldr	r3, [r7, #52]	; 0x34
878046a0:	1e5a      	subs	r2, r3, #1
878046a2:	6e3b      	ldr	r3, [r7, #96]	; 0x60
878046a4:	4293      	cmp	r3, r2
878046a6:	f080 8346 	bcs.w	87804d36 <vsnprintf+0x6ca>
878046aa:	f04f 33ff 	mov.w	r3, #4294967295	; 0xffffffff
878046ae:	663b      	str	r3, [r7, #96]	; 0x60
878046b0:	6e3a      	ldr	r2, [r7, #96]	; 0x60
878046b2:	6b7b      	ldr	r3, [r7, #52]	; 0x34
878046b4:	1ad3      	subs	r3, r2, r3
878046b6:	3301      	adds	r3, #1
878046b8:	633b      	str	r3, [r7, #48]	; 0x30
878046ba:	e33c      	b.n	87804d36 <vsnprintf+0x6ca>
878046bc:	6afb      	ldr	r3, [r7, #44]	; 0x2c
878046be:	781b      	ldrb	r3, [r3, #0]
878046c0:	2b25      	cmp	r3, #37	; 0x25
878046c2:	d00b      	beq.n	878046dc <vsnprintf+0x70>
878046c4:	6e7a      	ldr	r2, [r7, #100]	; 0x64
878046c6:	6e3b      	ldr	r3, [r7, #96]	; 0x60
878046c8:	429a      	cmp	r2, r3
878046ca:	d803      	bhi.n	878046d4 <vsnprintf+0x68>
878046cc:	6afb      	ldr	r3, [r7, #44]	; 0x2c
878046ce:	781b      	ldrb	r3, [r3, #0]
878046d0:	6e7a      	ldr	r2, [r7, #100]	; 0x64
878046d2:	7013      	strb	r3, [r2, #0]
878046d4:	6e7b      	ldr	r3, [r7, #100]	; 0x64
878046d6:	3301      	adds	r3, #1
878046d8:	667b      	str	r3, [r7, #100]	; 0x64
878046da:	e329      	b.n	87804d30 <vsnprintf+0x6c4>
878046dc:	2300      	movs	r3, #0
878046de:	65bb      	str	r3, [r7, #88]	; 0x58
878046e0:	6afb      	ldr	r3, [r7, #44]	; 0x2c
878046e2:	3301      	adds	r3, #1
878046e4:	62fb      	str	r3, [r7, #44]	; 0x2c
878046e6:	6afb      	ldr	r3, [r7, #44]	; 0x2c
878046e8:	781b      	ldrb	r3, [r3, #0]
878046ea:	3b20      	subs	r3, #32
878046ec:	2b10      	cmp	r3, #16
878046ee:	d840      	bhi.n	87804772 <vsnprintf+0x106>
878046f0:	a202      	add	r2, pc, #8	; (adr r2, 878046fc <vsnprintf+0x90>)
878046f2:	f852 3023 	ldr.w	r3, [r2, r3, lsl #2]
878046f6:	441a      	add	r2, r3
878046f8:	4710      	bx	r2
878046fa:	bf00      	nop
878046fc:	00000059 	andeq	r0, r0, r9, asr r0
87804700:	00000077 	andeq	r0, r0, r7, ror r0
87804704:	00000077 	andeq	r0, r0, r7, ror r0
87804708:	00000063 	andeq	r0, r0, r3, rrx
8780470c:	00000077 	andeq	r0, r0, r7, ror r0
87804710:	00000077 	andeq	r0, r0, r7, ror r0
87804714:	00000077 	andeq	r0, r0, r7, ror r0
87804718:	00000077 	andeq	r0, r0, r7, ror r0
8780471c:	00000077 	andeq	r0, r0, r7, ror r0
87804720:	00000077 	andeq	r0, r0, r7, ror r0
87804724:	00000077 	andeq	r0, r0, r7, ror r0
87804728:	0000004f 	andeq	r0, r0, pc, asr #32
8780472c:	00000077 	andeq	r0, r0, r7, ror r0
87804730:	00000045 	andeq	r0, r0, r5, asr #32
87804734:	00000077 	andeq	r0, r0, r7, ror r0
87804738:	00000077 	andeq	r0, r0, r7, ror r0
8780473c:	0000006d 	andeq	r0, r0, sp, rrx
87804740:	6dbb      	ldr	r3, [r7, #88]	; 0x58
87804742:	f043 0310 	orr.w	r3, r3, #16
87804746:	65bb      	str	r3, [r7, #88]	; 0x58
87804748:	e7ca      	b.n	878046e0 <vsnprintf+0x74>
8780474a:	6dbb      	ldr	r3, [r7, #88]	; 0x58
8780474c:	f043 0304 	orr.w	r3, r3, #4
87804750:	65bb      	str	r3, [r7, #88]	; 0x58
87804752:	e7c5      	b.n	878046e0 <vsnprintf+0x74>
87804754:	6dbb      	ldr	r3, [r7, #88]	; 0x58
87804756:	f043 0308 	orr.w	r3, r3, #8
8780475a:	65bb      	str	r3, [r7, #88]	; 0x58
8780475c:	e7c0      	b.n	878046e0 <vsnprintf+0x74>
8780475e:	6dbb      	ldr	r3, [r7, #88]	; 0x58
87804760:	f043 0320 	orr.w	r3, r3, #32
87804764:	65bb      	str	r3, [r7, #88]	; 0x58
87804766:	e7bb      	b.n	878046e0 <vsnprintf+0x74>
87804768:	6dbb      	ldr	r3, [r7, #88]	; 0x58
8780476a:	f043 0301 	orr.w	r3, r3, #1
8780476e:	65bb      	str	r3, [r7, #88]	; 0x58
87804770:	e7b6      	b.n	878046e0 <vsnprintf+0x74>
87804772:	f04f 33ff 	mov.w	r3, #4294967295	; 0xffffffff
87804776:	657b      	str	r3, [r7, #84]	; 0x54
87804778:	6afb      	ldr	r3, [r7, #44]	; 0x2c
8780477a:	781b      	ldrb	r3, [r3, #0]
8780477c:	461a      	mov	r2, r3
8780477e:	f8df 35f0 	ldr.w	r3, [pc, #1520]	; 87804d70 <vsnprintf+0x704>
87804782:	58e3      	ldr	r3, [r4, r3]
87804784:	5c9b      	ldrb	r3, [r3, r2]
87804786:	f003 0304 	and.w	r3, r3, #4
8780478a:	2b00      	cmp	r3, #0
8780478c:	d006      	beq.n	8780479c <vsnprintf+0x130>
8780478e:	f107 032c 	add.w	r3, r7, #44	; 0x2c
87804792:	4618      	mov	r0, r3
87804794:	f7ff fc06 	bl	87803fa4 <skip_atoi>
87804798:	6578      	str	r0, [r7, #84]	; 0x54
8780479a:	e017      	b.n	878047cc <vsnprintf+0x160>
8780479c:	6afb      	ldr	r3, [r7, #44]	; 0x2c
8780479e:	781b      	ldrb	r3, [r3, #0]
878047a0:	2b2a      	cmp	r3, #42	; 0x2a
878047a2:	d113      	bne.n	878047cc <vsnprintf+0x160>
878047a4:	6afb      	ldr	r3, [r7, #44]	; 0x2c
878047a6:	3301      	adds	r3, #1
878047a8:	62fb      	str	r3, [r7, #44]	; 0x2c
878047aa:	6abb      	ldr	r3, [r7, #40]	; 0x28
878047ac:	3304      	adds	r3, #4
878047ae:	62bb      	str	r3, [r7, #40]	; 0x28
878047b0:	6abb      	ldr	r3, [r7, #40]	; 0x28
878047b2:	f853 3c04 	ldr.w	r3, [r3, #-4]
878047b6:	657b      	str	r3, [r7, #84]	; 0x54
878047b8:	6d7b      	ldr	r3, [r7, #84]	; 0x54
878047ba:	2b00      	cmp	r3, #0
878047bc:	da06      	bge.n	878047cc <vsnprintf+0x160>
878047be:	6d7b      	ldr	r3, [r7, #84]	; 0x54
878047c0:	425b      	negs	r3, r3
878047c2:	657b      	str	r3, [r7, #84]	; 0x54
878047c4:	6dbb      	ldr	r3, [r7, #88]	; 0x58
878047c6:	f043 0310 	orr.w	r3, r3, #16
878047ca:	65bb      	str	r3, [r7, #88]	; 0x58
878047cc:	f04f 33ff 	mov.w	r3, #4294967295	; 0xffffffff
878047d0:	653b      	str	r3, [r7, #80]	; 0x50
878047d2:	6afb      	ldr	r3, [r7, #44]	; 0x2c
878047d4:	781b      	ldrb	r3, [r3, #0]
878047d6:	2b2e      	cmp	r3, #46	; 0x2e
878047d8:	d127      	bne.n	8780482a <vsnprintf+0x1be>
878047da:	6afb      	ldr	r3, [r7, #44]	; 0x2c
878047dc:	3301      	adds	r3, #1
878047de:	62fb      	str	r3, [r7, #44]	; 0x2c
878047e0:	6afb      	ldr	r3, [r7, #44]	; 0x2c
878047e2:	781b      	ldrb	r3, [r3, #0]
878047e4:	461a      	mov	r2, r3
878047e6:	f8df 3588 	ldr.w	r3, [pc, #1416]	; 87804d70 <vsnprintf+0x704>
878047ea:	58e3      	ldr	r3, [r4, r3]
878047ec:	5c9b      	ldrb	r3, [r3, r2]
878047ee:	f003 0304 	and.w	r3, r3, #4
878047f2:	2b00      	cmp	r3, #0
878047f4:	d006      	beq.n	87804804 <vsnprintf+0x198>
878047f6:	f107 032c 	add.w	r3, r7, #44	; 0x2c
878047fa:	4618      	mov	r0, r3
878047fc:	f7ff fbd2 	bl	87803fa4 <skip_atoi>
87804800:	6538      	str	r0, [r7, #80]	; 0x50
87804802:	e00d      	b.n	87804820 <vsnprintf+0x1b4>
87804804:	6afb      	ldr	r3, [r7, #44]	; 0x2c
87804806:	781b      	ldrb	r3, [r3, #0]
87804808:	2b2a      	cmp	r3, #42	; 0x2a
8780480a:	d109      	bne.n	87804820 <vsnprintf+0x1b4>
8780480c:	6afb      	ldr	r3, [r7, #44]	; 0x2c
8780480e:	3301      	adds	r3, #1
87804810:	62fb      	str	r3, [r7, #44]	; 0x2c
87804812:	6abb      	ldr	r3, [r7, #40]	; 0x28
87804814:	3304      	adds	r3, #4
87804816:	62bb      	str	r3, [r7, #40]	; 0x28
87804818:	6abb      	ldr	r3, [r7, #40]	; 0x28
8780481a:	f853 3c04 	ldr.w	r3, [r3, #-4]
8780481e:	653b      	str	r3, [r7, #80]	; 0x50
87804820:	6d3b      	ldr	r3, [r7, #80]	; 0x50
87804822:	2b00      	cmp	r3, #0
87804824:	da01      	bge.n	8780482a <vsnprintf+0x1be>
87804826:	2300      	movs	r3, #0
87804828:	653b      	str	r3, [r7, #80]	; 0x50
8780482a:	f04f 33ff 	mov.w	r3, #4294967295	; 0xffffffff
8780482e:	64fb      	str	r3, [r7, #76]	; 0x4c
87804830:	6afb      	ldr	r3, [r7, #44]	; 0x2c
87804832:	781b      	ldrb	r3, [r3, #0]
87804834:	2b68      	cmp	r3, #104	; 0x68
87804836:	d00f      	beq.n	87804858 <vsnprintf+0x1ec>
87804838:	6afb      	ldr	r3, [r7, #44]	; 0x2c
8780483a:	781b      	ldrb	r3, [r3, #0]
8780483c:	2b6c      	cmp	r3, #108	; 0x6c
8780483e:	d00b      	beq.n	87804858 <vsnprintf+0x1ec>
87804840:	6afb      	ldr	r3, [r7, #44]	; 0x2c
87804842:	781b      	ldrb	r3, [r3, #0]
87804844:	2b4c      	cmp	r3, #76	; 0x4c
87804846:	d007      	beq.n	87804858 <vsnprintf+0x1ec>
87804848:	6afb      	ldr	r3, [r7, #44]	; 0x2c
8780484a:	781b      	ldrb	r3, [r3, #0]
8780484c:	2b5a      	cmp	r3, #90	; 0x5a
8780484e:	d003      	beq.n	87804858 <vsnprintf+0x1ec>
87804850:	6afb      	ldr	r3, [r7, #44]	; 0x2c
87804852:	781b      	ldrb	r3, [r3, #0]
87804854:	2b7a      	cmp	r3, #122	; 0x7a
87804856:	d111      	bne.n	8780487c <vsnprintf+0x210>
87804858:	6afb      	ldr	r3, [r7, #44]	; 0x2c
8780485a:	781b      	ldrb	r3, [r3, #0]
8780485c:	64fb      	str	r3, [r7, #76]	; 0x4c
8780485e:	6afb      	ldr	r3, [r7, #44]	; 0x2c
87804860:	3301      	adds	r3, #1
87804862:	62fb      	str	r3, [r7, #44]	; 0x2c
87804864:	6cfb      	ldr	r3, [r7, #76]	; 0x4c
87804866:	2b6c      	cmp	r3, #108	; 0x6c
87804868:	d108      	bne.n	8780487c <vsnprintf+0x210>
8780486a:	6afb      	ldr	r3, [r7, #44]	; 0x2c
8780486c:	781b      	ldrb	r3, [r3, #0]
8780486e:	2b6c      	cmp	r3, #108	; 0x6c
87804870:	d104      	bne.n	8780487c <vsnprintf+0x210>
87804872:	234c      	movs	r3, #76	; 0x4c
87804874:	64fb      	str	r3, [r7, #76]	; 0x4c
87804876:	6afb      	ldr	r3, [r7, #44]	; 0x2c
87804878:	3301      	adds	r3, #1
8780487a:	62fb      	str	r3, [r7, #44]	; 0x2c
8780487c:	230a      	movs	r3, #10
8780487e:	66bb      	str	r3, [r7, #104]	; 0x68
87804880:	6afb      	ldr	r3, [r7, #44]	; 0x2c
87804882:	781b      	ldrb	r3, [r3, #0]
87804884:	3b25      	subs	r3, #37	; 0x25
87804886:	2b53      	cmp	r3, #83	; 0x53
87804888:	f200 81ae 	bhi.w	87804be8 <vsnprintf+0x57c>
8780488c:	a202      	add	r2, pc, #8	; (adr r2, 87804898 <vsnprintf+0x22c>)
8780488e:	f852 3023 	ldr.w	r3, [r2, r3, lsl #2]
87804892:	441a      	add	r2, r3
87804894:	4710      	bx	r2
87804896:	bf00      	nop
87804898:	0000031d 	andeq	r0, r0, sp, lsl r3
8780489c:	00000351 	andeq	r0, r0, r1, asr r3
878048a0:	00000351 	andeq	r0, r0, r1, asr r3
878048a4:	00000351 	andeq	r0, r0, r1, asr r3
878048a8:	00000351 	andeq	r0, r0, r1, asr r3
878048ac:	00000351 	andeq	r0, r0, r1, asr r3
878048b0:	00000351 	andeq	r0, r0, r1, asr r3
878048b4:	00000351 	andeq	r0, r0, r1, asr r3
878048b8:	00000351 	andeq	r0, r0, r1, asr r3
878048bc:	00000351 	andeq	r0, r0, r1, asr r3
878048c0:	00000351 	andeq	r0, r0, r1, asr r3
878048c4:	00000351 	andeq	r0, r0, r1, asr r3
878048c8:	00000351 	andeq	r0, r0, r1, asr r3
878048cc:	00000351 	andeq	r0, r0, r1, asr r3
878048d0:	00000351 	andeq	r0, r0, r1, asr r3
878048d4:	00000351 	andeq	r0, r0, r1, asr r3
878048d8:	00000351 	andeq	r0, r0, r1, asr r3
878048dc:	00000351 	andeq	r0, r0, r1, asr r3
878048e0:	00000351 	andeq	r0, r0, r1, asr r3
878048e4:	00000351 	andeq	r0, r0, r1, asr r3
878048e8:	00000351 	andeq	r0, r0, r1, asr r3
878048ec:	00000351 	andeq	r0, r0, r1, asr r3
878048f0:	00000351 	andeq	r0, r0, r1, asr r3
878048f4:	00000351 	andeq	r0, r0, r1, asr r3
878048f8:	00000351 	andeq	r0, r0, r1, asr r3
878048fc:	00000351 	andeq	r0, r0, r1, asr r3
87804900:	00000351 	andeq	r0, r0, r1, asr r3
87804904:	00000351 	andeq	r0, r0, r1, asr r3
87804908:	00000351 	andeq	r0, r0, r1, asr r3
8780490c:	00000351 	andeq	r0, r0, r1, asr r3
87804910:	00000351 	andeq	r0, r0, r1, asr r3
87804914:	00000351 	andeq	r0, r0, r1, asr r3
87804918:	00000351 	andeq	r0, r0, r1, asr r3
8780491c:	00000351 	andeq	r0, r0, r1, asr r3
87804920:	00000351 	andeq	r0, r0, r1, asr r3
87804924:	00000351 	andeq	r0, r0, r1, asr r3
87804928:	00000351 	andeq	r0, r0, r1, asr r3
8780492c:	00000351 	andeq	r0, r0, r1, asr r3
87804930:	00000351 	andeq	r0, r0, r1, asr r3
87804934:	00000351 	andeq	r0, r0, r1, asr r3
87804938:	00000351 	andeq	r0, r0, r1, asr r3
8780493c:	00000351 	andeq	r0, r0, r1, asr r3
87804940:	00000351 	andeq	r0, r0, r1, asr r3
87804944:	00000351 	andeq	r0, r0, r1, asr r3
87804948:	00000351 	andeq	r0, r0, r1, asr r3
8780494c:	00000351 	andeq	r0, r0, r1, asr r3
87804950:	00000351 	andeq	r0, r0, r1, asr r3
87804954:	00000351 	andeq	r0, r0, r1, asr r3
87804958:	00000351 	andeq	r0, r0, r1, asr r3
8780495c:	00000351 	andeq	r0, r0, r1, asr r3
87804960:	00000351 	andeq	r0, r0, r1, asr r3
87804964:	00000339 	andeq	r0, r0, r9, lsr r3
87804968:	00000351 	andeq	r0, r0, r1, asr r3
8780496c:	00000351 	andeq	r0, r0, r1, asr r3
87804970:	00000351 	andeq	r0, r0, r1, asr r3
87804974:	00000351 	andeq	r0, r0, r1, asr r3
87804978:	00000351 	andeq	r0, r0, r1, asr r3
8780497c:	00000351 	andeq	r0, r0, r1, asr r3
87804980:	00000351 	andeq	r0, r0, r1, asr r3
87804984:	00000351 	andeq	r0, r0, r1, asr r3
87804988:	00000351 	andeq	r0, r0, r1, asr r3
8780498c:	00000351 	andeq	r0, r0, r1, asr r3
87804990:	00000151 	andeq	r0, r0, r1, asr r1
87804994:	00000347 	andeq	r0, r0, r7, asr #6
87804998:	00000351 	andeq	r0, r0, r1, asr r3
8780499c:	00000351 	andeq	r0, r0, r1, asr r3
878049a0:	00000351 	andeq	r0, r0, r1, asr r3
878049a4:	00000351 	andeq	r0, r0, r1, asr r3
878049a8:	00000347 	andeq	r0, r0, r7, asr #6
878049ac:	00000351 	andeq	r0, r0, r1, asr r3
878049b0:	00000351 	andeq	r0, r0, r1, asr r3
878049b4:	00000351 	andeq	r0, r0, r1, asr r3
878049b8:	00000351 	andeq	r0, r0, r1, asr r3
878049bc:	000002b9 			; <UNDEFINED> instruction: 0x000002b9
878049c0:	00000333 	andeq	r0, r0, r3, lsr r3
878049c4:	00000271 	andeq	r0, r0, r1, ror r2
878049c8:	00000351 	andeq	r0, r0, r1, asr r3
878049cc:	00000351 	andeq	r0, r0, r1, asr r3
878049d0:	000001c7 	andeq	r0, r0, r7, asr #3
878049d4:	00000351 	andeq	r0, r0, r1, asr r3
878049d8:	0000038d 	andeq	r0, r0, sp, lsl #7
878049dc:	00000351 	andeq	r0, r0, r1, asr r3
878049e0:	00000351 	andeq	r0, r0, r1, asr r3
878049e4:	00000341 	andeq	r0, r0, r1, asr #6
878049e8:	6dbb      	ldr	r3, [r7, #88]	; 0x58
878049ea:	f003 0310 	and.w	r3, r3, #16
878049ee:	2b00      	cmp	r3, #0
878049f0:	d110      	bne.n	87804a14 <vsnprintf+0x3a8>
878049f2:	e009      	b.n	87804a08 <vsnprintf+0x39c>
878049f4:	6e7a      	ldr	r2, [r7, #100]	; 0x64
878049f6:	6e3b      	ldr	r3, [r7, #96]	; 0x60
878049f8:	429a      	cmp	r2, r3
878049fa:	d802      	bhi.n	87804a02 <vsnprintf+0x396>
878049fc:	6e7a      	ldr	r2, [r7, #100]	; 0x64
878049fe:	2320      	movs	r3, #32
87804a00:	7013      	strb	r3, [r2, #0]
87804a02:	6e7b      	ldr	r3, [r7, #100]	; 0x64
87804a04:	3301      	adds	r3, #1
87804a06:	667b      	str	r3, [r7, #100]	; 0x64
87804a08:	6d7b      	ldr	r3, [r7, #84]	; 0x54
87804a0a:	3b01      	subs	r3, #1
87804a0c:	657b      	str	r3, [r7, #84]	; 0x54
87804a0e:	6d7b      	ldr	r3, [r7, #84]	; 0x54
87804a10:	2b00      	cmp	r3, #0
87804a12:	dcef      	bgt.n	878049f4 <vsnprintf+0x388>
87804a14:	6abb      	ldr	r3, [r7, #40]	; 0x28
87804a16:	3304      	adds	r3, #4
87804a18:	62bb      	str	r3, [r7, #40]	; 0x28
87804a1a:	6abb      	ldr	r3, [r7, #40]	; 0x28
87804a1c:	3b04      	subs	r3, #4
87804a1e:	681b      	ldr	r3, [r3, #0]
87804a20:	f887 303b 	strb.w	r3, [r7, #59]	; 0x3b
87804a24:	6e7a      	ldr	r2, [r7, #100]	; 0x64
87804a26:	6e3b      	ldr	r3, [r7, #96]	; 0x60
87804a28:	429a      	cmp	r2, r3
87804a2a:	d803      	bhi.n	87804a34 <vsnprintf+0x3c8>
87804a2c:	6e7a      	ldr	r2, [r7, #100]	; 0x64
87804a2e:	f897 303b 	ldrb.w	r3, [r7, #59]	; 0x3b
87804a32:	7013      	strb	r3, [r2, #0]
87804a34:	6e7b      	ldr	r3, [r7, #100]	; 0x64
87804a36:	3301      	adds	r3, #1
87804a38:	667b      	str	r3, [r7, #100]	; 0x64
87804a3a:	e009      	b.n	87804a50 <vsnprintf+0x3e4>
87804a3c:	6e7a      	ldr	r2, [r7, #100]	; 0x64
87804a3e:	6e3b      	ldr	r3, [r7, #96]	; 0x60
87804a40:	429a      	cmp	r2, r3
87804a42:	d802      	bhi.n	87804a4a <vsnprintf+0x3de>
87804a44:	6e7a      	ldr	r2, [r7, #100]	; 0x64
87804a46:	2320      	movs	r3, #32
87804a48:	7013      	strb	r3, [r2, #0]
87804a4a:	6e7b      	ldr	r3, [r7, #100]	; 0x64
87804a4c:	3301      	adds	r3, #1
87804a4e:	667b      	str	r3, [r7, #100]	; 0x64
87804a50:	6d7b      	ldr	r3, [r7, #84]	; 0x54
87804a52:	3b01      	subs	r3, #1
87804a54:	657b      	str	r3, [r7, #84]	; 0x54
87804a56:	6d7b      	ldr	r3, [r7, #84]	; 0x54
87804a58:	2b00      	cmp	r3, #0
87804a5a:	dcef      	bgt.n	87804a3c <vsnprintf+0x3d0>
87804a5c:	e168      	b.n	87804d30 <vsnprintf+0x6c4>
87804a5e:	6abb      	ldr	r3, [r7, #40]	; 0x28
87804a60:	3304      	adds	r3, #4
87804a62:	62bb      	str	r3, [r7, #40]	; 0x28
87804a64:	6abb      	ldr	r3, [r7, #40]	; 0x28
87804a66:	f853 3c04 	ldr.w	r3, [r3, #-4]
87804a6a:	65fb      	str	r3, [r7, #92]	; 0x5c
87804a6c:	6dfb      	ldr	r3, [r7, #92]	; 0x5c
87804a6e:	f5b3 6f80 	cmp.w	r3, #1024	; 0x400
87804a72:	d202      	bcs.n	87804a7a <vsnprintf+0x40e>
87804a74:	4bbf      	ldr	r3, [pc, #764]	; (87804d74 <vsnprintf+0x708>)
87804a76:	447b      	add	r3, pc
87804a78:	65fb      	str	r3, [r7, #92]	; 0x5c
87804a7a:	6d3b      	ldr	r3, [r7, #80]	; 0x50
87804a7c:	4619      	mov	r1, r3
87804a7e:	6df8      	ldr	r0, [r7, #92]	; 0x5c
87804a80:	f7fe fee3 	bl	8780384a <strnlen>
87804a84:	4603      	mov	r3, r0
87804a86:	64bb      	str	r3, [r7, #72]	; 0x48
87804a88:	6dbb      	ldr	r3, [r7, #88]	; 0x58
87804a8a:	f003 0310 	and.w	r3, r3, #16
87804a8e:	2b00      	cmp	r3, #0
87804a90:	d110      	bne.n	87804ab4 <vsnprintf+0x448>
87804a92:	e009      	b.n	87804aa8 <vsnprintf+0x43c>
87804a94:	6e7a      	ldr	r2, [r7, #100]	; 0x64
87804a96:	6e3b      	ldr	r3, [r7, #96]	; 0x60
87804a98:	429a      	cmp	r2, r3
87804a9a:	d802      	bhi.n	87804aa2 <vsnprintf+0x436>
87804a9c:	6e7a      	ldr	r2, [r7, #100]	; 0x64
87804a9e:	2320      	movs	r3, #32
87804aa0:	7013      	strb	r3, [r2, #0]
87804aa2:	6e7b      	ldr	r3, [r7, #100]	; 0x64
87804aa4:	3301      	adds	r3, #1
87804aa6:	667b      	str	r3, [r7, #100]	; 0x64
87804aa8:	6d7a      	ldr	r2, [r7, #84]	; 0x54
87804aaa:	1e53      	subs	r3, r2, #1
87804aac:	657b      	str	r3, [r7, #84]	; 0x54
87804aae:	6cbb      	ldr	r3, [r7, #72]	; 0x48
87804ab0:	4293      	cmp	r3, r2
87804ab2:	dbef      	blt.n	87804a94 <vsnprintf+0x428>
87804ab4:	2300      	movs	r3, #0
87804ab6:	66fb      	str	r3, [r7, #108]	; 0x6c
87804ab8:	e010      	b.n	87804adc <vsnprintf+0x470>
87804aba:	6e7a      	ldr	r2, [r7, #100]	; 0x64
87804abc:	6e3b      	ldr	r3, [r7, #96]	; 0x60
87804abe:	429a      	cmp	r2, r3
87804ac0:	d803      	bhi.n	87804aca <vsnprintf+0x45e>
87804ac2:	6dfb      	ldr	r3, [r7, #92]	; 0x5c
87804ac4:	781b      	ldrb	r3, [r3, #0]
87804ac6:	6e7a      	ldr	r2, [r7, #100]	; 0x64
87804ac8:	7013      	strb	r3, [r2, #0]
87804aca:	6e7b      	ldr	r3, [r7, #100]	; 0x64
87804acc:	3301      	adds	r3, #1
87804ace:	667b      	str	r3, [r7, #100]	; 0x64
87804ad0:	6dfb      	ldr	r3, [r7, #92]	; 0x5c
87804ad2:	3301      	adds	r3, #1
87804ad4:	65fb      	str	r3, [r7, #92]	; 0x5c
87804ad6:	6efb      	ldr	r3, [r7, #108]	; 0x6c
87804ad8:	3301      	adds	r3, #1
87804ada:	66fb      	str	r3, [r7, #108]	; 0x6c
87804adc:	6efa      	ldr	r2, [r7, #108]	; 0x6c
87804ade:	6cbb      	ldr	r3, [r7, #72]	; 0x48
87804ae0:	429a      	cmp	r2, r3
87804ae2:	dbea      	blt.n	87804aba <vsnprintf+0x44e>
87804ae4:	e009      	b.n	87804afa <vsnprintf+0x48e>
87804ae6:	6e7a      	ldr	r2, [r7, #100]	; 0x64
87804ae8:	6e3b      	ldr	r3, [r7, #96]	; 0x60
87804aea:	429a      	cmp	r2, r3
87804aec:	d802      	bhi.n	87804af4 <vsnprintf+0x488>
87804aee:	6e7a      	ldr	r2, [r7, #100]	; 0x64
87804af0:	2320      	movs	r3, #32
87804af2:	7013      	strb	r3, [r2, #0]
87804af4:	6e7b      	ldr	r3, [r7, #100]	; 0x64
87804af6:	3301      	adds	r3, #1
87804af8:	667b      	str	r3, [r7, #100]	; 0x64
87804afa:	6d7a      	ldr	r2, [r7, #84]	; 0x54
87804afc:	1e53      	subs	r3, r2, #1
87804afe:	657b      	str	r3, [r7, #84]	; 0x54
87804b00:	6cbb      	ldr	r3, [r7, #72]	; 0x48
87804b02:	4293      	cmp	r3, r2
87804b04:	dbef      	blt.n	87804ae6 <vsnprintf+0x47a>
87804b06:	e113      	b.n	87804d30 <vsnprintf+0x6c4>
87804b08:	6d7b      	ldr	r3, [r7, #84]	; 0x54
87804b0a:	f1b3 3fff 	cmp.w	r3, #4294967295	; 0xffffffff
87804b0e:	d105      	bne.n	87804b1c <vsnprintf+0x4b0>
87804b10:	2308      	movs	r3, #8
87804b12:	657b      	str	r3, [r7, #84]	; 0x54
87804b14:	6dbb      	ldr	r3, [r7, #88]	; 0x58
87804b16:	f043 0301 	orr.w	r3, r3, #1
87804b1a:	65bb      	str	r3, [r7, #88]	; 0x58
87804b1c:	6abb      	ldr	r3, [r7, #40]	; 0x28
87804b1e:	3304      	adds	r3, #4
87804b20:	62bb      	str	r3, [r7, #40]	; 0x28
87804b22:	6abb      	ldr	r3, [r7, #40]	; 0x28
87804b24:	3b04      	subs	r3, #4
87804b26:	681b      	ldr	r3, [r3, #0]
87804b28:	461a      	mov	r2, r3
87804b2a:	2300      	movs	r3, #0
87804b2c:	623a      	str	r2, [r7, #32]
87804b2e:	627b      	str	r3, [r7, #36]	; 0x24
87804b30:	6dbb      	ldr	r3, [r7, #88]	; 0x58
87804b32:	9303      	str	r3, [sp, #12]
87804b34:	6d3b      	ldr	r3, [r7, #80]	; 0x50
87804b36:	9302      	str	r3, [sp, #8]
87804b38:	6d7b      	ldr	r3, [r7, #84]	; 0x54
87804b3a:	9301      	str	r3, [sp, #4]
87804b3c:	2310      	movs	r3, #16
87804b3e:	9300      	str	r3, [sp, #0]
87804b40:	e9d7 2308 	ldrd	r2, r3, [r7, #32]
87804b44:	6e39      	ldr	r1, [r7, #96]	; 0x60
87804b46:	6e78      	ldr	r0, [r7, #100]	; 0x64
87804b48:	f7ff fbed 	bl	87804326 <number>
87804b4c:	6678      	str	r0, [r7, #100]	; 0x64
87804b4e:	e0ef      	b.n	87804d30 <vsnprintf+0x6c4>
87804b50:	6cfb      	ldr	r3, [r7, #76]	; 0x4c
87804b52:	2b6c      	cmp	r3, #108	; 0x6c
87804b54:	d10c      	bne.n	87804b70 <vsnprintf+0x504>
87804b56:	6abb      	ldr	r3, [r7, #40]	; 0x28
87804b58:	3304      	adds	r3, #4
87804b5a:	62bb      	str	r3, [r7, #40]	; 0x28
87804b5c:	6abb      	ldr	r3, [r7, #40]	; 0x28
87804b5e:	f853 3c04 	ldr.w	r3, [r3, #-4]
87804b62:	63fb      	str	r3, [r7, #60]	; 0x3c
87804b64:	6e7a      	ldr	r2, [r7, #100]	; 0x64
87804b66:	6b7b      	ldr	r3, [r7, #52]	; 0x34
87804b68:	1ad2      	subs	r2, r2, r3
87804b6a:	6bfb      	ldr	r3, [r7, #60]	; 0x3c
87804b6c:	601a      	str	r2, [r3, #0]
87804b6e:	e0df      	b.n	87804d30 <vsnprintf+0x6c4>
87804b70:	6cfb      	ldr	r3, [r7, #76]	; 0x4c
87804b72:	2b5a      	cmp	r3, #90	; 0x5a
87804b74:	d002      	beq.n	87804b7c <vsnprintf+0x510>
87804b76:	6cfb      	ldr	r3, [r7, #76]	; 0x4c
87804b78:	2b7a      	cmp	r3, #122	; 0x7a
87804b7a:	d10e      	bne.n	87804b9a <vsnprintf+0x52e>
87804b7c:	6abb      	ldr	r3, [r7, #40]	; 0x28
87804b7e:	3304      	adds	r3, #4
87804b80:	62bb      	str	r3, [r7, #40]	; 0x28
87804b82:	6abb      	ldr	r3, [r7, #40]	; 0x28
87804b84:	f853 3c04 	ldr.w	r3, [r3, #-4]
87804b88:	643b      	str	r3, [r7, #64]	; 0x40
87804b8a:	6e7a      	ldr	r2, [r7, #100]	; 0x64
87804b8c:	6b7b      	ldr	r3, [r7, #52]	; 0x34
87804b8e:	1ad3      	subs	r3, r2, r3
87804b90:	461a      	mov	r2, r3
87804b92:	6c3b      	ldr	r3, [r7, #64]	; 0x40
87804b94:	601a      	str	r2, [r3, #0]
87804b96:	bf00      	nop
87804b98:	e0ca      	b.n	87804d30 <vsnprintf+0x6c4>
87804b9a:	6abb      	ldr	r3, [r7, #40]	; 0x28
87804b9c:	3304      	adds	r3, #4
87804b9e:	62bb      	str	r3, [r7, #40]	; 0x28
87804ba0:	6abb      	ldr	r3, [r7, #40]	; 0x28
87804ba2:	f853 3c04 	ldr.w	r3, [r3, #-4]
87804ba6:	647b      	str	r3, [r7, #68]	; 0x44
87804ba8:	6e7a      	ldr	r2, [r7, #100]	; 0x64
87804baa:	6b7b      	ldr	r3, [r7, #52]	; 0x34
87804bac:	1ad2      	subs	r2, r2, r3
87804bae:	6c7b      	ldr	r3, [r7, #68]	; 0x44
87804bb0:	601a      	str	r2, [r3, #0]
87804bb2:	e0bd      	b.n	87804d30 <vsnprintf+0x6c4>
87804bb4:	6e7a      	ldr	r2, [r7, #100]	; 0x64
87804bb6:	6e3b      	ldr	r3, [r7, #96]	; 0x60
87804bb8:	429a      	cmp	r2, r3
87804bba:	d802      	bhi.n	87804bc2 <vsnprintf+0x556>
87804bbc:	6e7a      	ldr	r2, [r7, #100]	; 0x64
87804bbe:	2325      	movs	r3, #37	; 0x25
87804bc0:	7013      	strb	r3, [r2, #0]
87804bc2:	6e7b      	ldr	r3, [r7, #100]	; 0x64
87804bc4:	3301      	adds	r3, #1
87804bc6:	667b      	str	r3, [r7, #100]	; 0x64
87804bc8:	e0b2      	b.n	87804d30 <vsnprintf+0x6c4>
87804bca:	2308      	movs	r3, #8
87804bcc:	66bb      	str	r3, [r7, #104]	; 0x68
87804bce:	e02a      	b.n	87804c26 <vsnprintf+0x5ba>
87804bd0:	6dbb      	ldr	r3, [r7, #88]	; 0x58
87804bd2:	f043 0340 	orr.w	r3, r3, #64	; 0x40
87804bd6:	65bb      	str	r3, [r7, #88]	; 0x58
87804bd8:	2310      	movs	r3, #16
87804bda:	66bb      	str	r3, [r7, #104]	; 0x68
87804bdc:	e023      	b.n	87804c26 <vsnprintf+0x5ba>
87804bde:	6dbb      	ldr	r3, [r7, #88]	; 0x58
87804be0:	f043 0302 	orr.w	r3, r3, #2
87804be4:	65bb      	str	r3, [r7, #88]	; 0x58
87804be6:	e01d      	b.n	87804c24 <vsnprintf+0x5b8>
87804be8:	6e7a      	ldr	r2, [r7, #100]	; 0x64
87804bea:	6e3b      	ldr	r3, [r7, #96]	; 0x60
87804bec:	429a      	cmp	r2, r3
87804bee:	d802      	bhi.n	87804bf6 <vsnprintf+0x58a>
87804bf0:	6e7a      	ldr	r2, [r7, #100]	; 0x64
87804bf2:	2325      	movs	r3, #37	; 0x25
87804bf4:	7013      	strb	r3, [r2, #0]
87804bf6:	6e7b      	ldr	r3, [r7, #100]	; 0x64
87804bf8:	3301      	adds	r3, #1
87804bfa:	667b      	str	r3, [r7, #100]	; 0x64
87804bfc:	6afb      	ldr	r3, [r7, #44]	; 0x2c
87804bfe:	781b      	ldrb	r3, [r3, #0]
87804c00:	2b00      	cmp	r3, #0
87804c02:	d00b      	beq.n	87804c1c <vsnprintf+0x5b0>
87804c04:	6e7a      	ldr	r2, [r7, #100]	; 0x64
87804c06:	6e3b      	ldr	r3, [r7, #96]	; 0x60
87804c08:	429a      	cmp	r2, r3
87804c0a:	d803      	bhi.n	87804c14 <vsnprintf+0x5a8>
87804c0c:	6afb      	ldr	r3, [r7, #44]	; 0x2c
87804c0e:	781b      	ldrb	r3, [r3, #0]
87804c10:	6e7a      	ldr	r2, [r7, #100]	; 0x64
87804c12:	7013      	strb	r3, [r2, #0]
87804c14:	6e7b      	ldr	r3, [r7, #100]	; 0x64
87804c16:	3301      	adds	r3, #1
87804c18:	667b      	str	r3, [r7, #100]	; 0x64
87804c1a:	e089      	b.n	87804d30 <vsnprintf+0x6c4>
87804c1c:	6afb      	ldr	r3, [r7, #44]	; 0x2c
87804c1e:	3b01      	subs	r3, #1
87804c20:	62fb      	str	r3, [r7, #44]	; 0x2c
87804c22:	e085      	b.n	87804d30 <vsnprintf+0x6c4>
87804c24:	bf00      	nop
87804c26:	6cfb      	ldr	r3, [r7, #76]	; 0x4c
87804c28:	2b4c      	cmp	r3, #76	; 0x4c
87804c2a:	d108      	bne.n	87804c3e <vsnprintf+0x5d2>
87804c2c:	6abb      	ldr	r3, [r7, #40]	; 0x28
87804c2e:	3308      	adds	r3, #8
87804c30:	62bb      	str	r3, [r7, #40]	; 0x28
87804c32:	6abb      	ldr	r3, [r7, #40]	; 0x28
87804c34:	e953 2302 	ldrd	r2, r3, [r3, #-8]
87804c38:	e9c7 231c 	strd	r2, r3, [r7, #112]	; 0x70
87804c3c:	e067      	b.n	87804d0e <vsnprintf+0x6a2>
87804c3e:	6cfb      	ldr	r3, [r7, #76]	; 0x4c
87804c40:	2b6c      	cmp	r3, #108	; 0x6c
87804c42:	d118      	bne.n	87804c76 <vsnprintf+0x60a>
87804c44:	6abb      	ldr	r3, [r7, #40]	; 0x28
87804c46:	3304      	adds	r3, #4
87804c48:	62bb      	str	r3, [r7, #40]	; 0x28
87804c4a:	6abb      	ldr	r3, [r7, #40]	; 0x28
87804c4c:	3b04      	subs	r3, #4
87804c4e:	681b      	ldr	r3, [r3, #0]
87804c50:	2200      	movs	r2, #0
87804c52:	61bb      	str	r3, [r7, #24]
87804c54:	61fa      	str	r2, [r7, #28]
87804c56:	e9d7 2306 	ldrd	r2, r3, [r7, #24]
87804c5a:	e9c7 231c 	strd	r2, r3, [r7, #112]	; 0x70
87804c5e:	6dbb      	ldr	r3, [r7, #88]	; 0x58
87804c60:	f003 0302 	and.w	r3, r3, #2
87804c64:	2b00      	cmp	r3, #0
87804c66:	d052      	beq.n	87804d0e <vsnprintf+0x6a2>
87804c68:	6f3b      	ldr	r3, [r7, #112]	; 0x70
87804c6a:	17da      	asrs	r2, r3, #31
87804c6c:	469a      	mov	sl, r3
87804c6e:	4693      	mov	fp, r2
87804c70:	e9c7 ab1c 	strd	sl, fp, [r7, #112]	; 0x70
87804c74:	e04b      	b.n	87804d0e <vsnprintf+0x6a2>
87804c76:	6cfb      	ldr	r3, [r7, #76]	; 0x4c
87804c78:	2b5a      	cmp	r3, #90	; 0x5a
87804c7a:	d002      	beq.n	87804c82 <vsnprintf+0x616>
87804c7c:	6cfb      	ldr	r3, [r7, #76]	; 0x4c
87804c7e:	2b7a      	cmp	r3, #122	; 0x7a
87804c80:	d10b      	bne.n	87804c9a <vsnprintf+0x62e>
87804c82:	6abb      	ldr	r3, [r7, #40]	; 0x28
87804c84:	3304      	adds	r3, #4
87804c86:	62bb      	str	r3, [r7, #40]	; 0x28
87804c88:	6abb      	ldr	r3, [r7, #40]	; 0x28
87804c8a:	3b04      	subs	r3, #4
87804c8c:	681b      	ldr	r3, [r3, #0]
87804c8e:	2200      	movs	r2, #0
87804c90:	461d      	mov	r5, r3
87804c92:	4616      	mov	r6, r2
87804c94:	e9c7 561c 	strd	r5, r6, [r7, #112]	; 0x70
87804c98:	e039      	b.n	87804d0e <vsnprintf+0x6a2>
87804c9a:	6cfb      	ldr	r3, [r7, #76]	; 0x4c
87804c9c:	2b68      	cmp	r3, #104	; 0x68
87804c9e:	d11e      	bne.n	87804cde <vsnprintf+0x672>
87804ca0:	6abb      	ldr	r3, [r7, #40]	; 0x28
87804ca2:	3304      	adds	r3, #4
87804ca4:	62bb      	str	r3, [r7, #40]	; 0x28
87804ca6:	6abb      	ldr	r3, [r7, #40]	; 0x28
87804ca8:	3b04      	subs	r3, #4
87804caa:	681b      	ldr	r3, [r3, #0]
87804cac:	b29b      	uxth	r3, r3
87804cae:	b29b      	uxth	r3, r3
87804cb0:	2200      	movs	r2, #0
87804cb2:	613b      	str	r3, [r7, #16]
87804cb4:	617a      	str	r2, [r7, #20]
87804cb6:	e9d7 2304 	ldrd	r2, r3, [r7, #16]
87804cba:	e9c7 231c 	strd	r2, r3, [r7, #112]	; 0x70
87804cbe:	6dbb      	ldr	r3, [r7, #88]	; 0x58
87804cc0:	f003 0302 	and.w	r3, r3, #2
87804cc4:	2b00      	cmp	r3, #0
87804cc6:	d022      	beq.n	87804d0e <vsnprintf+0x6a2>
87804cc8:	f9b7 3070 	ldrsh.w	r3, [r7, #112]	; 0x70
87804ccc:	b21b      	sxth	r3, r3
87804cce:	17da      	asrs	r2, r3, #31
87804cd0:	60bb      	str	r3, [r7, #8]
87804cd2:	60fa      	str	r2, [r7, #12]
87804cd4:	e9d7 2302 	ldrd	r2, r3, [r7, #8]
87804cd8:	e9c7 231c 	strd	r2, r3, [r7, #112]	; 0x70
87804cdc:	e017      	b.n	87804d0e <vsnprintf+0x6a2>
87804cde:	6abb      	ldr	r3, [r7, #40]	; 0x28
87804ce0:	3304      	adds	r3, #4
87804ce2:	62bb      	str	r3, [r7, #40]	; 0x28
87804ce4:	6abb      	ldr	r3, [r7, #40]	; 0x28
87804ce6:	3b04      	subs	r3, #4
87804ce8:	681b      	ldr	r3, [r3, #0]
87804cea:	2200      	movs	r2, #0
87804cec:	603b      	str	r3, [r7, #0]
87804cee:	607a      	str	r2, [r7, #4]
87804cf0:	e9d7 2300 	ldrd	r2, r3, [r7]
87804cf4:	e9c7 231c 	strd	r2, r3, [r7, #112]	; 0x70
87804cf8:	6dbb      	ldr	r3, [r7, #88]	; 0x58
87804cfa:	f003 0302 	and.w	r3, r3, #2
87804cfe:	2b00      	cmp	r3, #0
87804d00:	d005      	beq.n	87804d0e <vsnprintf+0x6a2>
87804d02:	6f3b      	ldr	r3, [r7, #112]	; 0x70
87804d04:	17da      	asrs	r2, r3, #31
87804d06:	4698      	mov	r8, r3
87804d08:	4691      	mov	r9, r2
87804d0a:	e9c7 891c 	strd	r8, r9, [r7, #112]	; 0x70
87804d0e:	e9d7 011c 	ldrd	r0, r1, [r7, #112]	; 0x70
87804d12:	6dbb      	ldr	r3, [r7, #88]	; 0x58
87804d14:	9303      	str	r3, [sp, #12]
87804d16:	6d3b      	ldr	r3, [r7, #80]	; 0x50
87804d18:	9302      	str	r3, [sp, #8]
87804d1a:	6d7b      	ldr	r3, [r7, #84]	; 0x54
87804d1c:	9301      	str	r3, [sp, #4]
87804d1e:	6ebb      	ldr	r3, [r7, #104]	; 0x68
87804d20:	9300      	str	r3, [sp, #0]
87804d22:	4602      	mov	r2, r0
87804d24:	460b      	mov	r3, r1
87804d26:	6e39      	ldr	r1, [r7, #96]	; 0x60
87804d28:	6e78      	ldr	r0, [r7, #100]	; 0x64
87804d2a:	f7ff fafc 	bl	87804326 <number>
87804d2e:	6678      	str	r0, [r7, #100]	; 0x64
87804d30:	6afb      	ldr	r3, [r7, #44]	; 0x2c
87804d32:	3301      	adds	r3, #1
87804d34:	62fb      	str	r3, [r7, #44]	; 0x2c
87804d36:	6afb      	ldr	r3, [r7, #44]	; 0x2c
87804d38:	781b      	ldrb	r3, [r3, #0]
87804d3a:	2b00      	cmp	r3, #0
87804d3c:	f47f acbe 	bne.w	878046bc <vsnprintf+0x50>
87804d40:	6e7a      	ldr	r2, [r7, #100]	; 0x64
87804d42:	6e3b      	ldr	r3, [r7, #96]	; 0x60
87804d44:	429a      	cmp	r2, r3
87804d46:	d803      	bhi.n	87804d50 <vsnprintf+0x6e4>
87804d48:	6e7b      	ldr	r3, [r7, #100]	; 0x64
87804d4a:	2200      	movs	r2, #0
87804d4c:	701a      	strb	r2, [r3, #0]
87804d4e:	e005      	b.n	87804d5c <vsnprintf+0x6f0>
87804d50:	6b3b      	ldr	r3, [r7, #48]	; 0x30
87804d52:	2b00      	cmp	r3, #0
87804d54:	d002      	beq.n	87804d5c <vsnprintf+0x6f0>
87804d56:	6e3b      	ldr	r3, [r7, #96]	; 0x60
87804d58:	2200      	movs	r2, #0
87804d5a:	701a      	strb	r2, [r3, #0]
87804d5c:	6e7a      	ldr	r2, [r7, #100]	; 0x64
87804d5e:	6b7b      	ldr	r3, [r7, #52]	; 0x34
87804d60:	1ad3      	subs	r3, r2, r3
87804d62:	4618      	mov	r0, r3
87804d64:	377c      	adds	r7, #124	; 0x7c
87804d66:	46bd      	mov	sp, r7
87804d68:	e8bd 8ff0 	ldmia.w	sp!, {r4, r5, r6, r7, r8, r9, sl, fp, pc}
87804d6c:	00005d78 	andeq	r5, r0, r8, ror sp
87804d70:	00000000 	andeq	r0, r0, r0
87804d74:	0000585e 	andeq	r5, r0, lr, asr r8

87804d78 <vscnprintf>:
87804d78:	b580      	push	{r7, lr}
87804d7a:	b086      	sub	sp, #24
87804d7c:	af00      	add	r7, sp, #0
87804d7e:	60f8      	str	r0, [r7, #12]
87804d80:	60b9      	str	r1, [r7, #8]
87804d82:	607a      	str	r2, [r7, #4]
87804d84:	603b      	str	r3, [r7, #0]
87804d86:	683b      	ldr	r3, [r7, #0]
87804d88:	687a      	ldr	r2, [r7, #4]
87804d8a:	68b9      	ldr	r1, [r7, #8]
87804d8c:	68f8      	ldr	r0, [r7, #12]
87804d8e:	f7ff fc6d 	bl	8780466c <vsnprintf>
87804d92:	6178      	str	r0, [r7, #20]
87804d94:	697b      	ldr	r3, [r7, #20]
87804d96:	68ba      	ldr	r2, [r7, #8]
87804d98:	429a      	cmp	r2, r3
87804d9a:	d802      	bhi.n	87804da2 <vscnprintf+0x2a>
87804d9c:	68bb      	ldr	r3, [r7, #8]
87804d9e:	3b01      	subs	r3, #1
87804da0:	e000      	b.n	87804da4 <vscnprintf+0x2c>
87804da2:	697b      	ldr	r3, [r7, #20]
87804da4:	4618      	mov	r0, r3
87804da6:	3718      	adds	r7, #24
87804da8:	46bd      	mov	sp, r7
87804daa:	bd80      	pop	{r7, pc}

87804dac <snprintf>:
87804dac:	b40c      	push	{r2, r3}
87804dae:	b580      	push	{r7, lr}
87804db0:	b084      	sub	sp, #16
87804db2:	af00      	add	r7, sp, #0
87804db4:	6078      	str	r0, [r7, #4]
87804db6:	6039      	str	r1, [r7, #0]
87804db8:	f107 031c 	add.w	r3, r7, #28
87804dbc:	60fb      	str	r3, [r7, #12]
87804dbe:	69ba      	ldr	r2, [r7, #24]
87804dc0:	68fb      	ldr	r3, [r7, #12]
87804dc2:	6839      	ldr	r1, [r7, #0]
87804dc4:	6878      	ldr	r0, [r7, #4]
87804dc6:	f7ff fc51 	bl	8780466c <vsnprintf>
87804dca:	60b8      	str	r0, [r7, #8]
87804dcc:	68bb      	ldr	r3, [r7, #8]
87804dce:	4618      	mov	r0, r3
87804dd0:	3710      	adds	r7, #16
87804dd2:	46bd      	mov	sp, r7
87804dd4:	e8bd 4080 	ldmia.w	sp!, {r7, lr}
87804dd8:	b002      	add	sp, #8
87804dda:	4770      	bx	lr

87804ddc <scnprintf>:
87804ddc:	b40c      	push	{r2, r3}
87804dde:	b580      	push	{r7, lr}
87804de0:	b084      	sub	sp, #16
87804de2:	af00      	add	r7, sp, #0
87804de4:	6078      	str	r0, [r7, #4]
87804de6:	6039      	str	r1, [r7, #0]
87804de8:	f107 031c 	add.w	r3, r7, #28
87804dec:	60fb      	str	r3, [r7, #12]
87804dee:	69ba      	ldr	r2, [r7, #24]
87804df0:	68fb      	ldr	r3, [r7, #12]
87804df2:	6839      	ldr	r1, [r7, #0]
87804df4:	6878      	ldr	r0, [r7, #4]
87804df6:	f7ff fc39 	bl	8780466c <vsnprintf>
87804dfa:	60b8      	str	r0, [r7, #8]
87804dfc:	68bb      	ldr	r3, [r7, #8]
87804dfe:	683a      	ldr	r2, [r7, #0]
87804e00:	429a      	cmp	r2, r3
87804e02:	d802      	bhi.n	87804e0a <scnprintf+0x2e>
87804e04:	683b      	ldr	r3, [r7, #0]
87804e06:	3b01      	subs	r3, #1
87804e08:	e000      	b.n	87804e0c <scnprintf+0x30>
87804e0a:	68bb      	ldr	r3, [r7, #8]
87804e0c:	4618      	mov	r0, r3
87804e0e:	3710      	adds	r7, #16
87804e10:	46bd      	mov	sp, r7
87804e12:	e8bd 4080 	ldmia.w	sp!, {r7, lr}
87804e16:	b002      	add	sp, #8
87804e18:	4770      	bx	lr

87804e1a <vsprintf>:
87804e1a:	b580      	push	{r7, lr}
87804e1c:	b084      	sub	sp, #16
87804e1e:	af00      	add	r7, sp, #0
87804e20:	60f8      	str	r0, [r7, #12]
87804e22:	60b9      	str	r1, [r7, #8]
87804e24:	607a      	str	r2, [r7, #4]
87804e26:	687b      	ldr	r3, [r7, #4]
87804e28:	68ba      	ldr	r2, [r7, #8]
87804e2a:	f06f 4100 	mvn.w	r1, #2147483648	; 0x80000000
87804e2e:	68f8      	ldr	r0, [r7, #12]
87804e30:	f7ff fc1c 	bl	8780466c <vsnprintf>
87804e34:	4603      	mov	r3, r0
87804e36:	4618      	mov	r0, r3
87804e38:	3710      	adds	r7, #16
87804e3a:	46bd      	mov	sp, r7
87804e3c:	bd80      	pop	{r7, pc}

87804e3e <sprintf>:
87804e3e:	b40e      	push	{r1, r2, r3}
87804e40:	b580      	push	{r7, lr}
87804e42:	b085      	sub	sp, #20
87804e44:	af00      	add	r7, sp, #0
87804e46:	6078      	str	r0, [r7, #4]
87804e48:	f107 0320 	add.w	r3, r7, #32
87804e4c:	60fb      	str	r3, [r7, #12]
87804e4e:	69fb      	ldr	r3, [r7, #28]
87804e50:	68fa      	ldr	r2, [r7, #12]
87804e52:	4619      	mov	r1, r3
87804e54:	6878      	ldr	r0, [r7, #4]
87804e56:	f7ff ffe0 	bl	87804e1a <vsprintf>
87804e5a:	60b8      	str	r0, [r7, #8]
87804e5c:	68bb      	ldr	r3, [r7, #8]
87804e5e:	4618      	mov	r0, r3
87804e60:	3714      	adds	r7, #20
87804e62:	46bd      	mov	sp, r7
87804e64:	e8bd 4080 	ldmia.w	sp!, {r7, lr}
87804e68:	b003      	add	sp, #12
87804e6a:	4770      	bx	lr

87804e6c <vsscanf>:
87804e6c:	b590      	push	{r4, r7, lr}
87804e6e:	b09b      	sub	sp, #108	; 0x6c
87804e70:	af00      	add	r7, sp, #0
87804e72:	60f8      	str	r0, [r7, #12]
87804e74:	60b9      	str	r1, [r7, #8]
87804e76:	607a      	str	r2, [r7, #4]
87804e78:	f8df 46d4 	ldr.w	r4, [pc, #1748]	; 87805550 <vsscanf+0x6e4>
87804e7c:	447c      	add	r4, pc
87804e7e:	68fb      	ldr	r3, [r7, #12]
87804e80:	667b      	str	r3, [r7, #100]	; 0x64
87804e82:	2300      	movs	r3, #0
87804e84:	65fb      	str	r3, [r7, #92]	; 0x5c
87804e86:	2300      	movs	r3, #0
87804e88:	64fb      	str	r3, [r7, #76]	; 0x4c
87804e8a:	e34d      	b.n	87805528 <vsscanf+0x6bc>
87804e8c:	68bb      	ldr	r3, [r7, #8]
87804e8e:	781b      	ldrb	r3, [r3, #0]
87804e90:	461a      	mov	r2, r3
87804e92:	f8df 36c0 	ldr.w	r3, [pc, #1728]	; 87805554 <vsscanf+0x6e8>
87804e96:	58e3      	ldr	r3, [r4, r3]
87804e98:	5c9b      	ldrb	r3, [r3, r2]
87804e9a:	f003 0320 	and.w	r3, r3, #32
87804e9e:	2b00      	cmp	r3, #0
87804ea0:	d01d      	beq.n	87804ede <vsscanf+0x72>
87804ea2:	e002      	b.n	87804eaa <vsscanf+0x3e>
87804ea4:	68bb      	ldr	r3, [r7, #8]
87804ea6:	3301      	adds	r3, #1
87804ea8:	60bb      	str	r3, [r7, #8]
87804eaa:	68bb      	ldr	r3, [r7, #8]
87804eac:	781b      	ldrb	r3, [r3, #0]
87804eae:	461a      	mov	r2, r3
87804eb0:	f8df 36a0 	ldr.w	r3, [pc, #1696]	; 87805554 <vsscanf+0x6e8>
87804eb4:	58e3      	ldr	r3, [r4, r3]
87804eb6:	5c9b      	ldrb	r3, [r3, r2]
87804eb8:	f003 0320 	and.w	r3, r3, #32
87804ebc:	2b00      	cmp	r3, #0
87804ebe:	d1f1      	bne.n	87804ea4 <vsscanf+0x38>
87804ec0:	e002      	b.n	87804ec8 <vsscanf+0x5c>
87804ec2:	6e7b      	ldr	r3, [r7, #100]	; 0x64
87804ec4:	3301      	adds	r3, #1
87804ec6:	667b      	str	r3, [r7, #100]	; 0x64
87804ec8:	6e7b      	ldr	r3, [r7, #100]	; 0x64
87804eca:	781b      	ldrb	r3, [r3, #0]
87804ecc:	461a      	mov	r2, r3
87804ece:	f8df 3684 	ldr.w	r3, [pc, #1668]	; 87805554 <vsscanf+0x6e8>
87804ed2:	58e3      	ldr	r3, [r4, r3]
87804ed4:	5c9b      	ldrb	r3, [r3, r2]
87804ed6:	f003 0320 	and.w	r3, r3, #32
87804eda:	2b00      	cmp	r3, #0
87804edc:	d1f1      	bne.n	87804ec2 <vsscanf+0x56>
87804ede:	68bb      	ldr	r3, [r7, #8]
87804ee0:	781b      	ldrb	r3, [r3, #0]
87804ee2:	2b25      	cmp	r3, #37	; 0x25
87804ee4:	d00f      	beq.n	87804f06 <vsscanf+0x9a>
87804ee6:	68bb      	ldr	r3, [r7, #8]
87804ee8:	781b      	ldrb	r3, [r3, #0]
87804eea:	2b00      	cmp	r3, #0
87804eec:	d00b      	beq.n	87804f06 <vsscanf+0x9a>
87804eee:	68bb      	ldr	r3, [r7, #8]
87804ef0:	1c5a      	adds	r2, r3, #1
87804ef2:	60ba      	str	r2, [r7, #8]
87804ef4:	781a      	ldrb	r2, [r3, #0]
87804ef6:	6e7b      	ldr	r3, [r7, #100]	; 0x64
87804ef8:	1c59      	adds	r1, r3, #1
87804efa:	6679      	str	r1, [r7, #100]	; 0x64
87804efc:	781b      	ldrb	r3, [r3, #0]
87804efe:	429a      	cmp	r2, r3
87804f00:	f040 831c 	bne.w	8780553c <vsscanf+0x6d0>
87804f04:	e310      	b.n	87805528 <vsscanf+0x6bc>
87804f06:	68bb      	ldr	r3, [r7, #8]
87804f08:	781b      	ldrb	r3, [r3, #0]
87804f0a:	2b00      	cmp	r3, #0
87804f0c:	f000 8318 	beq.w	87805540 <vsscanf+0x6d4>
87804f10:	68bb      	ldr	r3, [r7, #8]
87804f12:	3301      	adds	r3, #1
87804f14:	60bb      	str	r3, [r7, #8]
87804f16:	68bb      	ldr	r3, [r7, #8]
87804f18:	781b      	ldrb	r3, [r3, #0]
87804f1a:	2b2a      	cmp	r3, #42	; 0x2a
87804f1c:	d127      	bne.n	87804f6e <vsscanf+0x102>
87804f1e:	e002      	b.n	87804f26 <vsscanf+0xba>
87804f20:	68bb      	ldr	r3, [r7, #8]
87804f22:	3301      	adds	r3, #1
87804f24:	60bb      	str	r3, [r7, #8]
87804f26:	68bb      	ldr	r3, [r7, #8]
87804f28:	781b      	ldrb	r3, [r3, #0]
87804f2a:	461a      	mov	r2, r3
87804f2c:	f8df 3624 	ldr.w	r3, [pc, #1572]	; 87805554 <vsscanf+0x6e8>
87804f30:	58e3      	ldr	r3, [r4, r3]
87804f32:	5c9b      	ldrb	r3, [r3, r2]
87804f34:	f003 0320 	and.w	r3, r3, #32
87804f38:	2b00      	cmp	r3, #0
87804f3a:	d107      	bne.n	87804f4c <vsscanf+0xe0>
87804f3c:	68bb      	ldr	r3, [r7, #8]
87804f3e:	781b      	ldrb	r3, [r3, #0]
87804f40:	2b00      	cmp	r3, #0
87804f42:	d1ed      	bne.n	87804f20 <vsscanf+0xb4>
87804f44:	e002      	b.n	87804f4c <vsscanf+0xe0>
87804f46:	6e7b      	ldr	r3, [r7, #100]	; 0x64
87804f48:	3301      	adds	r3, #1
87804f4a:	667b      	str	r3, [r7, #100]	; 0x64
87804f4c:	6e7b      	ldr	r3, [r7, #100]	; 0x64
87804f4e:	781b      	ldrb	r3, [r3, #0]
87804f50:	461a      	mov	r2, r3
87804f52:	f8df 3600 	ldr.w	r3, [pc, #1536]	; 87805554 <vsscanf+0x6e8>
87804f56:	58e3      	ldr	r3, [r4, r3]
87804f58:	5c9b      	ldrb	r3, [r3, r2]
87804f5a:	f003 0320 	and.w	r3, r3, #32
87804f5e:	2b00      	cmp	r3, #0
87804f60:	f040 82e2 	bne.w	87805528 <vsscanf+0x6bc>
87804f64:	6e7b      	ldr	r3, [r7, #100]	; 0x64
87804f66:	781b      	ldrb	r3, [r3, #0]
87804f68:	2b00      	cmp	r3, #0
87804f6a:	d1ec      	bne.n	87804f46 <vsscanf+0xda>
87804f6c:	e2dc      	b.n	87805528 <vsscanf+0x6bc>
87804f6e:	f04f 33ff 	mov.w	r3, #4294967295	; 0xffffffff
87804f72:	653b      	str	r3, [r7, #80]	; 0x50
87804f74:	68bb      	ldr	r3, [r7, #8]
87804f76:	781b      	ldrb	r3, [r3, #0]
87804f78:	461a      	mov	r2, r3
87804f7a:	f8df 35d8 	ldr.w	r3, [pc, #1496]	; 87805554 <vsscanf+0x6e8>
87804f7e:	58e3      	ldr	r3, [r4, r3]
87804f80:	5c9b      	ldrb	r3, [r3, r2]
87804f82:	f003 0304 	and.w	r3, r3, #4
87804f86:	2b00      	cmp	r3, #0
87804f88:	d005      	beq.n	87804f96 <vsscanf+0x12a>
87804f8a:	f107 0308 	add.w	r3, r7, #8
87804f8e:	4618      	mov	r0, r3
87804f90:	f7ff f808 	bl	87803fa4 <skip_atoi>
87804f94:	6538      	str	r0, [r7, #80]	; 0x50
87804f96:	f04f 33ff 	mov.w	r3, #4294967295	; 0xffffffff
87804f9a:	65bb      	str	r3, [r7, #88]	; 0x58
87804f9c:	68bb      	ldr	r3, [r7, #8]
87804f9e:	781b      	ldrb	r3, [r3, #0]
87804fa0:	2b68      	cmp	r3, #104	; 0x68
87804fa2:	d00f      	beq.n	87804fc4 <vsscanf+0x158>
87804fa4:	68bb      	ldr	r3, [r7, #8]
87804fa6:	781b      	ldrb	r3, [r3, #0]
87804fa8:	2b6c      	cmp	r3, #108	; 0x6c
87804faa:	d00b      	beq.n	87804fc4 <vsscanf+0x158>
87804fac:	68bb      	ldr	r3, [r7, #8]
87804fae:	781b      	ldrb	r3, [r3, #0]
87804fb0:	2b4c      	cmp	r3, #76	; 0x4c
87804fb2:	d007      	beq.n	87804fc4 <vsscanf+0x158>
87804fb4:	68bb      	ldr	r3, [r7, #8]
87804fb6:	781b      	ldrb	r3, [r3, #0]
87804fb8:	2b5a      	cmp	r3, #90	; 0x5a
87804fba:	d003      	beq.n	87804fc4 <vsscanf+0x158>
87804fbc:	68bb      	ldr	r3, [r7, #8]
87804fbe:	781b      	ldrb	r3, [r3, #0]
87804fc0:	2b7a      	cmp	r3, #122	; 0x7a
87804fc2:	d120      	bne.n	87805006 <vsscanf+0x19a>
87804fc4:	68bb      	ldr	r3, [r7, #8]
87804fc6:	1c5a      	adds	r2, r3, #1
87804fc8:	60ba      	str	r2, [r7, #8]
87804fca:	781b      	ldrb	r3, [r3, #0]
87804fcc:	65bb      	str	r3, [r7, #88]	; 0x58
87804fce:	68bb      	ldr	r3, [r7, #8]
87804fd0:	781b      	ldrb	r3, [r3, #0]
87804fd2:	461a      	mov	r2, r3
87804fd4:	6dbb      	ldr	r3, [r7, #88]	; 0x58
87804fd6:	4293      	cmp	r3, r2
87804fd8:	bf0c      	ite	eq
87804fda:	2301      	moveq	r3, #1
87804fdc:	2300      	movne	r3, #0
87804fde:	b2db      	uxtb	r3, r3
87804fe0:	2b00      	cmp	r3, #0
87804fe2:	d010      	beq.n	87805006 <vsscanf+0x19a>
87804fe4:	6dbb      	ldr	r3, [r7, #88]	; 0x58
87804fe6:	2b68      	cmp	r3, #104	; 0x68
87804fe8:	d105      	bne.n	87804ff6 <vsscanf+0x18a>
87804fea:	2348      	movs	r3, #72	; 0x48
87804fec:	65bb      	str	r3, [r7, #88]	; 0x58
87804fee:	68bb      	ldr	r3, [r7, #8]
87804ff0:	3301      	adds	r3, #1
87804ff2:	60bb      	str	r3, [r7, #8]
87804ff4:	e007      	b.n	87805006 <vsscanf+0x19a>
87804ff6:	6dbb      	ldr	r3, [r7, #88]	; 0x58
87804ff8:	2b6c      	cmp	r3, #108	; 0x6c
87804ffa:	d104      	bne.n	87805006 <vsscanf+0x19a>
87804ffc:	234c      	movs	r3, #76	; 0x4c
87804ffe:	65bb      	str	r3, [r7, #88]	; 0x58
87805000:	68bb      	ldr	r3, [r7, #8]
87805002:	3301      	adds	r3, #1
87805004:	60bb      	str	r3, [r7, #8]
87805006:	230a      	movs	r3, #10
87805008:	657b      	str	r3, [r7, #84]	; 0x54
8780500a:	2300      	movs	r3, #0
8780500c:	64fb      	str	r3, [r7, #76]	; 0x4c
8780500e:	68bb      	ldr	r3, [r7, #8]
87805010:	781b      	ldrb	r3, [r3, #0]
87805012:	2b00      	cmp	r3, #0
87805014:	f000 8297 	beq.w	87805546 <vsscanf+0x6da>
87805018:	6e7b      	ldr	r3, [r7, #100]	; 0x64
8780501a:	781b      	ldrb	r3, [r3, #0]
8780501c:	2b00      	cmp	r3, #0
8780501e:	f000 8292 	beq.w	87805546 <vsscanf+0x6da>
87805022:	68bb      	ldr	r3, [r7, #8]
87805024:	1c5a      	adds	r2, r3, #1
87805026:	60ba      	str	r2, [r7, #8]
87805028:	781b      	ldrb	r3, [r3, #0]
8780502a:	2b25      	cmp	r3, #37	; 0x25
8780502c:	f000 80cf 	beq.w	878051ce <vsscanf+0x362>
87805030:	2b25      	cmp	r3, #37	; 0x25
87805032:	f2c0 80d5 	blt.w	878051e0 <vsscanf+0x374>
87805036:	2b78      	cmp	r3, #120	; 0x78
87805038:	f300 80d2 	bgt.w	878051e0 <vsscanf+0x374>
8780503c:	2b58      	cmp	r3, #88	; 0x58
8780503e:	f2c0 80cf 	blt.w	878051e0 <vsscanf+0x374>
87805042:	3b58      	subs	r3, #88	; 0x58
87805044:	2b20      	cmp	r3, #32
87805046:	f200 80cb 	bhi.w	878051e0 <vsscanf+0x374>
8780504a:	a202      	add	r2, pc, #8	; (adr r2, 87805054 <vsscanf+0x1e8>)
8780504c:	f852 3023 	ldr.w	r3, [r2, r3, lsl #2]
87805050:	441a      	add	r2, r3
87805052:	4710      	bx	r2
87805054:	0000016b 	andeq	r0, r0, fp, ror #2
87805058:	0000018d 	andeq	r0, r0, sp, lsl #3
8780505c:	0000018d 	andeq	r0, r0, sp, lsl #3
87805060:	0000018d 	andeq	r0, r0, sp, lsl #3
87805064:	0000018d 	andeq	r0, r0, sp, lsl #3
87805068:	0000018d 	andeq	r0, r0, sp, lsl #3
8780506c:	0000018d 	andeq	r0, r0, sp, lsl #3
87805070:	0000018d 	andeq	r0, r0, sp, lsl #3
87805074:	0000018d 	andeq	r0, r0, sp, lsl #3
87805078:	0000018d 	andeq	r0, r0, sp, lsl #3
8780507c:	0000018d 	andeq	r0, r0, sp, lsl #3
87805080:	00000085 	andeq	r0, r0, r5, lsl #1
87805084:	00000175 	andeq	r0, r0, r5, ror r1
87805088:	0000018d 	andeq	r0, r0, sp, lsl #3
8780508c:	0000018d 	andeq	r0, r0, sp, lsl #3
87805090:	0000018d 	andeq	r0, r0, sp, lsl #3
87805094:	0000018d 	andeq	r0, r0, sp, lsl #3
87805098:	00000171 	andeq	r0, r0, r1, ror r1
8780509c:	0000018d 	andeq	r0, r0, sp, lsl #3
878050a0:	0000018d 	andeq	r0, r0, sp, lsl #3
878050a4:	0000018d 	andeq	r0, r0, sp, lsl #3
878050a8:	0000018d 	andeq	r0, r0, sp, lsl #3
878050ac:	0000014b 	andeq	r0, r0, fp, asr #2
878050b0:	00000165 	andeq	r0, r0, r5, ror #2
878050b4:	0000018d 	andeq	r0, r0, sp, lsl #3
878050b8:	0000018d 	andeq	r0, r0, sp, lsl #3
878050bc:	0000018d 	andeq	r0, r0, sp, lsl #3
878050c0:	000000cb 	andeq	r0, r0, fp, asr #1
878050c4:	0000018d 	andeq	r0, r0, sp, lsl #3
878050c8:	00000191 	muleq	r0, r1, r1
878050cc:	0000018d 	andeq	r0, r0, sp, lsl #3
878050d0:	0000018d 	andeq	r0, r0, sp, lsl #3
878050d4:	0000016b 	andeq	r0, r0, fp, ror #2
878050d8:	687b      	ldr	r3, [r7, #4]
878050da:	3304      	adds	r3, #4
878050dc:	607b      	str	r3, [r7, #4]
878050de:	687b      	ldr	r3, [r7, #4]
878050e0:	f853 3c04 	ldr.w	r3, [r3, #-4]
878050e4:	64bb      	str	r3, [r7, #72]	; 0x48
878050e6:	6d3b      	ldr	r3, [r7, #80]	; 0x50
878050e8:	f1b3 3fff 	cmp.w	r3, #4294967295	; 0xffffffff
878050ec:	d101      	bne.n	878050f2 <vsscanf+0x286>
878050ee:	2301      	movs	r3, #1
878050f0:	653b      	str	r3, [r7, #80]	; 0x50
878050f2:	6e7a      	ldr	r2, [r7, #100]	; 0x64
878050f4:	1c53      	adds	r3, r2, #1
878050f6:	667b      	str	r3, [r7, #100]	; 0x64
878050f8:	6cbb      	ldr	r3, [r7, #72]	; 0x48
878050fa:	1c59      	adds	r1, r3, #1
878050fc:	64b9      	str	r1, [r7, #72]	; 0x48
878050fe:	7812      	ldrb	r2, [r2, #0]
87805100:	701a      	strb	r2, [r3, #0]
87805102:	6d3b      	ldr	r3, [r7, #80]	; 0x50
87805104:	3b01      	subs	r3, #1
87805106:	653b      	str	r3, [r7, #80]	; 0x50
87805108:	6d3b      	ldr	r3, [r7, #80]	; 0x50
8780510a:	2b00      	cmp	r3, #0
8780510c:	dd03      	ble.n	87805116 <vsscanf+0x2aa>
8780510e:	6e7b      	ldr	r3, [r7, #100]	; 0x64
87805110:	781b      	ldrb	r3, [r3, #0]
87805112:	2b00      	cmp	r3, #0
87805114:	d1ed      	bne.n	878050f2 <vsscanf+0x286>
87805116:	6dfb      	ldr	r3, [r7, #92]	; 0x5c
87805118:	3301      	adds	r3, #1
8780511a:	65fb      	str	r3, [r7, #92]	; 0x5c
8780511c:	e204      	b.n	87805528 <vsscanf+0x6bc>
8780511e:	687b      	ldr	r3, [r7, #4]
87805120:	3304      	adds	r3, #4
87805122:	607b      	str	r3, [r7, #4]
87805124:	687b      	ldr	r3, [r7, #4]
87805126:	f853 3c04 	ldr.w	r3, [r3, #-4]
8780512a:	647b      	str	r3, [r7, #68]	; 0x44
8780512c:	6d3b      	ldr	r3, [r7, #80]	; 0x50
8780512e:	f1b3 3fff 	cmp.w	r3, #4294967295	; 0xffffffff
87805132:	d106      	bne.n	87805142 <vsscanf+0x2d6>
87805134:	f06f 4300 	mvn.w	r3, #2147483648	; 0x80000000
87805138:	653b      	str	r3, [r7, #80]	; 0x50
8780513a:	e002      	b.n	87805142 <vsscanf+0x2d6>
8780513c:	6e7b      	ldr	r3, [r7, #100]	; 0x64
8780513e:	3301      	adds	r3, #1
87805140:	667b      	str	r3, [r7, #100]	; 0x64
87805142:	6e7b      	ldr	r3, [r7, #100]	; 0x64
87805144:	781b      	ldrb	r3, [r3, #0]
87805146:	461a      	mov	r2, r3
87805148:	f8df 3408 	ldr.w	r3, [pc, #1032]	; 87805554 <vsscanf+0x6e8>
8780514c:	58e3      	ldr	r3, [r4, r3]
8780514e:	5c9b      	ldrb	r3, [r3, r2]
87805150:	f003 0320 	and.w	r3, r3, #32
87805154:	2b00      	cmp	r3, #0
87805156:	d1f1      	bne.n	8780513c <vsscanf+0x2d0>
87805158:	e007      	b.n	8780516a <vsscanf+0x2fe>
8780515a:	6e7a      	ldr	r2, [r7, #100]	; 0x64
8780515c:	1c53      	adds	r3, r2, #1
8780515e:	667b      	str	r3, [r7, #100]	; 0x64
87805160:	6c7b      	ldr	r3, [r7, #68]	; 0x44
87805162:	1c59      	adds	r1, r3, #1
87805164:	6479      	str	r1, [r7, #68]	; 0x44
87805166:	7812      	ldrb	r2, [r2, #0]
87805168:	701a      	strb	r2, [r3, #0]
8780516a:	6e7b      	ldr	r3, [r7, #100]	; 0x64
8780516c:	781b      	ldrb	r3, [r3, #0]
8780516e:	2b00      	cmp	r3, #0
87805170:	d00e      	beq.n	87805190 <vsscanf+0x324>
87805172:	6e7b      	ldr	r3, [r7, #100]	; 0x64
87805174:	781b      	ldrb	r3, [r3, #0]
87805176:	461a      	mov	r2, r3
87805178:	4bf6      	ldr	r3, [pc, #984]	; (87805554 <vsscanf+0x6e8>)
8780517a:	58e3      	ldr	r3, [r4, r3]
8780517c:	5c9b      	ldrb	r3, [r3, r2]
8780517e:	f003 0320 	and.w	r3, r3, #32
87805182:	2b00      	cmp	r3, #0
87805184:	d104      	bne.n	87805190 <vsscanf+0x324>
87805186:	6d3b      	ldr	r3, [r7, #80]	; 0x50
87805188:	1e5a      	subs	r2, r3, #1
8780518a:	653a      	str	r2, [r7, #80]	; 0x50
8780518c:	2b00      	cmp	r3, #0
8780518e:	d1e4      	bne.n	8780515a <vsscanf+0x2ee>
87805190:	6c7b      	ldr	r3, [r7, #68]	; 0x44
87805192:	2200      	movs	r2, #0
87805194:	701a      	strb	r2, [r3, #0]
87805196:	6dfb      	ldr	r3, [r7, #92]	; 0x5c
87805198:	3301      	adds	r3, #1
8780519a:	65fb      	str	r3, [r7, #92]	; 0x5c
8780519c:	e1c4      	b.n	87805528 <vsscanf+0x6bc>
8780519e:	687b      	ldr	r3, [r7, #4]
878051a0:	3304      	adds	r3, #4
878051a2:	607b      	str	r3, [r7, #4]
878051a4:	687b      	ldr	r3, [r7, #4]
878051a6:	f853 3c04 	ldr.w	r3, [r3, #-4]
878051aa:	643b      	str	r3, [r7, #64]	; 0x40
878051ac:	6e7a      	ldr	r2, [r7, #100]	; 0x64
878051ae:	68fb      	ldr	r3, [r7, #12]
878051b0:	1ad2      	subs	r2, r2, r3
878051b2:	6c3b      	ldr	r3, [r7, #64]	; 0x40
878051b4:	601a      	str	r2, [r3, #0]
878051b6:	e1b7      	b.n	87805528 <vsscanf+0x6bc>
878051b8:	2308      	movs	r3, #8
878051ba:	657b      	str	r3, [r7, #84]	; 0x54
878051bc:	e013      	b.n	878051e6 <vsscanf+0x37a>
878051be:	2310      	movs	r3, #16
878051c0:	657b      	str	r3, [r7, #84]	; 0x54
878051c2:	e010      	b.n	878051e6 <vsscanf+0x37a>
878051c4:	2300      	movs	r3, #0
878051c6:	657b      	str	r3, [r7, #84]	; 0x54
878051c8:	2301      	movs	r3, #1
878051ca:	64fb      	str	r3, [r7, #76]	; 0x4c
878051cc:	e00a      	b.n	878051e4 <vsscanf+0x378>
878051ce:	6e7b      	ldr	r3, [r7, #100]	; 0x64
878051d0:	1c5a      	adds	r2, r3, #1
878051d2:	667a      	str	r2, [r7, #100]	; 0x64
878051d4:	781b      	ldrb	r3, [r3, #0]
878051d6:	2b25      	cmp	r3, #37	; 0x25
878051d8:	f000 81a6 	beq.w	87805528 <vsscanf+0x6bc>
878051dc:	6dfb      	ldr	r3, [r7, #92]	; 0x5c
878051de:	e1b3      	b.n	87805548 <vsscanf+0x6dc>
878051e0:	6dfb      	ldr	r3, [r7, #92]	; 0x5c
878051e2:	e1b1      	b.n	87805548 <vsscanf+0x6dc>
878051e4:	bf00      	nop
878051e6:	e002      	b.n	878051ee <vsscanf+0x382>
878051e8:	6e7b      	ldr	r3, [r7, #100]	; 0x64
878051ea:	3301      	adds	r3, #1
878051ec:	667b      	str	r3, [r7, #100]	; 0x64
878051ee:	6e7b      	ldr	r3, [r7, #100]	; 0x64
878051f0:	781b      	ldrb	r3, [r3, #0]
878051f2:	461a      	mov	r2, r3
878051f4:	4bd7      	ldr	r3, [pc, #860]	; (87805554 <vsscanf+0x6e8>)
878051f6:	58e3      	ldr	r3, [r4, r3]
878051f8:	5c9b      	ldrb	r3, [r3, r2]
878051fa:	f003 0320 	and.w	r3, r3, #32
878051fe:	2b00      	cmp	r3, #0
87805200:	d1f2      	bne.n	878051e8 <vsscanf+0x37c>
87805202:	6e7b      	ldr	r3, [r7, #100]	; 0x64
87805204:	781b      	ldrb	r3, [r3, #0]
87805206:	f887 3063 	strb.w	r3, [r7, #99]	; 0x63
8780520a:	6cfb      	ldr	r3, [r7, #76]	; 0x4c
8780520c:	2b00      	cmp	r3, #0
8780520e:	d008      	beq.n	87805222 <vsscanf+0x3b6>
87805210:	f897 3063 	ldrb.w	r3, [r7, #99]	; 0x63
87805214:	2b2d      	cmp	r3, #45	; 0x2d
87805216:	d104      	bne.n	87805222 <vsscanf+0x3b6>
87805218:	6e7b      	ldr	r3, [r7, #100]	; 0x64
8780521a:	3301      	adds	r3, #1
8780521c:	781b      	ldrb	r3, [r3, #0]
8780521e:	f887 3063 	strb.w	r3, [r7, #99]	; 0x63
87805222:	f897 3063 	ldrb.w	r3, [r7, #99]	; 0x63
87805226:	2b00      	cmp	r3, #0
87805228:	f000 818d 	beq.w	87805546 <vsscanf+0x6da>
8780522c:	6d7b      	ldr	r3, [r7, #84]	; 0x54
8780522e:	2b10      	cmp	r3, #16
87805230:	d109      	bne.n	87805246 <vsscanf+0x3da>
87805232:	f897 3063 	ldrb.w	r3, [r7, #99]	; 0x63
87805236:	4ac7      	ldr	r2, [pc, #796]	; (87805554 <vsscanf+0x6e8>)
87805238:	58a2      	ldr	r2, [r4, r2]
8780523a:	5cd3      	ldrb	r3, [r2, r3]
8780523c:	f003 0344 	and.w	r3, r3, #68	; 0x44
87805240:	2b00      	cmp	r3, #0
87805242:	f000 8180 	beq.w	87805546 <vsscanf+0x6da>
87805246:	6d7b      	ldr	r3, [r7, #84]	; 0x54
87805248:	2b0a      	cmp	r3, #10
8780524a:	d109      	bne.n	87805260 <vsscanf+0x3f4>
8780524c:	f897 3063 	ldrb.w	r3, [r7, #99]	; 0x63
87805250:	4ac0      	ldr	r2, [pc, #768]	; (87805554 <vsscanf+0x6e8>)
87805252:	58a2      	ldr	r2, [r4, r2]
87805254:	5cd3      	ldrb	r3, [r2, r3]
87805256:	f003 0304 	and.w	r3, r3, #4
8780525a:	2b00      	cmp	r3, #0
8780525c:	f000 8173 	beq.w	87805546 <vsscanf+0x6da>
87805260:	6d7b      	ldr	r3, [r7, #84]	; 0x54
87805262:	2b08      	cmp	r3, #8
87805264:	d10e      	bne.n	87805284 <vsscanf+0x418>
87805266:	f897 3063 	ldrb.w	r3, [r7, #99]	; 0x63
8780526a:	4aba      	ldr	r2, [pc, #744]	; (87805554 <vsscanf+0x6e8>)
8780526c:	58a2      	ldr	r2, [r4, r2]
8780526e:	5cd3      	ldrb	r3, [r2, r3]
87805270:	f003 0304 	and.w	r3, r3, #4
87805274:	2b00      	cmp	r3, #0
87805276:	f000 8166 	beq.w	87805546 <vsscanf+0x6da>
8780527a:	f897 3063 	ldrb.w	r3, [r7, #99]	; 0x63
8780527e:	2b37      	cmp	r3, #55	; 0x37
87805280:	f200 8161 	bhi.w	87805546 <vsscanf+0x6da>
87805284:	6d7b      	ldr	r3, [r7, #84]	; 0x54
87805286:	2b00      	cmp	r3, #0
87805288:	d109      	bne.n	8780529e <vsscanf+0x432>
8780528a:	f897 3063 	ldrb.w	r3, [r7, #99]	; 0x63
8780528e:	4ab1      	ldr	r2, [pc, #708]	; (87805554 <vsscanf+0x6e8>)
87805290:	58a2      	ldr	r2, [r4, r2]
87805292:	5cd3      	ldrb	r3, [r2, r3]
87805294:	f003 0304 	and.w	r3, r3, #4
87805298:	2b00      	cmp	r3, #0
8780529a:	f000 8154 	beq.w	87805546 <vsscanf+0x6da>
8780529e:	6dbb      	ldr	r3, [r7, #88]	; 0x58
878052a0:	2b6c      	cmp	r3, #108	; 0x6c
878052a2:	dc57      	bgt.n	87805354 <vsscanf+0x4e8>
878052a4:	6dbb      	ldr	r3, [r7, #88]	; 0x58
878052a6:	2b48      	cmp	r3, #72	; 0x48
878052a8:	f2c0 810f 	blt.w	878054ca <vsscanf+0x65e>
878052ac:	6dbb      	ldr	r3, [r7, #88]	; 0x58
878052ae:	3b48      	subs	r3, #72	; 0x48
878052b0:	2b24      	cmp	r3, #36	; 0x24
878052b2:	f200 810a 	bhi.w	878054ca <vsscanf+0x65e>
878052b6:	a202      	add	r2, pc, #8	; (adr r2, 878052c0 <vsscanf+0x454>)
878052b8:	f852 3023 	ldr.w	r3, [r2, r3, lsl #2]
878052bc:	441a      	add	r2, r3
878052be:	4710      	bx	r2
878052c0:	0000009f 	muleq	r0, pc, r0	; <UNPREDICTABLE>
878052c4:	0000020b 	andeq	r0, r0, fp, lsl #4
878052c8:	0000020b 	andeq	r0, r0, fp, lsl #4
878052cc:	0000020b 	andeq	r0, r0, fp, lsl #4
878052d0:	00000191 	muleq	r0, r1, r1
878052d4:	0000020b 	andeq	r0, r0, fp, lsl #4
878052d8:	0000020b 	andeq	r0, r0, fp, lsl #4
878052dc:	0000020b 	andeq	r0, r0, fp, lsl #4
878052e0:	0000020b 	andeq	r0, r0, fp, lsl #4
878052e4:	0000020b 	andeq	r0, r0, fp, lsl #4
878052e8:	0000020b 	andeq	r0, r0, fp, lsl #4
878052ec:	0000020b 	andeq	r0, r0, fp, lsl #4
878052f0:	0000020b 	andeq	r0, r0, fp, lsl #4
878052f4:	0000020b 	andeq	r0, r0, fp, lsl #4
878052f8:	0000020b 	andeq	r0, r0, fp, lsl #4
878052fc:	0000020b 	andeq	r0, r0, fp, lsl #4
87805300:	0000020b 	andeq	r0, r0, fp, lsl #4
87805304:	0000020b 	andeq	r0, r0, fp, lsl #4
87805308:	000001e7 	andeq	r0, r0, r7, ror #3
8780530c:	0000020b 	andeq	r0, r0, fp, lsl #4
87805310:	0000020b 	andeq	r0, r0, fp, lsl #4
87805314:	0000020b 	andeq	r0, r0, fp, lsl #4
87805318:	0000020b 	andeq	r0, r0, fp, lsl #4
8780531c:	0000020b 	andeq	r0, r0, fp, lsl #4
87805320:	0000020b 	andeq	r0, r0, fp, lsl #4
87805324:	0000020b 	andeq	r0, r0, fp, lsl #4
87805328:	0000020b 	andeq	r0, r0, fp, lsl #4
8780532c:	0000020b 	andeq	r0, r0, fp, lsl #4
87805330:	0000020b 	andeq	r0, r0, fp, lsl #4
87805334:	0000020b 	andeq	r0, r0, fp, lsl #4
87805338:	0000020b 	andeq	r0, r0, fp, lsl #4
8780533c:	0000020b 	andeq	r0, r0, fp, lsl #4
87805340:	000000f1 	strdeq	r0, [r0], -r1
87805344:	0000020b 	andeq	r0, r0, fp, lsl #4
87805348:	0000020b 	andeq	r0, r0, fp, lsl #4
8780534c:	0000020b 	andeq	r0, r0, fp, lsl #4
87805350:	00000143 	andeq	r0, r0, r3, asr #2
87805354:	6dbb      	ldr	r3, [r7, #88]	; 0x58
87805356:	2b7a      	cmp	r3, #122	; 0x7a
87805358:	f000 80a5 	beq.w	878054a6 <vsscanf+0x63a>
8780535c:	e0b5      	b.n	878054ca <vsscanf+0x65e>
8780535e:	6cfb      	ldr	r3, [r7, #76]	; 0x4c
87805360:	2b00      	cmp	r3, #0
87805362:	d012      	beq.n	8780538a <vsscanf+0x51e>
87805364:	687b      	ldr	r3, [r7, #4]
87805366:	3304      	adds	r3, #4
87805368:	607b      	str	r3, [r7, #4]
8780536a:	687b      	ldr	r3, [r7, #4]
8780536c:	f853 3c04 	ldr.w	r3, [r3, #-4]
87805370:	61fb      	str	r3, [r7, #28]
87805372:	6d7a      	ldr	r2, [r7, #84]	; 0x54
87805374:	f107 0310 	add.w	r3, r7, #16
87805378:	4619      	mov	r1, r3
8780537a:	6e78      	ldr	r0, [r7, #100]	; 0x64
8780537c:	f7fe fd16 	bl	87803dac <simple_strtol>
87805380:	4603      	mov	r3, r0
87805382:	b25a      	sxtb	r2, r3
87805384:	69fb      	ldr	r3, [r7, #28]
87805386:	701a      	strb	r2, [r3, #0]
87805388:	e0c6      	b.n	87805518 <vsscanf+0x6ac>
8780538a:	687b      	ldr	r3, [r7, #4]
8780538c:	3304      	adds	r3, #4
8780538e:	607b      	str	r3, [r7, #4]
87805390:	687b      	ldr	r3, [r7, #4]
87805392:	f853 3c04 	ldr.w	r3, [r3, #-4]
87805396:	623b      	str	r3, [r7, #32]
87805398:	6d7a      	ldr	r2, [r7, #84]	; 0x54
8780539a:	f107 0310 	add.w	r3, r7, #16
8780539e:	4619      	mov	r1, r3
878053a0:	6e78      	ldr	r0, [r7, #100]	; 0x64
878053a2:	f7fe fc81 	bl	87803ca8 <simple_strtoul>
878053a6:	4603      	mov	r3, r0
878053a8:	b2da      	uxtb	r2, r3
878053aa:	6a3b      	ldr	r3, [r7, #32]
878053ac:	701a      	strb	r2, [r3, #0]
878053ae:	e0b3      	b.n	87805518 <vsscanf+0x6ac>
878053b0:	6cfb      	ldr	r3, [r7, #76]	; 0x4c
878053b2:	2b00      	cmp	r3, #0
878053b4:	d012      	beq.n	878053dc <vsscanf+0x570>
878053b6:	687b      	ldr	r3, [r7, #4]
878053b8:	3304      	adds	r3, #4
878053ba:	607b      	str	r3, [r7, #4]
878053bc:	687b      	ldr	r3, [r7, #4]
878053be:	f853 3c04 	ldr.w	r3, [r3, #-4]
878053c2:	633b      	str	r3, [r7, #48]	; 0x30
878053c4:	6d7a      	ldr	r2, [r7, #84]	; 0x54
878053c6:	f107 0310 	add.w	r3, r7, #16
878053ca:	4619      	mov	r1, r3
878053cc:	6e78      	ldr	r0, [r7, #100]	; 0x64
878053ce:	f7fe fced 	bl	87803dac <simple_strtol>
878053d2:	4603      	mov	r3, r0
878053d4:	b21a      	sxth	r2, r3
878053d6:	6b3b      	ldr	r3, [r7, #48]	; 0x30
878053d8:	801a      	strh	r2, [r3, #0]
878053da:	e09d      	b.n	87805518 <vsscanf+0x6ac>
878053dc:	687b      	ldr	r3, [r7, #4]
878053de:	3304      	adds	r3, #4
878053e0:	607b      	str	r3, [r7, #4]
878053e2:	687b      	ldr	r3, [r7, #4]
878053e4:	f853 3c04 	ldr.w	r3, [r3, #-4]
878053e8:	637b      	str	r3, [r7, #52]	; 0x34
878053ea:	6d7a      	ldr	r2, [r7, #84]	; 0x54
878053ec:	f107 0310 	add.w	r3, r7, #16
878053f0:	4619      	mov	r1, r3
878053f2:	6e78      	ldr	r0, [r7, #100]	; 0x64
878053f4:	f7fe fc58 	bl	87803ca8 <simple_strtoul>
878053f8:	4603      	mov	r3, r0
878053fa:	b29a      	uxth	r2, r3
878053fc:	6b7b      	ldr	r3, [r7, #52]	; 0x34
878053fe:	801a      	strh	r2, [r3, #0]
87805400:	e08a      	b.n	87805518 <vsscanf+0x6ac>
87805402:	6cfb      	ldr	r3, [r7, #76]	; 0x4c
87805404:	2b00      	cmp	r3, #0
87805406:	d011      	beq.n	8780542c <vsscanf+0x5c0>
87805408:	687b      	ldr	r3, [r7, #4]
8780540a:	3304      	adds	r3, #4
8780540c:	607b      	str	r3, [r7, #4]
8780540e:	687b      	ldr	r3, [r7, #4]
87805410:	f853 3c04 	ldr.w	r3, [r3, #-4]
87805414:	63bb      	str	r3, [r7, #56]	; 0x38
87805416:	6d7a      	ldr	r2, [r7, #84]	; 0x54
87805418:	f107 0310 	add.w	r3, r7, #16
8780541c:	4619      	mov	r1, r3
8780541e:	6e78      	ldr	r0, [r7, #100]	; 0x64
87805420:	f7fe fcc4 	bl	87803dac <simple_strtol>
87805424:	4602      	mov	r2, r0
87805426:	6bbb      	ldr	r3, [r7, #56]	; 0x38
87805428:	601a      	str	r2, [r3, #0]
8780542a:	e075      	b.n	87805518 <vsscanf+0x6ac>
8780542c:	687b      	ldr	r3, [r7, #4]
8780542e:	3304      	adds	r3, #4
87805430:	607b      	str	r3, [r7, #4]
87805432:	687b      	ldr	r3, [r7, #4]
87805434:	f853 3c04 	ldr.w	r3, [r3, #-4]
87805438:	63fb      	str	r3, [r7, #60]	; 0x3c
8780543a:	6d7a      	ldr	r2, [r7, #84]	; 0x54
8780543c:	f107 0310 	add.w	r3, r7, #16
87805440:	4619      	mov	r1, r3
87805442:	6e78      	ldr	r0, [r7, #100]	; 0x64
87805444:	f7fe fc30 	bl	87803ca8 <simple_strtoul>
87805448:	4602      	mov	r2, r0
8780544a:	6bfb      	ldr	r3, [r7, #60]	; 0x3c
8780544c:	601a      	str	r2, [r3, #0]
8780544e:	e063      	b.n	87805518 <vsscanf+0x6ac>
87805450:	6cfb      	ldr	r3, [r7, #76]	; 0x4c
87805452:	2b00      	cmp	r3, #0
87805454:	d013      	beq.n	8780547e <vsscanf+0x612>
87805456:	687b      	ldr	r3, [r7, #4]
87805458:	3304      	adds	r3, #4
8780545a:	607b      	str	r3, [r7, #4]
8780545c:	687b      	ldr	r3, [r7, #4]
8780545e:	f853 3c04 	ldr.w	r3, [r3, #-4]
87805462:	627b      	str	r3, [r7, #36]	; 0x24
87805464:	6d7a      	ldr	r2, [r7, #84]	; 0x54
87805466:	f107 0310 	add.w	r3, r7, #16
8780546a:	4619      	mov	r1, r3
8780546c:	6e78      	ldr	r0, [r7, #100]	; 0x64
8780546e:	f7fe fd73 	bl	87803f58 <simple_strtoll>
87805472:	4602      	mov	r2, r0
87805474:	460b      	mov	r3, r1
87805476:	6a79      	ldr	r1, [r7, #36]	; 0x24
87805478:	e9c1 2300 	strd	r2, r3, [r1]
8780547c:	e04c      	b.n	87805518 <vsscanf+0x6ac>
8780547e:	687b      	ldr	r3, [r7, #4]
87805480:	3304      	adds	r3, #4
87805482:	607b      	str	r3, [r7, #4]
87805484:	687b      	ldr	r3, [r7, #4]
87805486:	f853 3c04 	ldr.w	r3, [r3, #-4]
8780548a:	62bb      	str	r3, [r7, #40]	; 0x28
8780548c:	6d7a      	ldr	r2, [r7, #84]	; 0x54
8780548e:	f107 0310 	add.w	r3, r7, #16
87805492:	4619      	mov	r1, r3
87805494:	6e78      	ldr	r0, [r7, #100]	; 0x64
87805496:	f7fe fca7 	bl	87803de8 <simple_strtoull>
8780549a:	4602      	mov	r2, r0
8780549c:	460b      	mov	r3, r1
8780549e:	6ab9      	ldr	r1, [r7, #40]	; 0x28
878054a0:	e9c1 2300 	strd	r2, r3, [r1]
878054a4:	e038      	b.n	87805518 <vsscanf+0x6ac>
878054a6:	687b      	ldr	r3, [r7, #4]
878054a8:	3304      	adds	r3, #4
878054aa:	607b      	str	r3, [r7, #4]
878054ac:	687b      	ldr	r3, [r7, #4]
878054ae:	f853 3c04 	ldr.w	r3, [r3, #-4]
878054b2:	62fb      	str	r3, [r7, #44]	; 0x2c
878054b4:	6d7a      	ldr	r2, [r7, #84]	; 0x54
878054b6:	f107 0310 	add.w	r3, r7, #16
878054ba:	4619      	mov	r1, r3
878054bc:	6e78      	ldr	r0, [r7, #100]	; 0x64
878054be:	f7fe fbf3 	bl	87803ca8 <simple_strtoul>
878054c2:	4602      	mov	r2, r0
878054c4:	6afb      	ldr	r3, [r7, #44]	; 0x2c
878054c6:	601a      	str	r2, [r3, #0]
878054c8:	e026      	b.n	87805518 <vsscanf+0x6ac>
878054ca:	6cfb      	ldr	r3, [r7, #76]	; 0x4c
878054cc:	2b00      	cmp	r3, #0
878054ce:	d011      	beq.n	878054f4 <vsscanf+0x688>
878054d0:	687b      	ldr	r3, [r7, #4]
878054d2:	3304      	adds	r3, #4
878054d4:	607b      	str	r3, [r7, #4]
878054d6:	687b      	ldr	r3, [r7, #4]
878054d8:	f853 3c04 	ldr.w	r3, [r3, #-4]
878054dc:	617b      	str	r3, [r7, #20]
878054de:	6d7a      	ldr	r2, [r7, #84]	; 0x54
878054e0:	f107 0310 	add.w	r3, r7, #16
878054e4:	4619      	mov	r1, r3
878054e6:	6e78      	ldr	r0, [r7, #100]	; 0x64
878054e8:	f7fe fc60 	bl	87803dac <simple_strtol>
878054ec:	4602      	mov	r2, r0
878054ee:	697b      	ldr	r3, [r7, #20]
878054f0:	601a      	str	r2, [r3, #0]
878054f2:	e010      	b.n	87805516 <vsscanf+0x6aa>
878054f4:	687b      	ldr	r3, [r7, #4]
878054f6:	3304      	adds	r3, #4
878054f8:	607b      	str	r3, [r7, #4]
878054fa:	687b      	ldr	r3, [r7, #4]
878054fc:	f853 3c04 	ldr.w	r3, [r3, #-4]
87805500:	61bb      	str	r3, [r7, #24]
87805502:	6d7a      	ldr	r2, [r7, #84]	; 0x54
87805504:	f107 0310 	add.w	r3, r7, #16
87805508:	4619      	mov	r1, r3
8780550a:	6e78      	ldr	r0, [r7, #100]	; 0x64
8780550c:	f7fe fbcc 	bl	87803ca8 <simple_strtoul>
87805510:	4602      	mov	r2, r0
87805512:	69bb      	ldr	r3, [r7, #24]
87805514:	601a      	str	r2, [r3, #0]
87805516:	bf00      	nop
87805518:	6dfb      	ldr	r3, [r7, #92]	; 0x5c
8780551a:	3301      	adds	r3, #1
8780551c:	65fb      	str	r3, [r7, #92]	; 0x5c
8780551e:	693b      	ldr	r3, [r7, #16]
87805520:	2b00      	cmp	r3, #0
87805522:	d00f      	beq.n	87805544 <vsscanf+0x6d8>
87805524:	693b      	ldr	r3, [r7, #16]
87805526:	667b      	str	r3, [r7, #100]	; 0x64
87805528:	68bb      	ldr	r3, [r7, #8]
8780552a:	781b      	ldrb	r3, [r3, #0]
8780552c:	2b00      	cmp	r3, #0
8780552e:	d00a      	beq.n	87805546 <vsscanf+0x6da>
87805530:	6e7b      	ldr	r3, [r7, #100]	; 0x64
87805532:	781b      	ldrb	r3, [r3, #0]
87805534:	2b00      	cmp	r3, #0
87805536:	f47f aca9 	bne.w	87804e8c <vsscanf+0x20>
8780553a:	e004      	b.n	87805546 <vsscanf+0x6da>
8780553c:	bf00      	nop
8780553e:	e002      	b.n	87805546 <vsscanf+0x6da>
87805540:	bf00      	nop
87805542:	e000      	b.n	87805546 <vsscanf+0x6da>
87805544:	bf00      	nop
87805546:	6dfb      	ldr	r3, [r7, #92]	; 0x5c
87805548:	4618      	mov	r0, r3
8780554a:	376c      	adds	r7, #108	; 0x6c
8780554c:	46bd      	mov	sp, r7
8780554e:	bd90      	pop	{r4, r7, pc}
87805550:	0000557c 	andeq	r5, r0, ip, ror r5
87805554:	00000000 	andeq	r0, r0, r0

87805558 <sscanf>:
87805558:	b40e      	push	{r1, r2, r3}
8780555a:	b580      	push	{r7, lr}
8780555c:	b085      	sub	sp, #20
8780555e:	af00      	add	r7, sp, #0
87805560:	6078      	str	r0, [r7, #4]
87805562:	f107 0320 	add.w	r3, r7, #32
87805566:	60fb      	str	r3, [r7, #12]
87805568:	69fb      	ldr	r3, [r7, #28]
8780556a:	68fa      	ldr	r2, [r7, #12]
8780556c:	4619      	mov	r1, r3
8780556e:	6878      	ldr	r0, [r7, #4]
87805570:	f7ff fc7c 	bl	87804e6c <vsscanf>
87805574:	60b8      	str	r0, [r7, #8]
87805576:	68bb      	ldr	r3, [r7, #8]
87805578:	4618      	mov	r0, r3
8780557a:	3714      	adds	r7, #20
8780557c:	46bd      	mov	sp, r7
8780557e:	e8bd 4080 	ldmia.w	sp!, {r7, lr}
87805582:	b003      	add	sp, #12
87805584:	4770      	bx	lr
87805586:	bf00      	nop

87805588 <int_init>:
87805588:	b580      	push	{r7, lr}
8780558a:	b086      	sub	sp, #24
8780558c:	af00      	add	r7, sp, #0
8780558e:	ee9f 3f10 	mrc	15, 4, r3, cr15, cr0, {0}
87805592:	613b      	str	r3, [r7, #16]
87805594:	693b      	ldr	r3, [r7, #16]
87805596:	bf00      	nop
87805598:	0c1b      	lsrs	r3, r3, #16
8780559a:	041b      	lsls	r3, r3, #16
8780559c:	60fb      	str	r3, [r7, #12]
8780559e:	68fb      	ldr	r3, [r7, #12]
878055a0:	f503 5380 	add.w	r3, r3, #4096	; 0x1000
878055a4:	685b      	ldr	r3, [r3, #4]
878055a6:	f003 031f 	and.w	r3, r3, #31
878055aa:	3301      	adds	r3, #1
878055ac:	60bb      	str	r3, [r7, #8]
878055ae:	2300      	movs	r3, #0
878055b0:	607b      	str	r3, [r7, #4]
878055b2:	e00a      	b.n	878055ca <int_init+0x42>
878055b4:	68fb      	ldr	r3, [r7, #12]
878055b6:	687a      	ldr	r2, [r7, #4]
878055b8:	f502 628c 	add.w	r2, r2, #1120	; 0x460
878055bc:	f04f 31ff 	mov.w	r1, #4294967295	; 0xffffffff
878055c0:	f843 1022 	str.w	r1, [r3, r2, lsl #2]
878055c4:	687b      	ldr	r3, [r7, #4]
878055c6:	3301      	adds	r3, #1
878055c8:	607b      	str	r3, [r7, #4]
878055ca:	68ba      	ldr	r2, [r7, #8]
878055cc:	687b      	ldr	r3, [r7, #4]
878055ce:	429a      	cmp	r2, r3
878055d0:	d8f0      	bhi.n	878055b4 <int_init+0x2c>
878055d2:	68fb      	ldr	r3, [r7, #12]
878055d4:	f503 5300 	add.w	r3, r3, #8192	; 0x2000
878055d8:	461a      	mov	r2, r3
878055da:	23f8      	movs	r3, #248	; 0xf8
878055dc:	6053      	str	r3, [r2, #4]
878055de:	68fb      	ldr	r3, [r7, #12]
878055e0:	f503 5300 	add.w	r3, r3, #8192	; 0x2000
878055e4:	461a      	mov	r2, r3
878055e6:	2302      	movs	r3, #2
878055e8:	6093      	str	r3, [r2, #8]
878055ea:	68fb      	ldr	r3, [r7, #12]
878055ec:	f503 5380 	add.w	r3, r3, #4096	; 0x1000
878055f0:	461a      	mov	r2, r3
878055f2:	2301      	movs	r3, #1
878055f4:	6013      	str	r3, [r2, #0]
878055f6:	68fb      	ldr	r3, [r7, #12]
878055f8:	f503 5300 	add.w	r3, r3, #8192	; 0x2000
878055fc:	461a      	mov	r2, r3
878055fe:	2301      	movs	r3, #1
87805600:	6013      	str	r3, [r2, #0]
87805602:	bf00      	nop
87805604:	f000 f80c 	bl	87805620 <system_irqtable_init>
87805608:	2300      	movs	r3, #0
8780560a:	f2c8 7380 	movt	r3, #34688	; 0x8780
8780560e:	617b      	str	r3, [r7, #20]
87805610:	697b      	ldr	r3, [r7, #20]
87805612:	ee0c 3f10 	mcr	15, 0, r3, cr12, cr0, {0}
87805616:	bf00      	nop
87805618:	bf00      	nop
8780561a:	3718      	adds	r7, #24
8780561c:	46bd      	mov	sp, r7
8780561e:	bd80      	pop	{r7, pc}

87805620 <system_irqtable_init>:
87805620:	b580      	push	{r7, lr}
87805622:	b082      	sub	sp, #8
87805624:	af00      	add	r7, sp, #0
87805626:	2300      	movs	r3, #0
87805628:	607b      	str	r3, [r7, #4]
8780562a:	4b0c      	ldr	r3, [pc, #48]	; (8780565c <system_irqtable_init+0x3c>)
8780562c:	447b      	add	r3, pc
8780562e:	2200      	movs	r2, #0
87805630:	601a      	str	r2, [r3, #0]
87805632:	2300      	movs	r3, #0
87805634:	607b      	str	r3, [r7, #4]
87805636:	e009      	b.n	8780564c <system_irqtable_init+0x2c>
87805638:	687b      	ldr	r3, [r7, #4]
8780563a:	2200      	movs	r2, #0
8780563c:	4908      	ldr	r1, [pc, #32]	; (87805660 <system_irqtable_init+0x40>)
8780563e:	4479      	add	r1, pc
87805640:	4618      	mov	r0, r3
87805642:	f000 f80f 	bl	87805664 <system_register_irqhandler>
87805646:	687b      	ldr	r3, [r7, #4]
87805648:	3301      	adds	r3, #1
8780564a:	607b      	str	r3, [r7, #4]
8780564c:	687b      	ldr	r3, [r7, #4]
8780564e:	2b9f      	cmp	r3, #159	; 0x9f
87805650:	d9f2      	bls.n	87805638 <system_irqtable_init+0x18>
87805652:	bf00      	nop
87805654:	bf00      	nop
87805656:	3708      	adds	r7, #8
87805658:	46bd      	mov	sp, r7
8780565a:	bd80      	pop	{r7, pc}
8780565c:	0000560c 	andeq	r5, r0, ip, lsl #12
87805660:	000000db 	ldrdeq	r0, [r0], -fp

87805664 <system_register_irqhandler>:
87805664:	b480      	push	{r7}
87805666:	b085      	sub	sp, #20
87805668:	af00      	add	r7, sp, #0
8780566a:	60f8      	str	r0, [r7, #12]
8780566c:	60b9      	str	r1, [r7, #8]
8780566e:	607a      	str	r2, [r7, #4]
87805670:	4b09      	ldr	r3, [pc, #36]	; (87805698 <system_register_irqhandler+0x34>)
87805672:	447b      	add	r3, pc
87805674:	68fa      	ldr	r2, [r7, #12]
87805676:	68b9      	ldr	r1, [r7, #8]
87805678:	f843 1032 	str.w	r1, [r3, r2, lsl #3]
8780567c:	4a07      	ldr	r2, [pc, #28]	; (8780569c <system_register_irqhandler+0x38>)
8780567e:	447a      	add	r2, pc
87805680:	68fb      	ldr	r3, [r7, #12]
87805682:	00db      	lsls	r3, r3, #3
87805684:	4413      	add	r3, r2
87805686:	687a      	ldr	r2, [r7, #4]
87805688:	605a      	str	r2, [r3, #4]
8780568a:	bf00      	nop
8780568c:	3714      	adds	r7, #20
8780568e:	46bd      	mov	sp, r7
87805690:	f85d 7b04 	ldr.w	r7, [sp], #4
87805694:	4770      	bx	lr
87805696:	bf00      	nop
87805698:	000055ca 	andeq	r5, r0, sl, asr #11
8780569c:	000055be 			; <UNDEFINED> instruction: 0x000055be

878056a0 <system_irqhandler>:
878056a0:	b580      	push	{r7, lr}
878056a2:	b084      	sub	sp, #16
878056a4:	af00      	add	r7, sp, #0
878056a6:	6078      	str	r0, [r7, #4]
878056a8:	687b      	ldr	r3, [r7, #4]
878056aa:	f3c3 0309 	ubfx	r3, r3, #0, #10
878056ae:	60fb      	str	r3, [r7, #12]
878056b0:	68fb      	ldr	r3, [r7, #12]
878056b2:	f240 32ff 	movw	r2, #1023	; 0x3ff
878056b6:	4293      	cmp	r3, r2
878056b8:	d01f      	beq.n	878056fa <system_irqhandler+0x5a>
878056ba:	68fb      	ldr	r3, [r7, #12]
878056bc:	2b9f      	cmp	r3, #159	; 0x9f
878056be:	d81c      	bhi.n	878056fa <system_irqhandler+0x5a>
878056c0:	4b10      	ldr	r3, [pc, #64]	; (87805704 <system_irqhandler+0x64>)
878056c2:	447b      	add	r3, pc
878056c4:	681b      	ldr	r3, [r3, #0]
878056c6:	1c5a      	adds	r2, r3, #1
878056c8:	4b0f      	ldr	r3, [pc, #60]	; (87805708 <system_irqhandler+0x68>)
878056ca:	447b      	add	r3, pc
878056cc:	601a      	str	r2, [r3, #0]
878056ce:	4b0f      	ldr	r3, [pc, #60]	; (8780570c <system_irqhandler+0x6c>)
878056d0:	447b      	add	r3, pc
878056d2:	68fa      	ldr	r2, [r7, #12]
878056d4:	f853 2032 	ldr.w	r2, [r3, r2, lsl #3]
878056d8:	490d      	ldr	r1, [pc, #52]	; (87805710 <system_irqhandler+0x70>)
878056da:	4479      	add	r1, pc
878056dc:	68fb      	ldr	r3, [r7, #12]
878056de:	00db      	lsls	r3, r3, #3
878056e0:	440b      	add	r3, r1
878056e2:	685b      	ldr	r3, [r3, #4]
878056e4:	4619      	mov	r1, r3
878056e6:	68f8      	ldr	r0, [r7, #12]
878056e8:	4790      	blx	r2
878056ea:	4b0a      	ldr	r3, [pc, #40]	; (87805714 <system_irqhandler+0x74>)
878056ec:	447b      	add	r3, pc
878056ee:	681b      	ldr	r3, [r3, #0]
878056f0:	1e5a      	subs	r2, r3, #1
878056f2:	4b09      	ldr	r3, [pc, #36]	; (87805718 <system_irqhandler+0x78>)
878056f4:	447b      	add	r3, pc
878056f6:	601a      	str	r2, [r3, #0]
878056f8:	e000      	b.n	878056fc <system_irqhandler+0x5c>
878056fa:	bf00      	nop
878056fc:	3710      	adds	r7, #16
878056fe:	46bd      	mov	sp, r7
87805700:	bd80      	pop	{r7, pc}
87805702:	bf00      	nop
87805704:	00005576 	andeq	r5, r0, r6, ror r5
87805708:	0000556e 	andeq	r5, r0, lr, ror #10
8780570c:	0000556c 	andeq	r5, r0, ip, ror #10
87805710:	00005562 	andeq	r5, r0, r2, ror #10
87805714:	0000554c 	andeq	r5, r0, ip, asr #10
87805718:	00005544 	andeq	r5, r0, r4, asr #10

8780571c <default_irqhandler>:
8780571c:	b480      	push	{r7}
8780571e:	b083      	sub	sp, #12
87805720:	af00      	add	r7, sp, #0
87805722:	6078      	str	r0, [r7, #4]
87805724:	6039      	str	r1, [r7, #0]
87805726:	e7fe      	b.n	87805726 <default_irqhandler+0xa>

87805728 <__udivsi3>:
87805728:	1e4a      	subs	r2, r1, #1
8780572a:	bf08      	it	eq
8780572c:	4770      	bxeq	lr
8780572e:	f0c0 8124 	bcc.w	8780597a <__udivsi3+0x252>
87805732:	4288      	cmp	r0, r1
87805734:	f240 8116 	bls.w	87805964 <__udivsi3+0x23c>
87805738:	4211      	tst	r1, r2
8780573a:	f000 8117 	beq.w	8780596c <__udivsi3+0x244>
8780573e:	fab0 f380 	clz	r3, r0
87805742:	fab1 f281 	clz	r2, r1
87805746:	eba2 0303 	sub.w	r3, r2, r3
8780574a:	f1c3 031f 	rsb	r3, r3, #31
8780574e:	a204      	add	r2, pc, #16	; (adr r2, 87805760 <__udivsi3+0x38>)
87805750:	eb02 1303 	add.w	r3, r2, r3, lsl #4
87805754:	f04f 0200 	mov.w	r2, #0
87805758:	469f      	mov	pc, r3
8780575a:	bf00      	nop
8780575c:	f3af 8000 	nop.w
87805760:	ebb0 7fc1 	cmp.w	r0, r1, lsl #31
87805764:	bf00      	nop
87805766:	eb42 0202 	adc.w	r2, r2, r2
8780576a:	bf28      	it	cs
8780576c:	eba0 70c1 	subcs.w	r0, r0, r1, lsl #31
87805770:	ebb0 7f81 	cmp.w	r0, r1, lsl #30
87805774:	bf00      	nop
87805776:	eb42 0202 	adc.w	r2, r2, r2
8780577a:	bf28      	it	cs
8780577c:	eba0 7081 	subcs.w	r0, r0, r1, lsl #30
87805780:	ebb0 7f41 	cmp.w	r0, r1, lsl #29
87805784:	bf00      	nop
87805786:	eb42 0202 	adc.w	r2, r2, r2
8780578a:	bf28      	it	cs
8780578c:	eba0 7041 	subcs.w	r0, r0, r1, lsl #29
87805790:	ebb0 7f01 	cmp.w	r0, r1, lsl #28
87805794:	bf00      	nop
87805796:	eb42 0202 	adc.w	r2, r2, r2
8780579a:	bf28      	it	cs
8780579c:	eba0 7001 	subcs.w	r0, r0, r1, lsl #28
878057a0:	ebb0 6fc1 	cmp.w	r0, r1, lsl #27
878057a4:	bf00      	nop
878057a6:	eb42 0202 	adc.w	r2, r2, r2
878057aa:	bf28      	it	cs
878057ac:	eba0 60c1 	subcs.w	r0, r0, r1, lsl #27
878057b0:	ebb0 6f81 	cmp.w	r0, r1, lsl #26
878057b4:	bf00      	nop
878057b6:	eb42 0202 	adc.w	r2, r2, r2
878057ba:	bf28      	it	cs
878057bc:	eba0 6081 	subcs.w	r0, r0, r1, lsl #26
878057c0:	ebb0 6f41 	cmp.w	r0, r1, lsl #25
878057c4:	bf00      	nop
878057c6:	eb42 0202 	adc.w	r2, r2, r2
878057ca:	bf28      	it	cs
878057cc:	eba0 6041 	subcs.w	r0, r0, r1, lsl #25
878057d0:	ebb0 6f01 	cmp.w	r0, r1, lsl #24
878057d4:	bf00      	nop
878057d6:	eb42 0202 	adc.w	r2, r2, r2
878057da:	bf28      	it	cs
878057dc:	eba0 6001 	subcs.w	r0, r0, r1, lsl #24
878057e0:	ebb0 5fc1 	cmp.w	r0, r1, lsl #23
878057e4:	bf00      	nop
878057e6:	eb42 0202 	adc.w	r2, r2, r2
878057ea:	bf28      	it	cs
878057ec:	eba0 50c1 	subcs.w	r0, r0, r1, lsl #23
878057f0:	ebb0 5f81 	cmp.w	r0, r1, lsl #22
878057f4:	bf00      	nop
878057f6:	eb42 0202 	adc.w	r2, r2, r2
878057fa:	bf28      	it	cs
878057fc:	eba0 5081 	subcs.w	r0, r0, r1, lsl #22
87805800:	ebb0 5f41 	cmp.w	r0, r1, lsl #21
87805804:	bf00      	nop
87805806:	eb42 0202 	adc.w	r2, r2, r2
8780580a:	bf28      	it	cs
8780580c:	eba0 5041 	subcs.w	r0, r0, r1, lsl #21
87805810:	ebb0 5f01 	cmp.w	r0, r1, lsl #20
87805814:	bf00      	nop
87805816:	eb42 0202 	adc.w	r2, r2, r2
8780581a:	bf28      	it	cs
8780581c:	eba0 5001 	subcs.w	r0, r0, r1, lsl #20
87805820:	ebb0 4fc1 	cmp.w	r0, r1, lsl #19
87805824:	bf00      	nop
87805826:	eb42 0202 	adc.w	r2, r2, r2
8780582a:	bf28      	it	cs
8780582c:	eba0 40c1 	subcs.w	r0, r0, r1, lsl #19
87805830:	ebb0 4f81 	cmp.w	r0, r1, lsl #18
87805834:	bf00      	nop
87805836:	eb42 0202 	adc.w	r2, r2, r2
8780583a:	bf28      	it	cs
8780583c:	eba0 4081 	subcs.w	r0, r0, r1, lsl #18
87805840:	ebb0 4f41 	cmp.w	r0, r1, lsl #17
87805844:	bf00      	nop
87805846:	eb42 0202 	adc.w	r2, r2, r2
8780584a:	bf28      	it	cs
8780584c:	eba0 4041 	subcs.w	r0, r0, r1, lsl #17
87805850:	ebb0 4f01 	cmp.w	r0, r1, lsl #16
87805854:	bf00      	nop
87805856:	eb42 0202 	adc.w	r2, r2, r2
8780585a:	bf28      	it	cs
8780585c:	eba0 4001 	subcs.w	r0, r0, r1, lsl #16
87805860:	ebb0 3fc1 	cmp.w	r0, r1, lsl #15
87805864:	bf00      	nop
87805866:	eb42 0202 	adc.w	r2, r2, r2
8780586a:	bf28      	it	cs
8780586c:	eba0 30c1 	subcs.w	r0, r0, r1, lsl #15
87805870:	ebb0 3f81 	cmp.w	r0, r1, lsl #14
87805874:	bf00      	nop
87805876:	eb42 0202 	adc.w	r2, r2, r2
8780587a:	bf28      	it	cs
8780587c:	eba0 3081 	subcs.w	r0, r0, r1, lsl #14
87805880:	ebb0 3f41 	cmp.w	r0, r1, lsl #13
87805884:	bf00      	nop
87805886:	eb42 0202 	adc.w	r2, r2, r2
8780588a:	bf28      	it	cs
8780588c:	eba0 3041 	subcs.w	r0, r0, r1, lsl #13
87805890:	ebb0 3f01 	cmp.w	r0, r1, lsl #12
87805894:	bf00      	nop
87805896:	eb42 0202 	adc.w	r2, r2, r2
8780589a:	bf28      	it	cs
8780589c:	eba0 3001 	subcs.w	r0, r0, r1, lsl #12
878058a0:	ebb0 2fc1 	cmp.w	r0, r1, lsl #11
878058a4:	bf00      	nop
878058a6:	eb42 0202 	adc.w	r2, r2, r2
878058aa:	bf28      	it	cs
878058ac:	eba0 20c1 	subcs.w	r0, r0, r1, lsl #11
878058b0:	ebb0 2f81 	cmp.w	r0, r1, lsl #10
878058b4:	bf00      	nop
878058b6:	eb42 0202 	adc.w	r2, r2, r2
878058ba:	bf28      	it	cs
878058bc:	eba0 2081 	subcs.w	r0, r0, r1, lsl #10
878058c0:	ebb0 2f41 	cmp.w	r0, r1, lsl #9
878058c4:	bf00      	nop
878058c6:	eb42 0202 	adc.w	r2, r2, r2
878058ca:	bf28      	it	cs
878058cc:	eba0 2041 	subcs.w	r0, r0, r1, lsl #9
878058d0:	ebb0 2f01 	cmp.w	r0, r1, lsl #8
878058d4:	bf00      	nop
878058d6:	eb42 0202 	adc.w	r2, r2, r2
878058da:	bf28      	it	cs
878058dc:	eba0 2001 	subcs.w	r0, r0, r1, lsl #8
878058e0:	ebb0 1fc1 	cmp.w	r0, r1, lsl #7
878058e4:	bf00      	nop
878058e6:	eb42 0202 	adc.w	r2, r2, r2
878058ea:	bf28      	it	cs
878058ec:	eba0 10c1 	subcs.w	r0, r0, r1, lsl #7
878058f0:	ebb0 1f81 	cmp.w	r0, r1, lsl #6
878058f4:	bf00      	nop
878058f6:	eb42 0202 	adc.w	r2, r2, r2
878058fa:	bf28      	it	cs
878058fc:	eba0 1081 	subcs.w	r0, r0, r1, lsl #6
87805900:	ebb0 1f41 	cmp.w	r0, r1, lsl #5
87805904:	bf00      	nop
87805906:	eb42 0202 	adc.w	r2, r2, r2
8780590a:	bf28      	it	cs
8780590c:	eba0 1041 	subcs.w	r0, r0, r1, lsl #5
87805910:	ebb0 1f01 	cmp.w	r0, r1, lsl #4
87805914:	bf00      	nop
87805916:	eb42 0202 	adc.w	r2, r2, r2
8780591a:	bf28      	it	cs
8780591c:	eba0 1001 	subcs.w	r0, r0, r1, lsl #4
87805920:	ebb0 0fc1 	cmp.w	r0, r1, lsl #3
87805924:	bf00      	nop
87805926:	eb42 0202 	adc.w	r2, r2, r2
8780592a:	bf28      	it	cs
8780592c:	eba0 00c1 	subcs.w	r0, r0, r1, lsl #3
87805930:	ebb0 0f81 	cmp.w	r0, r1, lsl #2
87805934:	bf00      	nop
87805936:	eb42 0202 	adc.w	r2, r2, r2
8780593a:	bf28      	it	cs
8780593c:	eba0 0081 	subcs.w	r0, r0, r1, lsl #2
87805940:	ebb0 0f41 	cmp.w	r0, r1, lsl #1
87805944:	bf00      	nop
87805946:	eb42 0202 	adc.w	r2, r2, r2
8780594a:	bf28      	it	cs
8780594c:	eba0 0041 	subcs.w	r0, r0, r1, lsl #1
87805950:	ebb0 0f01 	cmp.w	r0, r1
87805954:	bf00      	nop
87805956:	eb42 0202 	adc.w	r2, r2, r2
8780595a:	bf28      	it	cs
8780595c:	eba0 0001 	subcs.w	r0, r0, r1
87805960:	4610      	mov	r0, r2
87805962:	4770      	bx	lr
87805964:	bf0c      	ite	eq
87805966:	2001      	moveq	r0, #1
87805968:	2000      	movne	r0, #0
8780596a:	4770      	bx	lr
8780596c:	fab1 f281 	clz	r2, r1
87805970:	f1c2 021f 	rsb	r2, r2, #31
87805974:	fa20 f002 	lsr.w	r0, r0, r2
87805978:	4770      	bx	lr
8780597a:	b108      	cbz	r0, 87805980 <__udivsi3+0x258>
8780597c:	f04f 30ff 	mov.w	r0, #4294967295	; 0xffffffff
87805980:	f000 b826 	b.w	878059d0 <__aeabi_idiv0>

87805984 <__aeabi_uidivmod>:
87805984:	2900      	cmp	r1, #0
87805986:	d0f8      	beq.n	8780597a <__udivsi3+0x252>
87805988:	e92d 4003 	stmdb	sp!, {r0, r1, lr}
8780598c:	f7ff fecc 	bl	87805728 <__udivsi3>
87805990:	e8bd 4006 	ldmia.w	sp!, {r1, r2, lr}
87805994:	fb02 f300 	mul.w	r3, r2, r0
87805998:	eba1 0103 	sub.w	r1, r1, r3
8780599c:	4770      	bx	lr
8780599e:	bf00      	nop

878059a0 <__aeabi_uldivmod>:
878059a0:	b953      	cbnz	r3, 878059b8 <__aeabi_uldivmod+0x18>
878059a2:	b94a      	cbnz	r2, 878059b8 <__aeabi_uldivmod+0x18>
878059a4:	2900      	cmp	r1, #0
878059a6:	bf08      	it	eq
878059a8:	2800      	cmpeq	r0, #0
878059aa:	bf1c      	itt	ne
878059ac:	f04f 31ff 	movne.w	r1, #4294967295	; 0xffffffff
878059b0:	f04f 30ff 	movne.w	r0, #4294967295	; 0xffffffff
878059b4:	f000 b80c 	b.w	878059d0 <__aeabi_idiv0>
878059b8:	f1ad 0c08 	sub.w	ip, sp, #8
878059bc:	e96d ce04 	strd	ip, lr, [sp, #-16]!
878059c0:	f000 f80c 	bl	878059dc <__udivmoddi4>
878059c4:	f8dd e004 	ldr.w	lr, [sp, #4]
878059c8:	e9dd 2302 	ldrd	r2, r3, [sp, #8]
878059cc:	b004      	add	sp, #16
878059ce:	4770      	bx	lr

878059d0 <__aeabi_idiv0>:
878059d0:	b502      	push	{r1, lr}
878059d2:	f04f 0008 	mov.w	r0, #8
878059d6:	f7fb fd0b 	bl	878013f0 <raise>
878059da:	bd02      	pop	{r1, pc}

878059dc <__udivmoddi4>:
878059dc:	e92d 43f0 	stmdb	sp!, {r4, r5, r6, r7, r8, r9, lr}
878059e0:	4290      	cmp	r0, r2
878059e2:	460d      	mov	r5, r1
878059e4:	eb75 0103 	sbcs.w	r1, r5, r3
878059e8:	4604      	mov	r4, r0
878059ea:	bf38      	it	cc
878059ec:	2000      	movcc	r0, #0
878059ee:	9f07      	ldr	r7, [sp, #28]
878059f0:	bf38      	it	cc
878059f2:	4601      	movcc	r1, r0
878059f4:	d364      	bcc.n	87805ac0 <__udivmoddi4+0xe4>
878059f6:	fab3 f683 	clz	r6, r3
878059fa:	2b00      	cmp	r3, #0
878059fc:	d069      	beq.n	87805ad2 <__udivmoddi4+0xf6>
878059fe:	fab5 f185 	clz	r1, r5
87805a02:	2d00      	cmp	r5, #0
87805a04:	d061      	beq.n	87805aca <__udivmoddi4+0xee>
87805a06:	1a76      	subs	r6, r6, r1
87805a08:	f1a6 0c20 	sub.w	ip, r6, #32
87805a0c:	f1c6 0e20 	rsb	lr, r6, #32
87805a10:	40b3      	lsls	r3, r6
87805a12:	fa02 f10c 	lsl.w	r1, r2, ip
87805a16:	fa02 f806 	lsl.w	r8, r2, r6
87805a1a:	430b      	orrs	r3, r1
87805a1c:	fa22 f20e 	lsr.w	r2, r2, lr
87805a20:	4544      	cmp	r4, r8
87805a22:	ea43 0302 	orr.w	r3, r3, r2
87805a26:	eb75 0203 	sbcs.w	r2, r5, r3
87805a2a:	bf3c      	itt	cc
87805a2c:	2000      	movcc	r0, #0
87805a2e:	4601      	movcc	r1, r0
87805a30:	d30a      	bcc.n	87805a48 <__udivmoddi4+0x6c>
87805a32:	2001      	movs	r0, #1
87805a34:	ebb4 0408 	subs.w	r4, r4, r8
87805a38:	eb65 0503 	sbc.w	r5, r5, r3
87805a3c:	fa00 f10c 	lsl.w	r1, r0, ip
87805a40:	fa20 f20e 	lsr.w	r2, r0, lr
87805a44:	4311      	orrs	r1, r2
87805a46:	40b0      	lsls	r0, r6
87805a48:	b3d6      	cbz	r6, 87805ac0 <__udivmoddi4+0xe4>
87805a4a:	ea4f 0258 	mov.w	r2, r8, lsr #1
87805a4e:	46b0      	mov	r8, r6
87805a50:	ea42 72c3 	orr.w	r2, r2, r3, lsl #31
87805a54:	085b      	lsrs	r3, r3, #1
87805a56:	e00a      	b.n	87805a6e <__udivmoddi4+0x92>
87805a58:	1aa4      	subs	r4, r4, r2
87805a5a:	eb65 0503 	sbc.w	r5, r5, r3
87805a5e:	1924      	adds	r4, r4, r4
87805a60:	416d      	adcs	r5, r5
87805a62:	3401      	adds	r4, #1
87805a64:	f145 0500 	adc.w	r5, r5, #0
87805a68:	f1b8 0801 	subs.w	r8, r8, #1
87805a6c:	d008      	beq.n	87805a80 <__udivmoddi4+0xa4>
87805a6e:	4294      	cmp	r4, r2
87805a70:	eb75 0903 	sbcs.w	r9, r5, r3
87805a74:	d2f0      	bcs.n	87805a58 <__udivmoddi4+0x7c>
87805a76:	1924      	adds	r4, r4, r4
87805a78:	416d      	adcs	r5, r5
87805a7a:	f1b8 0801 	subs.w	r8, r8, #1
87805a7e:	d1f6      	bne.n	87805a6e <__udivmoddi4+0x92>
87805a80:	1900      	adds	r0, r0, r4
87805a82:	fa05 fe0e 	lsl.w	lr, r5, lr
87805a86:	fa24 f406 	lsr.w	r4, r4, r6
87805a8a:	eb41 0105 	adc.w	r1, r1, r5
87805a8e:	fa25 fc0c 	lsr.w	ip, r5, ip
87805a92:	ea44 040e 	orr.w	r4, r4, lr
87805a96:	ea44 040c 	orr.w	r4, r4, ip
87805a9a:	40f5      	lsrs	r5, r6
87805a9c:	f1a6 0c20 	sub.w	ip, r6, #32
87805aa0:	f1c6 0320 	rsb	r3, r6, #32
87805aa4:	fa05 f206 	lsl.w	r2, r5, r6
87805aa8:	fa04 fc0c 	lsl.w	ip, r4, ip
87805aac:	fa24 f303 	lsr.w	r3, r4, r3
87805ab0:	ea42 020c 	orr.w	r2, r2, ip
87805ab4:	431a      	orrs	r2, r3
87805ab6:	fa04 f306 	lsl.w	r3, r4, r6
87805aba:	1ac0      	subs	r0, r0, r3
87805abc:	eb61 0102 	sbc.w	r1, r1, r2
87805ac0:	b10f      	cbz	r7, 87805ac6 <__udivmoddi4+0xea>
87805ac2:	e9c7 4500 	strd	r4, r5, [r7]
87805ac6:	e8bd 83f0 	ldmia.w	sp!, {r4, r5, r6, r7, r8, r9, pc}
87805aca:	fab4 f184 	clz	r1, r4
87805ace:	3120      	adds	r1, #32
87805ad0:	e799      	b.n	87805a06 <__udivmoddi4+0x2a>
87805ad2:	fab2 f682 	clz	r6, r2
87805ad6:	fab5 f185 	clz	r1, r5
87805ada:	3620      	adds	r6, #32
87805adc:	2d00      	cmp	r5, #0
87805ade:	d192      	bne.n	87805a06 <__udivmoddi4+0x2a>
87805ae0:	e7f3      	b.n	87805aca <__udivmoddi4+0xee>
87805ae2:	bf00      	nop
87805ae4:	0000      	movs	r0, r0
	...

87805ae8 <__main_from_arm>:
87805ae8:	e51ff004 	ldr	pc, [pc, #-4]	; 87805aec <__main_from_arm+0x4>
87805aec:	878002e1 	strhi	r0, [r0, r1, ror #5]

Disassembly of section .rodata:

87805af0 <asc2_1206-0x6c>:
87805af0:	746f6f62 	strbtvc	r6, [pc], #-3938	; 87805af8 <__text_end+0x8>
87805af4:	2e676e69 	cdpcs	14, 6, cr6, cr7, cr9, {3}
87805af8:	00002e2e 	andeq	r2, r0, lr, lsr #28
87805afc:	0a0d7325 	beq	87b62798 <irqTable+0x357b58>
87805b00:	00000000 	andeq	r0, r0, r0
87805b04:	6f636573 	svcvs	0x00636573
87805b08:	2073646e 	rsbscs	r6, r3, lr, ror #8
87805b0c:	6e206f74 	mcrvs	15, 1, r6, cr0, cr4, {3}
87805b10:	203a776f 	eorscs	r7, sl, pc, ror #14
87805b14:	000a6425 	andeq	r6, sl, r5, lsr #8
87805b18:	48504c41 	ldmdami	r0, {r0, r6, sl, fp, lr}^
87805b1c:	4d492041 	stclmi	0, cr2, [r9, #-260]	; 0xfffffefc
87805b20:	00553658 	subseq	r3, r5, r8, asr r6
87805b24:	4c424752 	mcrrmi	7, 5, r4, r2, cr2
87805b28:	253a4443 	ldrcs	r4, [sl, #-1091]!	; 0xfffffbbd
87805b2c:	21212164 			; <UNDEFINED> instruction: 0x21212164
87805b30:	00000000 	andeq	r0, r0, r0
87805b34:	75747561 	ldrbvc	r7, [r4, #-1377]!	; 0xfffffa9f
87805b38:	00006e6d 	andeq	r6, r0, sp, ror #28
87805b3c:	656d6954 	strbvs	r6, [sp, #-2388]!	; 0xfffff6ac
87805b40:	2f64253a 	svccs	0x0064253a
87805b44:	252f6425 	strcs	r6, [pc, #-1061]!	; 87805727 <default_irqhandler+0xb>
87805b48:	64252064 	strtvs	r2, [r5], #-100	; 0xffffff9c
87805b4c:	2d64252d 	cfstr64cs	mvdx2, [r4, #-180]!	; 0xffffff4c
87805b50:	00006425 	andeq	r6, r0, r5, lsr #8
87805b54:	1e0107ea 	cdpne	7, 0, cr0, cr1, cr10, {7}
87805b58:	000a350f 	andeq	r3, sl, pc, lsl #10

87805b5c <asc2_1206>:
	...
87805b6c:	0000403f 	andeq	r4, r0, pc, lsr r0
87805b70:	00000000 	andeq	r0, r0, r0
87805b74:	00300000 	eorseq	r0, r0, r0
87805b78:	00300040 	eorseq	r0, r0, r0, asr #32
87805b7c:	00000040 	andeq	r0, r0, r0, asr #32
87805b80:	c00b0009 	andgt	r0, fp, r9
87805b84:	c00b003d 	andgt	r0, fp, sp, lsr r0
87805b88:	0009003d 	andeq	r0, r9, sp, lsr r0
87805b8c:	4024c018 	eormi	ip, r4, r8, lsl r0
87805b90:	4022e07f 	eormi	lr, r2, pc, ror r0
87805b94:	00008031 	andeq	r8, r0, r1, lsr r0
87805b98:	c0240018 	eorgt	r0, r4, r8, lsl r0
87805b9c:	800d001b 	andhi	r0, sp, fp, lsl r0
87805ba0:	80014032 	andhi	r4, r1, r2, lsr r0
87805ba4:	401c8003 	andsmi	r8, ip, r3
87805ba8:	801c4027 	andshi	r4, ip, r7, lsr #32
87805bac:	40004007 	andmi	r4, r0, r7
87805bb0:	00600010 	rsbeq	r0, r0, r0, lsl r0
	...
87805bc0:	801f0000 	andshi	r0, pc, r0
87805bc4:	20404020 	subcs	r4, r0, r0, lsr #32
87805bc8:	20400000 	subcs	r0, r0, r0
87805bcc:	801f4020 	andshi	r4, pc, r0, lsr #32
87805bd0:	00000000 	andeq	r0, r0, r0
87805bd4:	00060009 	andeq	r0, r6, r9
87805bd8:	0006801f 	andeq	r8, r6, pc, lsl r0
87805bdc:	00000009 	andeq	r0, r0, r9
87805be0:	00040004 	andeq	r0, r4, r4
87805be4:	0004803f 	andeq	r8, r4, pc, lsr r0
87805be8:	00000004 	andeq	r0, r0, r4
87805bec:	60001000 	andvs	r1, r0, r0
	...
87805bf8:	00040004 	andeq	r0, r4, r4
87805bfc:	00040004 	andeq	r0, r4, r4
87805c00:	00000004 	andeq	r0, r0, r4
87805c04:	40000000 	andmi	r0, r0, r0
	...
87805c10:	c0012000 	andgt	r2, r1, r0
87805c14:	00380006 	eorseq	r0, r8, r6
87805c18:	00000040 	andeq	r0, r0, r0, asr #32
87805c1c:	4020801f 	eormi	r8, r0, pc, lsl r0
87805c20:	40204020 	eormi	r4, r0, r0, lsr #32
87805c24:	0000801f 	andeq	r8, r0, pc, lsl r0
87805c28:	40100000 	andsmi	r0, r0, r0
87805c2c:	4000c03f 	andmi	ip, r0, pc, lsr r0
87805c30:	00000000 	andeq	r0, r0, r0
87805c34:	4021c018 	eormi	ip, r1, r8, lsl r0
87805c38:	40244022 	eormi	r4, r4, r2, lsr #32
87805c3c:	00004018 	andeq	r4, r0, r8, lsl r0
87805c40:	40208010 	eormi	r8, r0, r0, lsl r0
87805c44:	40244024 	eormi	r4, r4, r4, lsr #32
87805c48:	0000801b 	andeq	r8, r0, fp, lsl r0
87805c4c:	000d0002 	andeq	r0, sp, r2
87805c50:	c03f0011 	eorsgt	r0, pc, r1, lsl r0	; <UNPREDICTABLE>
87805c54:	00004001 	andeq	r4, r0, r1
87805c58:	4024803c 	eormi	r8, r4, ip, lsr r0
87805c5c:	40244024 	eormi	r4, r4, r4, lsr #32
87805c60:	00008023 	andeq	r8, r0, r3, lsr #32
87805c64:	4024801f 	eormi	r8, r4, pc, lsl r0
87805c68:	40344024 	eorsmi	r4, r4, r4, lsr #32
87805c6c:	00008003 	andeq	r8, r0, r3
87805c70:	00200030 	eoreq	r0, r0, r0, lsr r0
87805c74:	0038c027 	eorseq	ip, r8, r7, lsr #32
87805c78:	00000020 	andeq	r0, r0, r0, lsr #32
87805c7c:	4024801b 	eormi	r8, r4, fp, lsl r0
87805c80:	40244024 	eormi	r4, r4, r4, lsr #32
87805c84:	0000801b 	andeq	r8, r0, fp, lsl r0
87805c88:	c022001c 	eorgt	r0, r2, ip, lsl r0
87805c8c:	40224022 	eormi	r4, r2, r2, lsr #32
87805c90:	0000801f 	andeq	r8, r0, pc, lsl r0
87805c94:	00000000 	andeq	r0, r0, r0
87805c98:	00004008 	andeq	r4, r0, r8
	...
87805ca4:	00006004 	andeq	r6, r0, r4
87805ca8:	00000000 	andeq	r0, r0, r0
87805cac:	00040000 	andeq	r0, r4, r0
87805cb0:	0011000a 	andseq	r0, r1, sl
87805cb4:	40408020 	submi	r8, r0, r0, lsr #32
87805cb8:	00090009 	andeq	r0, r9, r9
87805cbc:	00090009 	andeq	r0, r9, r9
87805cc0:	00000009 	andeq	r0, r0, r9
87805cc4:	40400000 	submi	r0, r0, r0
87805cc8:	00118020 	andseq	r8, r1, r0, lsr #32
87805ccc:	0004000a 	andeq	r0, r4, sl
87805cd0:	00200018 	eoreq	r0, r0, r8, lsl r0
87805cd4:	00244023 	eoreq	r4, r4, r3, lsr #32
87805cd8:	00000018 	andeq	r0, r0, r8, lsl r0
87805cdc:	4020801f 	eormi	r8, r0, pc, lsl r0
87805ce0:	40294027 	eormi	r4, r9, r7, lsr #32
87805ce4:	0000401f 	andeq	r4, r0, pc, lsl r0
87805ce8:	c0074000 	andgt	r4, r7, r0
87805cec:	000f0039 	andeq	r0, pc, r9, lsr r0	; <UNPREDICTABLE>
87805cf0:	4000c001 	andmi	ip, r0, r1
87805cf4:	c03f4020 	eorsgt	r4, pc, r0, lsr #32
87805cf8:	40244024 	eormi	r4, r4, r4, lsr #32
87805cfc:	0000801b 	andeq	r8, r0, fp, lsl r0
87805d00:	4020801f 	eormi	r8, r0, pc, lsl r0
87805d04:	40204020 	eormi	r4, r0, r0, lsr #32
87805d08:	00008030 	andeq	r8, r0, r0, lsr r0
87805d0c:	c03f4020 	eorsgt	r4, pc, r0, lsr #32
87805d10:	40204020 	eormi	r4, r0, r0, lsr #32
87805d14:	0000801f 	andeq	r8, r0, pc, lsl r0
87805d18:	c03f4020 	eorsgt	r4, pc, r0, lsr #32
87805d1c:	402e4024 	eormi	r4, lr, r4, lsr #32
87805d20:	0000c030 	andeq	ip, r0, r0, lsr r0
87805d24:	c03f4020 	eorsgt	r4, pc, r0, lsr #32
87805d28:	002e4024 	eoreq	r4, lr, r4, lsr #32
87805d2c:	00000030 	andeq	r0, r0, r0, lsr r0
87805d30:	8010000f 	andshi	r0, r0, pc
87805d34:	40224020 	eormi	r4, r2, r0, lsr #32
87805d38:	00028033 	andeq	r8, r2, r3, lsr r0
87805d3c:	c03f4020 	eorsgt	r4, pc, r0, lsr #32
87805d40:	00040004 	andeq	r0, r4, r4
87805d44:	4020c03f 	eormi	ip, r0, pc, lsr r0
87805d48:	40204020 	eormi	r4, r0, r0, lsr #32
87805d4c:	4020c03f 	eormi	ip, r0, pc, lsr r0
87805d50:	00004020 	andeq	r4, r0, r0, lsr #32
87805d54:	20206000 	eorcs	r6, r0, r0
87805d58:	c03f2020 	eorsgt	r2, pc, r0, lsr #32
87805d5c:	00200020 	eoreq	r0, r0, r0, lsr #32
87805d60:	c03f4020 	eorsgt	r4, pc, r0, lsr #32
87805d64:	000b4024 	andeq	r4, fp, r4, lsr #32
87805d68:	4020c030 	eormi	ip, r0, r0, lsr r0
87805d6c:	c03f4020 	eorsgt	r4, pc, r0, lsr #32
87805d70:	40004020 	andmi	r4, r0, r0, lsr #32
87805d74:	c0004000 	andgt	r4, r0, r0
87805d78:	003cc03f 	eorseq	ip, ip, pc, lsr r0
87805d7c:	003cc003 	eorseq	ip, ip, r3
87805d80:	0000c03f 	andeq	ip, r0, pc, lsr r0
87805d84:	c03f4020 	eorsgt	r4, pc, r0, lsr #32
87805d88:	0023400c 	eoreq	r4, r3, ip
87805d8c:	0020c03f 	eoreq	ip, r0, pc, lsr r0
87805d90:	4020801f 	eormi	r8, r0, pc, lsl r0
87805d94:	40204020 	eormi	r4, r0, r0, lsr #32
87805d98:	0000801f 	andeq	r8, r0, pc, lsl r0
87805d9c:	c03f4020 	eorsgt	r4, pc, r0, lsr #32
87805da0:	00244024 	eoreq	r4, r4, r4, lsr #32
87805da4:	00000018 	andeq	r0, r0, r8, lsl r0
87805da8:	4021801f 	eormi	r8, r1, pc, lsl r0
87805dac:	e0204021 	eor	r4, r0, r1, lsr #32
87805db0:	0000a01f 	andeq	sl, r0, pc, lsl r0
87805db4:	c03f4020 	eorsgt	r4, pc, r0, lsr #32
87805db8:	00264024 	eoreq	r4, r6, r4, lsr #32
87805dbc:	4000c019 	andmi	ip, r0, r9, lsl r0
87805dc0:	4024c018 	eormi	ip, r4, r8, lsl r0
87805dc4:	40224024 	eormi	r4, r2, r4, lsr #32
87805dc8:	00008031 	andeq	r8, r0, r1, lsr r0
87805dcc:	40200030 	eormi	r0, r0, r0, lsr r0
87805dd0:	4020c03f 	eormi	ip, r0, pc, lsr r0
87805dd4:	00000030 	andeq	r0, r0, r0, lsr r0
87805dd8:	803f0020 	eorshi	r0, pc, r0, lsr #32
87805ddc:	40004000 	andmi	r4, r0, r0
87805de0:	0020803f 	eoreq	r8, r0, pc, lsr r0
87805de4:	003e0020 	eorseq	r0, lr, r0, lsr #32
87805de8:	0007c001 	andeq	ip, r7, r1
87805dec:	00200038 	eoreq	r0, r0, r8, lsr r0
87805df0:	c0070038 	andgt	r0, r7, r8, lsr r0
87805df4:	c007003c 	andgt	r0, r7, ip, lsr r0
87805df8:	00000038 	andeq	r0, r0, r8, lsr r0
87805dfc:	c0394020 	eorsgt	r4, r9, r0, lsr #32
87805e00:	c0390006 	eorsgt	r0, r9, r6
87805e04:	00004020 	andeq	r4, r0, r0, lsr #32
87805e08:	40380020 	eorsmi	r0, r8, r0, lsr #32
87805e0c:	4038c007 	eorsmi	ip, r8, r7
87805e10:	00000020 	andeq	r0, r0, r0, lsr #32
87805e14:	c0214030 	eorgt	r4, r1, r0, lsr r0
87805e18:	40384026 	eorsmi	r4, r8, r6, lsr #32
87805e1c:	0000c020 	andeq	ip, r0, r0, lsr #32
87805e20:	00000000 	andeq	r0, r0, r0
87805e24:	2040e07f 	subcs	lr, r0, pc, ror r0
87805e28:	00002040 	andeq	r2, r0, r0, asr #32
87805e2c:	00700000 	rsbseq	r0, r0, r0
87805e30:	8003000c 	andhi	r0, r3, ip
87805e34:	00004000 	andeq	r4, r0, r0
87805e38:	20400000 	subcs	r0, r0, r0
87805e3c:	e07f2040 	rsbs	r2, pc, r0, asr #32
87805e40:	00000000 	andeq	r0, r0, r0
87805e44:	00200000 	eoreq	r0, r0, r0
87805e48:	00200040 	eoreq	r0, r0, r0, asr #32
87805e4c:	00000000 	andeq	r0, r0, r0
87805e50:	10001000 	andne	r1, r0, r0
87805e54:	10001000 	andne	r1, r0, r0
87805e58:	10001000 	andne	r1, r0, r0
87805e5c:	00000000 	andeq	r0, r0, r0
87805e60:	00000040 	andeq	r0, r0, r0, asr #32
87805e64:	00000000 	andeq	r0, r0, r0
87805e68:	80020000 	andhi	r0, r2, r0
87805e6c:	40054005 	andmi	r4, r5, r5
87805e70:	4000c003 	andmi	ip, r0, r3
87805e74:	c03f0020 	eorsgt	r0, pc, r0, lsr #32
87805e78:	40044004 	andmi	r4, r4, r4
87805e7c:	00008003 	andeq	r8, r0, r3
87805e80:	80030000 	andhi	r0, r3, r0
87805e84:	40044004 	andmi	r4, r4, r4
87805e88:	00004006 	andeq	r4, r0, r6
87805e8c:	80030000 	andhi	r0, r3, r0
87805e90:	40244004 	eormi	r4, r4, r4
87805e94:	4000c03f 	andmi	ip, r0, pc, lsr r0
87805e98:	80030000 	andhi	r0, r3, r0
87805e9c:	40054005 	andmi	r4, r5, r5
87805ea0:	00004003 	andeq	r4, r0, r3
87805ea4:	40040000 	andmi	r0, r4, r0
87805ea8:	4024c01f 	eormi	ip, r4, pc, lsl r0
87805eac:	00204024 	eoreq	r4, r0, r4, lsr #32
87805eb0:	e0020000 	and	r0, r2, r0
87805eb4:	50055005 	andpl	r5, r5, r5
87805eb8:	20045006 	andcs	r5, r4, r6
87805ebc:	c03f4020 	eorsgt	r4, pc, r0, lsr #32
87805ec0:	00044004 	andeq	r4, r4, r4
87805ec4:	4000c003 	andmi	ip, r0, r3
87805ec8:	40040000 	andmi	r0, r4, r0
87805ecc:	4000c027 	andmi	ip, r0, r7, lsr #32
87805ed0:	00000000 	andeq	r0, r0, r0
87805ed4:	10001000 	andne	r1, r0, r0
87805ed8:	e0271004 	eor	r1, r7, r4
87805edc:	00000000 	andeq	r0, r0, r0
87805ee0:	c03f4020 	eorsgt	r4, pc, r0, lsr #32
87805ee4:	00074001 	andeq	r4, r7, r1
87805ee8:	4004c004 	andmi	ip, r4, r4
87805eec:	40204020 	eormi	r4, r0, r0, lsr #32
87805ef0:	4000c03f 	andmi	ip, r0, pc, lsr r0
87805ef4:	00004000 	andeq	r4, r0, r0
87805ef8:	0004c007 	andeq	ip, r4, r7
87805efc:	0004c007 	andeq	ip, r4, r7
87805f00:	0000c003 	andeq	ip, r0, r3
87805f04:	c0074004 	andgt	r4, r7, r4
87805f08:	00044004 	andeq	r4, r4, r4
87805f0c:	4000c003 	andmi	ip, r0, r3
87805f10:	80030000 	andhi	r0, r3, r0
87805f14:	40044004 	andmi	r4, r4, r4
87805f18:	00008003 	andeq	r8, r0, r3
87805f1c:	f0071004 			; <UNDEFINED> instruction: 0xf0071004
87805f20:	40045004 	andmi	r5, r4, r4
87805f24:	00008003 	andeq	r8, r0, r3
87805f28:	80030000 	andhi	r0, r3, r0
87805f2c:	50044004 	andpl	r4, r4, r4
87805f30:	1000f007 	andne	pc, r0, r7
87805f34:	c0074004 	andgt	r4, r7, r4
87805f38:	00044002 	andeq	r4, r4, r2
87805f3c:	00000004 	andeq	r0, r0, r4
87805f40:	40060000 	andmi	r0, r6, r0
87805f44:	40054005 	andmi	r4, r5, r5
87805f48:	0000c004 	andeq	ip, r0, r4
87805f4c:	00040000 	andeq	r0, r4, r0
87805f50:	4004801f 	andmi	r8, r4, pc, lsl r0
87805f54:	00004000 	andeq	r4, r0, r0
87805f58:	80070004 	andhi	r0, r7, r4
87805f5c:	40044000 	andmi	r4, r4, r0
87805f60:	4000c007 	andmi	ip, r0, r7
87805f64:	00070004 	andeq	r0, r7, r4
87805f68:	8001c004 	andhi	ip, r1, r4
87805f6c:	00040006 	andeq	r0, r4, r6
87805f70:	c0010006 	andgt	r0, r1, r6
87805f74:	c0010007 	andgt	r0, r1, r7
87805f78:	00000006 	andeq	r0, r0, r6
87805f7c:	c0064004 	andgt	r4, r6, r4
87805f80:	c0060001 	andgt	r0, r6, r1
87805f84:	00004004 	andeq	r4, r0, r4
87805f88:	10071004 	andne	r1, r7, r4
87805f8c:	8001e004 	andhi	lr, r1, r4
87805f90:	00040006 	andeq	r0, r4, r6
87805f94:	40040000 	andmi	r0, r4, r0
87805f98:	4006c005 	andmi	ip, r6, r5
87805f9c:	00004004 	andeq	r4, r0, r4
87805fa0:	00000000 	andeq	r0, r0, r0
87805fa4:	e07b0004 	rsbs	r0, fp, r4
87805fa8:	00002040 	andeq	r2, r0, r0, asr #32
87805fac:	00000000 	andeq	r0, r0, r0
87805fb0:	f0ff0000 			; <UNDEFINED> instruction: 0xf0ff0000
87805fb4:	00000000 	andeq	r0, r0, r0
87805fb8:	20400000 	subcs	r0, r0, r0
87805fbc:	0004e07b 	andeq	lr, r4, fp, ror r0
87805fc0:	00000000 	andeq	r0, r0, r0
87805fc4:	00800040 	addeq	r0, r0, r0, asr #32
87805fc8:	00200040 	eoreq	r0, r0, r0, asr #32
87805fcc:	00400020 	subeq	r0, r0, r0, lsr #32

87805fd0 <asc2_1608>:
	...
87805fe4:	cc1f0000 	ldcgt	0, cr0, [pc], {-0}
87805fe8:	00000c00 	andeq	r0, r0, r0, lsl #24
87805fec:	00000000 	andeq	r0, r0, r0
87805ff0:	00080000 	andeq	r0, r8, r0
87805ff4:	00600030 	rsbeq	r0, r0, r0, lsr r0
87805ff8:	00300008 	eorseq	r0, r0, r8
87805ffc:	00000060 	andeq	r0, r0, r0, rrx
87806000:	fc032002 	stc2	0, cr2, [r3], {2}
87806004:	2002201e 	andcs	r2, r2, lr, lsl r0
87806008:	201efc03 	andscs	pc, lr, r3, lsl #24
8780600c:	00002002 	andeq	r2, r0, r2
87806010:	180e0000 	stmdane	lr, {}	; <UNPREDICTABLE>
87806014:	ff3f0411 			; <UNDEFINED> instruction: 0xff3f0411
87806018:	780c8410 	stmdavc	ip, {r4, sl, pc}
8780601c:	00000000 	andeq	r0, r0, r0
87806020:	8410000f 	ldrhi	r0, [r0], #-15
87806024:	c000380f 	andgt	r3, r0, pc, lsl #16
87806028:	84187807 	ldrhi	r7, [r8], #-2055	; 0xfffff7f9
8780602c:	00007800 	andeq	r7, r0, r0, lsl #16
87806030:	840f7800 	strhi	r7, [pc], #-2048	; 87806038 <asc2_1608+0x68>
87806034:	2411c410 	ldrcs	ip, [r1], #-1040	; 0xfffffbf0
87806038:	e400980e 	str	r9, [r0], #-2062	; 0xfffff7f2
8780603c:	08008400 	stmdaeq	r0, {sl, pc}
87806040:	00680008 	rsbeq	r0, r8, r8
87806044:	00000070 	andeq	r0, r0, r0, ror r0
	...
87806054:	e0070000 	and	r0, r7, r0
87806058:	04201818 	strteq	r1, [r0], #-2072	; 0xfffff7e8
8780605c:	00000240 	andeq	r0, r0, r0, asr #4
87806060:	02400000 	subeq	r0, r0, #0
87806064:	18180420 	ldmdane	r8, {r5, sl}
87806068:	0000e007 	andeq	lr, r0, r7
8780606c:	00000000 	andeq	r0, r0, r0
87806070:	40024002 	andmi	r4, r2, r2
87806074:	f00f8001 			; <UNDEFINED> instruction: 0xf00f8001
87806078:	40028001 	andmi	r8, r2, r1
8780607c:	00004002 	andeq	r4, r0, r2
87806080:	80008000 	andhi	r8, r0, r0
87806084:	f80f8000 			; <UNDEFINED> instruction: 0xf80f8000
87806088:	80008000 	andhi	r8, r0, r0
8780608c:	00008000 	andeq	r8, r0, r0
87806090:	0d000100 	stfeqs	f0, [r0, #-0]
87806094:	00000e00 	andeq	r0, r0, r0, lsl #28
	...
878060a0:	80000000 	andhi	r0, r0, r0
878060a4:	80008000 	andhi	r8, r0, r0
878060a8:	80008000 	andhi	r8, r0, r0
878060ac:	80008000 	andhi	r8, r0, r0
878060b0:	0c000000 	stceq	0, cr0, [r0], {-0}
878060b4:	00000c00 	andeq	r0, r0, r0, lsl #24
	...
878060c0:	06000000 	streq	r0, [r0], -r0
878060c4:	60001800 	andvs	r1, r0, r0, lsl #16
878060c8:	00068001 	andeq	r8, r6, r1
878060cc:	00200018 	eoreq	r0, r0, r8, lsl r0
878060d0:	f0070000 			; <UNDEFINED> instruction: 0xf0070000
878060d4:	04100808 	ldreq	r0, [r0], #-2056	; 0xfffff7f8
878060d8:	08080410 	stmdaeq	r8, {r4, sl}
878060dc:	0000f007 	andeq	pc, r0, r7
878060e0:	04080000 	streq	r0, [r8], #-0
878060e4:	fc1f0408 	ldc2	4, cr0, [pc], {8}
878060e8:	04000400 	streq	r0, [r0], #-1024	; 0xfffffc00
878060ec:	00000000 	andeq	r0, r0, r0
878060f0:	0c0e0000 	stceq	0, cr0, [lr], {-0}
878060f4:	24101410 	ldrcs	r1, [r0], #-1040	; 0xfffffbf0
878060f8:	84114410 	ldrhi	r4, [r1], #-1040	; 0xfffffbf0
878060fc:	00000c0e 	andeq	r0, r0, lr, lsl #24
87806100:	180c0000 	stmdane	ip, {}	; <UNPREDICTABLE>
87806104:	04110410 	ldreq	r0, [r1], #-1040	; 0xfffffbf0
87806108:	88120411 	ldmdahi	r2, {r0, r4, sl}
8780610c:	0000700c 	andeq	r7, r0, ip
87806110:	e0000000 	and	r0, r0, r0
87806114:	24042003 	strcs	r2, [r4], #-3
87806118:	fc1f2408 	ldc2	4, cr2, [pc], {8}
8780611c:	00002400 	andeq	r2, r0, r0, lsl #8
87806120:	981f0000 	ldmdals	pc, {}	; <UNPREDICTABLE>
87806124:	04118410 	ldreq	r8, [r1], #-1040	; 0xfffffbf0
87806128:	88100411 	ldmdahi	r0, {r0, r4, sl}
8780612c:	00007010 	andeq	r7, r0, r0, lsl r0
87806130:	f0070000 			; <UNDEFINED> instruction: 0xf0070000
87806134:	04118808 	ldreq	r8, [r1], #-2056	; 0xfffff7f8
87806138:	88180411 	ldmdahi	r8, {r0, r4, sl}
8780613c:	00007000 	andeq	r7, r0, r0
87806140:	001c0000 	andseq	r0, ip, r0
87806144:	fc100010 	ldc2	0, cr0, [r0], {16}
87806148:	001c0013 	andseq	r0, ip, r3, lsl r0
8780614c:	00000010 	andeq	r0, r0, r0, lsl r0
87806150:	380e0000 	stmdacc	lr, {}	; <UNPREDICTABLE>
87806154:	84104411 	ldrhi	r4, [r0], #-1041	; 0xfffffbef
87806158:	44118410 	ldrmi	r8, [r1], #-1040	; 0xfffffbf0
8780615c:	0000380e 	andeq	r3, r0, lr, lsl #16
87806160:	00070000 	andeq	r0, r7, r0
87806164:	44108c08 	ldrmi	r8, [r0], #-3080	; 0xfffff3f8
87806168:	88084410 	stmdahi	r8, {r4, sl, lr}
8780616c:	0000f007 	andeq	pc, r0, r7
87806170:	00000000 	andeq	r0, r0, r0
87806174:	0c030000 	stceq	0, cr0, [r3], {-0}
87806178:	00000c03 	andeq	r0, r0, r3, lsl #24
	...
87806184:	06010100 	streq	r0, [r1], -r0, lsl #2
	...
87806190:	80000000 	andhi	r0, r0, r0
87806194:	20024001 	andcs	r4, r2, r1
87806198:	08081004 	stmdaeq	r8, {r2, ip}
8780619c:	00000410 	andeq	r0, r0, r0, lsl r4
878061a0:	20022002 	andcs	r2, r2, r2
878061a4:	20022002 	andcs	r2, r2, r2
878061a8:	20022002 	andcs	r2, r2, r2
878061ac:	00002002 	andeq	r2, r0, r2
878061b0:	04100000 	ldreq	r0, [r0], #-0
878061b4:	10040808 	andne	r0, r4, r8, lsl #16
878061b8:	40012002 	andmi	r2, r1, r2
878061bc:	00008000 	andeq	r8, r0, r0
878061c0:	000e0000 	andeq	r0, lr, r0
878061c4:	0c100012 	ldceq	0, cr0, [r0], {18}
878061c8:	80106c10 	andshi	r6, r0, r0, lsl ip
878061cc:	0000000f 	andeq	r0, r0, pc
878061d0:	180ce003 	stmdane	ip, {r0, r1, sp, lr, pc}
878061d4:	2414e413 	ldrcs	lr, [r4], #-1043	; 0xfffffbed
878061d8:	2808c417 	stmdacs	r8, {r0, r1, r2, r4, sl, lr, pc}
878061dc:	0000d007 	andeq	sp, r0, r7
878061e0:	3c000400 	cfstrscc	mvf0, [r0], {-0}
878061e4:	401cc403 	andsmi	ip, ip, r3, lsl #8
878061e8:	e4004007 	str	r4, [r0], #-7
878061ec:	04001c00 	streq	r1, [r0], #-3072	; 0xfffff400
878061f0:	fc1f0410 	ldc2	4, cr0, [pc], {16}
878061f4:	04110411 	ldreq	r0, [r1], #-1041	; 0xfffffbef
878061f8:	880e0411 	stmdahi	lr, {r0, r4, sl}
878061fc:	00007000 	andeq	r7, r0, r0
87806200:	180ce003 	stmdane	ip, {r0, r1, sp, lr, pc}
87806204:	04100410 	ldreq	r0, [r0], #-1040	; 0xfffffbf0
87806208:	08100410 	ldmdaeq	r0, {r4, sl}
8780620c:	0000101c 	andeq	r1, r0, ip, lsl r0
87806210:	fc1f0410 	ldc2	4, cr0, [pc], {16}
87806214:	04100410 	ldreq	r0, [r0], #-1040	; 0xfffffbf0
87806218:	08080410 	stmdaeq	r8, {r4, sl}
8780621c:	0000f007 	andeq	pc, r0, r7
87806220:	fc1f0410 	ldc2	4, cr0, [pc], {16}
87806224:	04110411 	ldreq	r0, [r1], #-1041	; 0xfffffbef
87806228:	0410c417 	ldreq	ip, [r0], #-1047	; 0xfffffbe9
8780622c:	00001808 	andeq	r1, r0, r8, lsl #16
87806230:	fc1f0410 	ldc2	4, cr0, [pc], {16}
87806234:	00110411 	andseq	r0, r1, r1, lsl r4
87806238:	0010c017 	andseq	ip, r0, r7, lsl r0
8780623c:	00000008 	andeq	r0, r0, r8
87806240:	180ce003 	stmdane	ip, {r0, r1, sp, lr, pc}
87806244:	04100410 	ldreq	r0, [r0], #-1040	; 0xfffffbf0
87806248:	781c4410 	ldmdavc	ip, {r4, sl, lr}
8780624c:	00004000 	andeq	r4, r0, r0
87806250:	fc1f0410 	ldc2	4, cr0, [pc], {16}
87806254:	80008410 	andhi	r8, r0, r0, lsl r4
87806258:	84108000 	ldrhi	r8, [r0], #-0
8780625c:	0410fc1f 	ldreq	pc, [r0], #-3103	; 0xfffff3e1
87806260:	04100000 	ldreq	r0, [r0], #-0
87806264:	fc1f0410 	ldc2	4, cr0, [pc], {16}
87806268:	04100410 	ldreq	r0, [r0], #-1040	; 0xfffffbf0
8780626c:	00000000 	andeq	r0, r0, r0
87806270:	01000300 	mrseq	r0, LR_irq
87806274:	01100110 	tsteq	r0, r0, lsl r1
87806278:	0010fe1f 	andseq	pc, r0, pc, lsl lr	; <UNPREDICTABLE>
8780627c:	00000010 	andeq	r0, r0, r0, lsl r0
87806280:	fc1f0410 	ldc2	4, cr0, [pc], {16}
87806284:	80030411 	andhi	r0, r3, r1, lsl r4
87806288:	1c186414 	cfldrsne	mvf6, [r8], {20}
8780628c:	00000410 	andeq	r0, r0, r0, lsl r4
87806290:	fc1f0410 	ldc2	4, cr0, [pc], {16}
87806294:	04000410 	streq	r0, [r0], #-1040	; 0xfffffbf0
87806298:	04000400 	streq	r0, [r0], #-1024	; 0xfffffc00
8780629c:	00000c00 	andeq	r0, r0, r0, lsl #24
878062a0:	fc1f0410 	ldc2	4, cr0, [pc], {16}
878062a4:	fc00001f 	stc2	0, cr0, [r0], {31}
878062a8:	fc1f001f 	ldc2	0, cr0, [pc], {31}
878062ac:	00000410 	andeq	r0, r0, r0, lsl r4
878062b0:	fc1f0410 	ldc2	4, cr0, [pc], {16}
878062b4:	0003040c 	andeq	r0, r3, ip, lsl #8
878062b8:	1810e000 	ldmdane	r0, {sp, lr, pc}
878062bc:	0010fc1f 	andseq	pc, r0, pc, lsl ip	; <UNPREDICTABLE>
878062c0:	0808f007 	stmdaeq	r8, {r0, r1, r2, ip, sp, lr, pc}
878062c4:	04100410 	ldreq	r0, [r0], #-1040	; 0xfffffbf0
878062c8:	08080410 	stmdaeq	r8, {r4, sl}
878062cc:	0000f007 	andeq	pc, r0, r7
878062d0:	fc1f0410 	ldc2	4, cr0, [pc], {16}
878062d4:	80108410 	andshi	r8, r0, r0, lsl r4
878062d8:	80108010 	andshi	r8, r0, r0, lsl r0
878062dc:	0000000f 	andeq	r0, r0, pc
878062e0:	1808f007 	stmdane	r8, {r0, r1, r2, ip, sp, lr, pc}
878062e4:	24102410 	ldrcs	r2, [r0], #-1040	; 0xfffffbf0
878062e8:	0a081c10 	beq	87a0d330 <irqTable+0x2026f0>
878062ec:	0000f207 	andeq	pc, r0, r7, lsl #4
878062f0:	fc1f0410 	ldc2	4, cr0, [pc], {16}
878062f4:	00110411 	andseq	r0, r1, r1, lsl r4
878062f8:	3011c011 	andscc	ip, r1, r1, lsl r0
878062fc:	04000c0e 	streq	r0, [r0], #-3086	; 0xfffff3f2
87806300:	1c0e0000 	stcne	0, cr0, [lr], {-0}
87806304:	84100411 	ldrhi	r0, [r0], #-1041	; 0xfffffbef
87806308:	44108410 	ldrmi	r8, [r0], #-1040	; 0xfffffbf0
8780630c:	0000381c 	andeq	r3, r0, ip, lsl r8
87806310:	00100018 	andseq	r0, r0, r8, lsl r0
87806314:	fc1f0410 	ldc2	4, cr0, [pc], {16}
87806318:	00100410 	andseq	r0, r0, r0, lsl r4
8780631c:	00000018 	andeq	r0, r0, r8, lsl r0
87806320:	f81f0010 			; <UNDEFINED> instruction: 0xf81f0010
87806324:	04000410 	streq	r0, [r0], #-1040	; 0xfffffbf0
87806328:	04100400 	ldreq	r0, [r0], #-1024	; 0xfffffc00
8780632c:	0010f81f 	andseq	pc, r0, pc, lsl r8	; <UNPREDICTABLE>
87806330:	001e0010 	andseq	r0, lr, r0, lsl r0
87806334:	1c00e011 	stcne	0, cr14, [r0], {17}
87806338:	80137000 	andshi	r7, r3, r0
8780633c:	0010001c 	andseq	r0, r0, ip, lsl r0
87806340:	3c10c01f 	ldccc	0, cr12, [r0], {31}
87806344:	001fe000 	andseq	lr, pc, r0
87806348:	3c10e000 	ldccc	0, cr14, [r0], {-0}
8780634c:	0000c01f 	andeq	ip, r0, pc, lsl r0
87806350:	0c180410 	cfldrseq	mvf0, [r8], {16}
87806354:	c0013416 	andgt	r3, r1, r6, lsl r4
87806358:	3416c001 	ldrcc	ip, [r6], #-1
8780635c:	04100c18 	ldreq	r0, [r0], #-3096	; 0xfffff3e8
87806360:	001c0010 	andseq	r0, ip, r0, lsl r0
87806364:	fc000413 	stc2	4, cr0, [r0], {19}
87806368:	001c0413 	andseq	r0, ip, r3, lsl r4
8780636c:	00000010 	andeq	r0, r0, r0, lsl r0
87806370:	1c100408 	cfldrsne	mvf0, [r0], {8}
87806374:	84106410 	ldrhi	r6, [r0], #-1040	; 0xfffffbf0
87806378:	041c0413 	ldreq	r0, [ip], #-1043	; 0xfffffbed
8780637c:	00001810 	andeq	r1, r0, r0, lsl r8
87806380:	00000000 	andeq	r0, r0, r0
87806384:	fe7f0000 	cdp2	0, 7, cr0, cr15, cr0, {0}
87806388:	02400240 	subeq	r0, r0, #64, 4
8780638c:	00000240 	andeq	r0, r0, r0, asr #4
87806390:	00300000 	eorseq	r0, r0, r0
87806394:	8003000c 	andhi	r0, r3, ip
87806398:	1c006000 	stcne	0, cr6, [r0], {-0}
8780639c:	00000300 	andeq	r0, r0, r0, lsl #6
878063a0:	02400000 	subeq	r0, r0, #0
878063a4:	02400240 	subeq	r0, r0, #64, 4
878063a8:	0000fe7f 	andeq	pc, r0, pc, ror lr	; <UNPREDICTABLE>
	...
878063b4:	00400020 	subeq	r0, r0, r0, lsr #32
878063b8:	00400040 	subeq	r0, r0, r0, asr #32
878063bc:	00000020 	andeq	r0, r0, r0, lsr #32
878063c0:	01000100 	mrseq	r0, (UNDEF: 16)
878063c4:	01000100 	mrseq	r0, (UNDEF: 16)
878063c8:	01000100 	mrseq	r0, (UNDEF: 16)
878063cc:	01000100 	mrseq	r0, (UNDEF: 16)
878063d0:	00400000 	subeq	r0, r0, r0
878063d4:	00200040 	eoreq	r0, r0, r0, asr #32
	...
878063e0:	98000000 	stmdals	r0, {}	; <UNPREDICTABLE>
878063e4:	44012401 	strmi	r2, [r1], #-1025	; 0xfffffbff
878063e8:	44014401 	strmi	r4, [r1], #-1025	; 0xfffffbff
878063ec:	0400fc00 	streq	pc, [r0], #-3072	; 0xfffff400
878063f0:	fc1f0010 	ldc2	0, cr0, [pc], {16}
878063f4:	04018800 	streq	r8, [r1], #-2048	; 0xfffff800
878063f8:	88000401 	stmdahi	r0, {r0, sl}
878063fc:	00007000 	andeq	r7, r0, r0
87806400:	70000000 	andvc	r0, r0, r0
87806404:	04018800 	streq	r8, [r1], #-2048	; 0xfffff800
87806408:	04010401 	streq	r0, [r1], #-1025	; 0xfffffbff
8780640c:	00008800 	andeq	r8, r0, r0, lsl #16
87806410:	70000000 	andvc	r0, r0, r0
87806414:	04018800 	streq	r8, [r1], #-2048	; 0xfffff800
87806418:	08110401 	ldmdaeq	r1, {r0, sl}
8780641c:	0400fc1f 	streq	pc, [r0], #-3103	; 0xfffff3e1
87806420:	f8000000 			; <UNDEFINED> instruction: 0xf8000000
87806424:	44014401 	strmi	r4, [r1], #-1025	; 0xfffffbff
87806428:	44014401 	strmi	r4, [r1], #-1025	; 0xfffffbff
8780642c:	0000c800 	andeq	ip, r0, r0, lsl #16
87806430:	04010000 	streq	r0, [r1], #-0
87806434:	fc0f0401 	stc2	4, cr0, [pc], {1}
87806438:	04110411 	ldreq	r0, [r1], #-1041	; 0xfffffbef
8780643c:	00180011 	andseq	r0, r8, r1, lsl r0
87806440:	d6000000 	strle	r0, [r0], -r0
87806444:	29012901 	stmdbcs	r1, {r0, r8, fp, sp}
87806448:	c9012901 	stmdbgt	r1, {r0, r8, fp, sp}
8780644c:	00000601 	andeq	r0, r0, r1, lsl #12
87806450:	fc1f0410 	ldc2	4, cr0, [pc], {16}
87806454:	00018400 	andeq	r8, r1, r0, lsl #8
87806458:	04010001 	streq	r0, [r1], #-1
8780645c:	0400fc00 	streq	pc, [r0], #-3072	; 0xfffff400
87806460:	04010000 	streq	r0, [r1], #-0
87806464:	fc190419 	ldc2	4, cr0, [r9], {25}
87806468:	04000400 	streq	r0, [r0], #-1024	; 0xfffffc00
8780646c:	00000000 	andeq	r0, r0, r0
87806470:	03000000 	movweq	r0, #0
87806474:	01010100 	mrseq	r0, (UNDEF: 17)
87806478:	fe190119 	mrc2	1, 0, r0, cr9, cr9, {0}
8780647c:	00000000 	andeq	r0, r0, r0
87806480:	fc1f0410 	ldc2	4, cr0, [pc], {16}
87806484:	40002400 	andmi	r2, r0, r0, lsl #8
87806488:	0c01b401 	cfstrseq	mvf11, [r1], {1}
8780648c:	00000401 	andeq	r0, r0, r1, lsl #8
87806490:	04100000 	ldreq	r0, [r0], #-0
87806494:	fc1f0410 	ldc2	4, cr0, [pc], {16}
87806498:	04000400 	streq	r0, [r0], #-1024	; 0xfffffc00
8780649c:	00000000 	andeq	r0, r0, r0
878064a0:	fc010401 	stc2	4, cr0, [r1], {1}
878064a4:	00010401 	andeq	r0, r1, r1, lsl #8
878064a8:	0401fc01 	streq	pc, [r1], #-3073	; 0xfffff3ff
878064ac:	fc000001 	stc2	0, cr0, [r0], {1}
878064b0:	fc010401 	stc2	4, cr0, [r1], {1}
878064b4:	00018400 	andeq	r8, r1, r0, lsl #8
878064b8:	04010001 	streq	r0, [r1], #-1
878064bc:	0400fc00 	streq	pc, [r0], #-3072	; 0xfffff400
878064c0:	f8000000 			; <UNDEFINED> instruction: 0xf8000000
878064c4:	04010401 	streq	r0, [r1], #-1025	; 0xfffffbff
878064c8:	04010401 	streq	r0, [r1], #-1025	; 0xfffffbff
878064cc:	0000f800 	andeq	pc, r0, r0, lsl #16
878064d0:	ff010101 			; <UNDEFINED> instruction: 0xff010101
878064d4:	04018500 	streq	r8, [r1], #-1280	; 0xfffffb00
878064d8:	88000401 	stmdahi	r0, {r0, sl}
878064dc:	00007000 	andeq	r7, r0, r0
878064e0:	70000000 	andvc	r0, r0, r0
878064e4:	04018800 	streq	r8, [r1], #-2048	; 0xfffff800
878064e8:	05010401 	streq	r0, [r1, #-1025]	; 0xfffffbff
878064ec:	0100ff01 	tsteq	r0, r1, lsl #30	; <UNPREDICTABLE>
878064f0:	04010401 	streq	r0, [r1], #-1025	; 0xfffffbff
878064f4:	8400fc01 	strhi	pc, [r0], #-3073	; 0xfffff3ff
878064f8:	00010401 	andeq	r0, r1, r1, lsl #8
878064fc:	00008001 	andeq	r8, r0, r1
87806500:	cc000000 	stcgt	0, cr0, [r0], {-0}
87806504:	24012401 	strcs	r2, [r1], #-1025	; 0xfffffbff
87806508:	24012401 	strcs	r2, [r1], #-1025	; 0xfffffbff
8780650c:	00009801 	andeq	r9, r0, r1, lsl #16
87806510:	00010000 	andeq	r0, r1, r0
87806514:	f8070001 			; <UNDEFINED> instruction: 0xf8070001
87806518:	04010401 	streq	r0, [r1], #-1025	; 0xfffffbff
8780651c:	00000000 	andeq	r0, r0, r0
87806520:	f8010001 			; <UNDEFINED> instruction: 0xf8010001
87806524:	04000400 	streq	r0, [r0], #-1024	; 0xfffffc00
87806528:	08010400 	stmdaeq	r1, {sl}
8780652c:	0400fc01 	streq	pc, [r0], #-3073	; 0xfffff3ff
87806530:	80010001 	andhi	r0, r1, r1
87806534:	0c007001 	stceq	0, cr7, [r0], {1}
87806538:	60011000 	andvs	r1, r1, r0
8780653c:	00018001 	andeq	r8, r1, r1
87806540:	0c01f001 	stceq	0, cr15, [r1], {1}
87806544:	c0013000 	andgt	r3, r1, r0
87806548:	0c013000 	stceq	0, cr3, [r1], {-0}
8780654c:	0001f001 	andeq	pc, r1, r1
87806550:	04010000 	streq	r0, [r1], #-0
87806554:	74008c01 	strvc	r8, [r0], #-3073	; 0xfffff3ff
87806558:	8c017001 	stchi	0, cr7, [r1], {1}
8780655c:	00000401 	andeq	r0, r0, r1, lsl #8
87806560:	81010101 	tsthi	r1, r1, lsl #2
87806564:	0e007101 	adfeqs	f7, f0, f1
87806568:	60011800 	andvs	r1, r1, r0, lsl #16
8780656c:	00018001 	andeq	r8, r1, r1
87806570:	84010000 	strhi	r0, [r1], #-0
87806574:	34010c01 	strcc	r0, [r1], #-3073	; 0xfffff3ff
87806578:	84014401 	strhi	r4, [r1], #-1025	; 0xfffffbff
8780657c:	00000c01 	andeq	r0, r0, r1, lsl #24
	...
87806588:	fc3e0001 	ldc2	0, cr0, [lr], #-4
8780658c:	02400240 	subeq	r0, r0, #64, 4
	...
87806598:	0000ffff 	strdeq	pc, [r0], -pc	; <UNPREDICTABLE>
8780659c:	00000000 	andeq	r0, r0, r0
878065a0:	02400000 	subeq	r0, r0, #0
878065a4:	fc3e0240 	ldc2	2, cr0, [lr], #-256	; 0xffffff00
878065a8:	00000001 	andeq	r0, r0, r1
878065ac:	00000000 	andeq	r0, r0, r0
878065b0:	00600000 	rsbeq	r0, r0, r0
878065b4:	00800080 	addeq	r0, r0, r0, lsl #1
878065b8:	00400040 	subeq	r0, r0, r0, asr #32
878065bc:	00200020 	eoreq	r0, r0, r0, lsr #32

878065c0 <asc2_2412>:
	...
878065f0:	0f000000 	svceq	0x00000000
878065f4:	fe0f3880 	vcmla.f16	d3, d31, d0[0], #0
878065f8:	38800f38 	stmcc	r0, {r3, r4, r5, r8, r9, sl, fp}
	...
8780660c:	00010000 	andeq	r0, r1, r0
87806610:	00000600 	andeq	r0, r0, r0, lsl #12
87806614:	3800000c 	stmdacc	r0, {r2, r3}
87806618:	00310000 	eorseq	r0, r1, r0
8780661c:	00000600 	andeq	r0, r0, r0, lsl #12
87806620:	3800000c 	stmdacc	r0, {r2, r3}
87806624:	00300000 	eorseq	r0, r0, r0
	...
87806630:	67008061 	strvs	r8, [r0, -r1, rrx]
87806634:	80f907f8 	ldrshthi	r0, [r9], #120	; 0x78
87806638:	00806100 	addeq	r6, r0, r0, lsl #2
8780663c:	61008061 	tstvs	r0, r1, rrx
87806640:	80610080 	rsbhi	r0, r1, r0, lsl #1
87806644:	07f86700 	ldrbeq	r6, [r8, r0, lsl #14]!
87806648:	610080f9 	strdvs	r8, [r0, -r9]
8780664c:	00000080 	andeq	r0, r0, r0, lsl #1
87806650:	00000000 	andeq	r0, r0, r0
87806654:	c0010000 	andgt	r0, r1, r0
87806658:	f0e003e0 			; <UNDEFINED> instruction: 0xf0e003e0
8780665c:	04083006 	streq	r3, [r8], #-6
87806660:	ff1f0818 			; <UNDEFINED> instruction: 0xff1f0818
87806664:	080e04fe 	stmdaeq	lr, {r1, r2, r3, r4, r5, r6, r7, sl}
87806668:	03f08707 	mvnseq	r8, #1835008	; 0x1c0000
8780666c:	0000e081 	andeq	lr, r0, r1, lsl #1
87806670:	00000000 	andeq	r0, r0, r0
87806674:	0600f001 	streq	pc, [r0], -r1
87806678:	0404000c 	streq	r0, [r4], #-12
8780667c:	700c0608 	andvc	r0, ip, r8, lsl #12
87806680:	00c0f901 	sbceq	pc, r0, r1, lsl #18
87806684:	3b00000e 	blcc	878066c4 <asc2_2412+0x104>
87806688:	18ec00e0 	stmiane	ip!, {r5, r6, r7}^
8780668c:	04080807 	streq	r0, [r8], #-2055	; 0xfffff7f9
87806690:	0300180c 	movweq	r1, #2060	; 0x80c
87806694:	000000e0 	andeq	r0, r0, r0, ror #1
87806698:	00e00100 	rsceq	r0, r0, r0, lsl #2
8780669c:	f803f007 			; <UNDEFINED> instruction: 0xf803f007
878066a0:	081c0418 	ldmdaeq	ip, {r3, r4, sl}
878066a4:	07081704 	streq	r1, [r8, -r4, lsl #14]
878066a8:	c003d0e1 	andgt	sp, r3, r1, ror #1
878066ac:	b02300e0 	eorlt	r0, r3, r0, ror #1
878066b0:	00083c00 	andeq	r3, r8, r0, lsl #24
878066b4:	00000820 	andeq	r0, r0, r0, lsr #16
878066b8:	00000010 	andeq	r0, r0, r0, lsl r0
878066bc:	01000000 	mrseq	r0, (UNDEF: 0)
878066c0:	00310000 	eorseq	r0, r1, r0
878066c4:	00003200 	andeq	r3, r0, r0, lsl #4
878066c8:	0000001c 	andeq	r0, r0, ip, lsl r0
	...
878066f0:	ff01007f 			; <UNDEFINED> instruction: 0xff01007f
878066f4:	f08007c0 			; <UNDEFINED> instruction: 0xf08007c0
878066f8:	1018000c 	andsne	r0, r8, ip
878066fc:	00200400 	eoreq	r0, r0, r0, lsl #8
87806700:	00000002 	andeq	r0, r0, r2
87806704:	20000000 	andcs	r0, r0, r0
87806708:	00100200 	andseq	r0, r0, r0, lsl #4
8780670c:	18000c04 	stmdane	r0, {r2, sl, fp}
87806710:	01f08007 	mvnseq	r8, r7
87806714:	7f00c0ff 	svcvc	0x0000c0ff
	...
8780672c:	66000042 	strvs	r0, [r0], -r2, asr #32
87806730:	00660000 	rsbeq	r0, r6, r0
87806734:	00003c00 	andeq	r3, r0, r0, lsl #24
87806738:	ff030018 			; <UNDEFINED> instruction: 0xff030018
8780673c:	001800c0 	andseq	r0, r8, r0, asr #1
87806740:	00003c00 	andeq	r3, r0, r0, lsl #24
87806744:	66000066 	strvs	r0, [r0], -r6, rrx
87806748:	00420000 	subeq	r0, r2, r0
8780674c:	00000000 	andeq	r0, r0, r0
87806750:	08000008 	stmdaeq	r0, {r3}
87806754:	00080000 	andeq	r0, r8, r0
87806758:	00000800 	andeq	r0, r0, r0, lsl #16
8780675c:	ff010008 			; <UNDEFINED> instruction: 0xff010008
87806760:	000800c0 	andeq	r0, r8, r0, asr #1
87806764:	00000800 	andeq	r0, r0, r0, lsl #16
87806768:	08000008 	stmdaeq	r0, {r3}
8780676c:	00080000 	andeq	r0, r8, r0
87806770:	00000000 	andeq	r0, r0, r0
87806774:	00000100 	andeq	r0, r0, r0, lsl #2
87806778:	32000031 	andcc	r0, r0, #49	; 0x31
8780677c:	001c0000 	andseq	r0, ip, r0
	...
87806798:	08000008 	stmdaeq	r0, {r3}
8780679c:	00080000 	andeq	r0, r8, r0
878067a0:	00000800 	andeq	r0, r0, r0, lsl #16
878067a4:	08000008 	stmdaeq	r0, {r3}
878067a8:	00080000 	andeq	r0, r8, r0
878067ac:	00000800 	andeq	r0, r0, r0, lsl #16
878067b0:	08000008 	stmdaeq	r0, {r3}
	...
878067c0:	38000038 	stmdacc	r0, {r3, r4, r5}
878067c4:	00380000 	eorseq	r0, r8, r0
	...
878067e0:	00000600 	andeq	r0, r0, r0, lsl #12
878067e4:	7000001c 	andvc	r0, r0, ip, lsl r0
878067e8:	00800100 	addeq	r0, r0, r0, lsl #2
878067ec:	3800000e 	stmdacc	r0, {r1, r2, r3}
878067f0:	00c00000 	sbceq	r0, r0, r0
878067f4:	1c000007 	stcne	0, cr0, [r0], {7}
878067f8:	00300000 	eorseq	r0, r0, r0
	...
87806804:	ff01807f 			; <UNDEFINED> instruction: 0xff01807f
87806808:	708003e0 	addvc	r0, r0, r0, ror #7
8780680c:	04180006 	ldreq	r0, [r8], #-6
87806810:	00040800 	andeq	r0, r4, r0, lsl #16
87806814:	18000608 	stmdane	r0, {r3, r9, sl}
87806818:	01708003 	cmneq	r0, r3
8780681c:	7f00e0ff 	svcvc	0x0000e0ff
87806820:	00000080 	andeq	r0, r0, r0, lsl #1
87806824:	00000000 	andeq	r0, r0, r0
87806828:	00010000 	andeq	r0, r1, r0
8780682c:	08000108 	stmdaeq	r0, {r3, r8}
87806830:	03080001 	movweq	r0, #32769	; 0x8001
87806834:	ff07f8ff 			; <UNDEFINED> instruction: 0xff07f8ff
87806838:	080000f8 	stmdaeq	r0, {r3, r4, r5, r6, r7}
8780683c:	00080000 	andeq	r0, r8, r0
87806840:	00000800 	andeq	r0, r0, r0, lsl #16
87806844:	00000000 	andeq	r0, r0, r0
87806848:	01000000 	mrseq	r0, (UNDEF: 0)
8780684c:	c00238c0 	andgt	r3, r2, r0, asr #17
87806850:	98000458 	stmdals	r0, {r3, r4, r6, sl}
87806854:	04180104 	ldreq	r0, [r8], #-260	; 0xfffffefc
87806858:	04041802 	streq	r1, [r4], #-2050	; 0xfffff7fe
8780685c:	181c0618 	ldmdane	ip, {r3, r4, r9, sl}
87806860:	0118f803 	tsteq	r8, r3, lsl #16	; <UNPREDICTABLE>
87806864:	0000f8e0 	andeq	pc, r0, r0, ror #17
87806868:	00000000 	andeq	r0, r0, r0
8780686c:	01000000 	mrseq	r0, (UNDEF: 0)
87806870:	c003e0c0 	andgt	lr, r3, r0, asr #1
87806874:	080004f0 	stmdaeq	r0, {r4, r5, r6, r7, sl}
87806878:	04080804 	streq	r0, [r8], #-2052	; 0xfffff7fc
8780687c:	18060808 	stmdane	r6, {r3, fp}
87806880:	18f40308 	ldmne	r4!, {r3, r8, r9}^
87806884:	00f0e701 	rscseq	lr, r0, r1, lsl #14
87806888:	0000e001 	andeq	lr, r0, r1
	...
87806894:	0d000003 	stceq	0, cr0, [r0, #-12]
87806898:	00110000 	andseq	r0, r1, r0
8780689c:	00006100 	andeq	r6, r0, r0, lsl #2
878068a0:	01030881 	smlabbeq	r3, r1, r8, r0
878068a4:	f8ff0708 			; <UNDEFINED> instruction: 0xf8ff0708
878068a8:	00f8ff0f 	rscseq	pc, r8, pc, lsl #30
878068ac:	01000801 	tsteq	r0, r1, lsl #16
878068b0:	00000008 	andeq	r0, r0, r8
878068b4:	00000000 	andeq	r0, r0, r0
878068b8:	fc07e000 	stc2	0, cr14, [r7], {-0}
878068bc:	080806d0 	stmdaeq	r8, {r4, r6, r7, r9, sl}
878068c0:	06081006 	streq	r1, [r8], -r6
878068c4:	10060810 	andne	r0, r6, r0, lsl r8
878068c8:	38180608 	ldmdacc	r8, {r3, r9, sl}
878068cc:	06f00f06 	ldrbteq	r0, [r0], r6, lsl #30
878068d0:	0000c007 	andeq	ip, r0, r7
	...
878068dc:	ff01803f 			; <UNDEFINED> instruction: 0xff01803f
878068e0:	308403e0 	addcc	r0, r4, r0, ror #7
878068e4:	04180802 	ldreq	r0, [r8], #-2050	; 0xfffff7fe
878068e8:	10040810 	andne	r0, r4, r0, lsl r8
878068ec:	08100408 	ldmdaeq	r0, {r3, sl}
878068f0:	03101807 	tsteq	r0, #458752	; 0x70000
878068f4:	0700f00f 	streq	pc, [r0, -pc]
878068f8:	000000c0 	andeq	r0, r0, r0, asr #1
878068fc:	00000000 	andeq	r0, r0, r0
87806900:	c0030000 	andgt	r0, r3, r0
87806904:	00000700 	andeq	r0, r0, r0, lsl #14
87806908:	06000006 	streq	r0, [r0], -r6
8780690c:	0706f800 	streq	pc, [r6, -r0, lsl #16]
87806910:	001806f8 			; <UNDEFINED> instruction: 0x001806f8
87806914:	0700e006 	streq	lr, [r0, -r6]
87806918:	00060000 	andeq	r0, r6, r0
8780691c:	00000000 	andeq	r0, r0, r0
87806920:	01000000 	mrseq	r0, (UNDEF: 0)
87806924:	f703e0e1 			; <UNDEFINED> instruction: 0xf703e0e1
87806928:	103406f0 	ldrshtne	r0, [r4], -r0
8780692c:	04081804 	streq	r1, [r8], #-2052	; 0xfffff7fc
87806930:	0c040818 	stceq	8, cr0, [r4], {24}
87806934:	080c0408 	stmdaeq	ip, {r3, sl}
87806938:	03181606 	tsteq	r8, #6291456	; 0x600000
8780693c:	c101f0f3 	strdgt	pc, [r1, -r3]
87806940:	000000e0 	andeq	r0, r0, r0, ror #1
87806944:	00000000 	andeq	r0, r0, r0
87806948:	fc0300f8 	stc2	0, cr0, [r3], {248}	; 0xf8
8780694c:	38060330 	stmdacc	r6, {r4, r5, r8, r9}
87806950:	04080204 	streq	r0, [r8], #-516	; 0xfffffdfc
87806954:	02040802 	andeq	r0, r4, #131072	; 0x20000
87806958:	10040408 	andne	r0, r4, r8, lsl #8
8780695c:	01f00803 	mvnseq	r0, r3, lsl #16
87806960:	7f00c0ff 	svcvc	0x0000c0ff
	...
87806978:	70003870 	andvc	r3, r0, r0, ror r8
8780697c:	38700038 	ldmdacc	r0!, {r3, r4, r5}^
	...
8780699c:	30001a30 	andcc	r1, r0, r0, lsr sl
878069a0:	0000001c 	andeq	r0, r0, ip, lsl r0
	...
878069b4:	08000000 	stmdaeq	r0, {}	; <UNPREDICTABLE>
878069b8:	00140000 	andseq	r0, r4, r0
878069bc:	00002200 	andeq	r2, r0, r0, lsl #4
878069c0:	80000041 	andhi	r0, r0, r1, asr #32
878069c4:	40000180 	andmi	r0, r0, r0, lsl #3
878069c8:	04200002 	strteq	r0, [r0], #-2
878069cc:	00081000 	andeq	r1, r8, r0
878069d0:	00000008 	andeq	r0, r0, r8
878069d4:	00000000 	andeq	r0, r0, r0
878069d8:	21000021 	tstcs	r0, r1, lsr #32
878069dc:	00210000 	eoreq	r0, r1, r0
878069e0:	00002100 	andeq	r2, r0, r0, lsl #2
878069e4:	21000021 	tstcs	r0, r1, lsr #32
878069e8:	00210000 	eoreq	r0, r1, r0
878069ec:	00002100 	andeq	r2, r0, r0, lsl #2
878069f0:	21000021 	tstcs	r0, r1, lsr #32
	...
878069fc:	00080000 	andeq	r0, r8, r0
87806a00:	10000408 	andne	r0, r0, r8, lsl #8
87806a04:	01200002 			; <UNDEFINED> instruction: 0x01200002
87806a08:	80004000 	andhi	r4, r0, r0
87806a0c:	00410080 	subeq	r0, r1, r0, lsl #1
87806a10:	00002200 	andeq	r2, r0, r0, lsl #4
87806a14:	08000014 	stmdaeq	r0, {r2, r4}
87806a18:	00000000 	andeq	r0, r0, r0
87806a1c:	03000000 	movweq	r0, #0
87806a20:	c00400c0 	andgt	r0, r4, r0, asr #1
87806a24:	00000400 	andeq	r0, r0, r0, lsl #8
87806a28:	08380008 	ldmdaeq	r8!, {r3}
87806a2c:	0808380f 	stmdaeq	r8, {r0, r1, r2, r3, fp, ip, sp}
87806a30:	00100838 	andseq	r0, r0, r8, lsr r8
87806a34:	0700300c 	streq	r3, [r0, -ip]
87806a38:	c00300e0 	andgt	r0, r3, r0, ror #1
	...
87806a44:	ff00803f 			; <UNDEFINED> instruction: 0xff00803f
87806a48:	708003e0 	addvc	r0, r0, r0, ror #7
87806a4c:	06100f02 	ldreq	r0, [r0], -r2, lsl #30
87806a50:	c0048870 	andgt	r8, r4, r0, ror r8
87806a54:	08830488 	stmeq	r3, {r3, r7, sl}
87806a58:	02887f04 	addeq	r7, r8, #4, 30
87806a5c:	010390c0 	smlabteq	r3, r0, r0, r9
87806a60:	40fe0020 	rscsmi	r0, lr, r0, lsr #32
87806a64:	00080000 	andeq	r0, r8, r0
87806a68:	01001800 	tsteq	r0, r0, lsl #16
87806a6c:	083e00f8 	ldmdaeq	lr!, {r3, r4, r5, r6, r7}
87806a70:	0700c201 	streq	ip, [r0, -r1, lsl #4]
87806a74:	e2070002 	and	r0, r7, #2
87806a78:	00fe0000 	rscseq	r0, lr, r0
87806a7c:	00c81f00 	sbceq	r1, r8, r0, lsl #30
87806a80:	0000f801 	andeq	pc, r0, r1, lsl #16
87806a84:	08000038 	stmdaeq	r0, {r3, r4, r5}
87806a88:	07080004 	streq	r0, [r8, -r4]
87806a8c:	ff07f8ff 			; <UNDEFINED> instruction: 0xff07f8ff
87806a90:	080804f8 	stmdaeq	r8, {r3, r4, r5, r6, r7, sl}
87806a94:	04080804 	streq	r0, [r8], #-2052	; 0xfffff7fc
87806a98:	08040808 	stmdaeq	r4, {r3, fp}
87806a9c:	08180608 	ldmdaeq	r8, {r3, r9, sl}
87806aa0:	0118f403 	tsteq	r8, r3, lsl #8	; <UNPREDICTABLE>
87806aa4:	0100f0e7 	smlatteq	r0, r7, r0, pc	; <UNPREDICTABLE>
87806aa8:	000000e0 	andeq	r0, r0, r0, ror #1
87806aac:	00000000 	andeq	r0, r0, r0
87806ab0:	ff01803f 			; <UNDEFINED> instruction: 0xff01803f
87806ab4:	708003e0 	addvc	r0, r0, r0, ror #7
87806ab8:	04180002 	ldreq	r0, [r8], #-2
87806abc:	00040800 	andeq	r0, r4, r0, lsl #16
87806ac0:	08000408 	stmdaeq	r0, {r3, sl}
87806ac4:	06100004 	ldreq	r0, [r0], -r4
87806ac8:	80072000 	andhi	r2, r7, r0
87806acc:	000000c0 	andeq	r0, r0, r0, asr #1
87806ad0:	07080004 	streq	r0, [r8, -r4]
87806ad4:	ff07f8ff 			; <UNDEFINED> instruction: 0xff07f8ff
87806ad8:	080004f8 	stmdaeq	r0, {r3, r4, r5, r6, r7, sl}
87806adc:	04080004 	streq	r0, [r8], #-4
87806ae0:	00040800 	andeq	r0, r4, r0, lsl #16
87806ae4:	10000218 	andne	r0, r0, r8, lsl r2
87806ae8:	01708003 	cmneq	r0, r3
87806aec:	7f00e0ff 	svcvc	0x0000e0ff
87806af0:	00000080 	andeq	r0, r0, r0, lsl #1
87806af4:	07080004 	streq	r0, [r8, -r4]
87806af8:	ff07f8ff 			; <UNDEFINED> instruction: 0xff07f8ff
87806afc:	080804f8 	stmdaeq	r8, {r3, r4, r5, r6, r7, sl}
87806b00:	04080804 	streq	r0, [r8], #-2052	; 0xfffff7fc
87806b04:	08040808 	stmdaeq	r4, {r3, fp}
87806b08:	083e0408 	ldmdaeq	lr!, {r3, sl}
87806b0c:	06080004 	streq	r0, [r8], -r4
87806b10:	00011800 	andeq	r1, r1, r0, lsl #16
87806b14:	00000060 	andeq	r0, r0, r0, rrx
87806b18:	07080004 	streq	r0, [r8, -r4]
87806b1c:	ff07f8ff 			; <UNDEFINED> instruction: 0xff07f8ff
87806b20:	080804f8 	stmdaeq	r8, {r3, r4, r5, r6, r7, sl}
87806b24:	04000804 	streq	r0, [r0], #-2052	; 0xfffff7fc
87806b28:	08040008 	stmdaeq	r4, {r3}
87806b2c:	003e0400 	eorseq	r0, lr, r0, lsl #8
87806b30:	06000006 	streq	r0, [r0], -r6
87806b34:	80010000 	andhi	r0, r1, r0
	...
87806b40:	ff01803f 			; <UNDEFINED> instruction: 0xff01803f
87806b44:	708003e0 	addvc	r0, r0, r0, ror #7
87806b48:	04180006 	ldreq	r0, [r8], #-6
87806b4c:	02040800 	andeq	r0, r4, #0, 16
87806b50:	08020408 	stmdaeq	r2, {r3, sl}
87806b54:	07f00302 	ldrbeq	r0, [r0, r2, lsl #6]!
87806b58:	0200f083 	andeq	pc, r0, #131	; 0x83
87806b5c:	00020000 	andeq	r0, r2, r0
87806b60:	07080004 	streq	r0, [r8, -r4]
87806b64:	ff07f8ff 			; <UNDEFINED> instruction: 0xff07f8ff
87806b68:	080804f8 	stmdaeq	r8, {r3, r4, r5, r6, r7, sl}
87806b6c:	00000800 	andeq	r0, r0, r0, lsl #16
87806b70:	08000008 	stmdaeq	r0, {r3}
87806b74:	00080000 	andeq	r0, r8, r0
87806b78:	07080804 	streq	r0, [r8, -r4, lsl #16]
87806b7c:	ff07f8ff 			; <UNDEFINED> instruction: 0xff07f8ff
87806b80:	080004f8 	stmdaeq	r0, {r3, r4, r5, r6, r7, sl}
87806b84:	00000000 	andeq	r0, r0, r0
87806b88:	00040000 	andeq	r0, r4, r0
87806b8c:	08000408 	stmdaeq	r0, {r3, sl}
87806b90:	07080004 	streq	r0, [r8, -r4]
87806b94:	ff07f8ff 			; <UNDEFINED> instruction: 0xff07f8ff
87806b98:	080004f8 	stmdaeq	r0, {r3, r4, r5, r6, r7, sl}
87806b9c:	04080004 	streq	r0, [r8], #-4
87806ba0:	00000800 	andeq	r0, r0, r0, lsl #16
	...
87806bac:	00000600 	andeq	r0, r0, r0, lsl #12
87806bb0:	01000007 	tsteq	r0, r7
87806bb4:	04010004 	streq	r0, [r1], #-4
87806bb8:	00040100 	andeq	r0, r4, r0, lsl #2
87806bbc:	feff0703 	cdp2	7, 15, cr0, cr15, cr3, {0}
87806bc0:	04fcff07 	ldrbteq	pc, [ip], #3847	; 0xf07	; <UNPREDICTABLE>
87806bc4:	00040000 	andeq	r0, r4, r0
87806bc8:	00000400 	andeq	r0, r0, r0, lsl #8
87806bcc:	07080004 	streq	r0, [r8, -r4]
87806bd0:	ff07f8ff 			; <UNDEFINED> instruction: 0xff07f8ff
87806bd4:	080c04f8 	stmdaeq	ip, {r3, r4, r5, r6, r7, sl}
87806bd8:	00001800 	andeq	r1, r0, r0, lsl #16
87806bdc:	c704003e 	smladxgt	r4, lr, r0, r0
87806be0:	c8030580 	stmdagt	r3, {r7, r8, sl}
87806be4:	04f80006 	ldrbteq	r0, [r8], #6
87806be8:	00043800 	andeq	r3, r4, r0, lsl #16
87806bec:	08000018 	stmdaeq	r0, {r3, r4}
87806bf0:	07080004 	streq	r0, [r8, -r4]
87806bf4:	ff07f8ff 			; <UNDEFINED> instruction: 0xff07f8ff
87806bf8:	080004f8 	stmdaeq	r0, {r3, r4, r5, r6, r7, sl}
87806bfc:	00080000 	andeq	r0, r8, r0
87806c00:	00000800 	andeq	r0, r0, r0, lsl #16
87806c04:	08000008 	stmdaeq	r0, {r3}
87806c08:	00080000 	andeq	r0, r8, r0
87806c0c:	00001800 	andeq	r1, r0, r0, lsl #16
87806c10:	00000060 	andeq	r0, r0, r0, rrx
87806c14:	07080004 	streq	r0, [r8, -r4]
87806c18:	8007f8ff 	strdhi	pc, [r7], -pc	; <UNPREDICTABLE>
87806c1c:	00fc0708 	rscseq	r0, ip, r8, lsl #14
87806c20:	00c07f00 	sbceq	r7, r0, r0, lsl #30
87806c24:	0700f803 	streq	pc, [r0, -r3, lsl #16]
87806c28:	007800c0 	rsbseq	r0, r8, r0, asr #1
87806c2c:	07088007 	streq	r8, [r8, -r7]
87806c30:	ff07f8ff 			; <UNDEFINED> instruction: 0xff07f8ff
87806c34:	080004f8 	stmdaeq	r0, {r3, r4, r5, r6, r7, sl}
87806c38:	07080004 	streq	r0, [r8, -r4]
87806c3c:	0007f8ff 	strdeq	pc, [r7], -pc	; <UNPREDICTABLE>
87806c40:	00c00308 	sbceq	r0, r0, r8, lsl #6
87806c44:	0000e000 	andeq	lr, r0, r0
87806c48:	1e000038 	mcrne	0, 0, r0, cr0, cr8, {1}
87806c4c:	00070000 	andeq	r0, r7, r0
87806c50:	04c00100 	strbeq	r0, [r0], #256	; 0x100
87806c54:	ff07f000 			; <UNDEFINED> instruction: 0xff07f000
87806c58:	000004f8 	strdeq	r0, [r0], -r8
87806c5c:	00000000 	andeq	r0, r0, r0
87806c60:	ff01807f 			; <UNDEFINED> instruction: 0xff01807f
87806c64:	708003e0 	addvc	r0, r0, r0, ror #7
87806c68:	04180006 	ldreq	r0, [r8], #-6
87806c6c:	00040800 	andeq	r0, r4, r0, lsl #16
87806c70:	18000608 	stmdane	r0, {r3, r9, sl}
87806c74:	01300003 	teqeq	r0, r3
87806c78:	7f00e0ff 	svcvc	0x0000e0ff
87806c7c:	00000080 	andeq	r0, r0, r0, lsl #1
87806c80:	07080004 	streq	r0, [r8, -r4]
87806c84:	ff07f8ff 			; <UNDEFINED> instruction: 0xff07f8ff
87806c88:	080404f8 	stmdaeq	r4, {r3, r4, r5, r6, r7, sl}
87806c8c:	04000404 	streq	r0, [r0], #-1028	; 0xfffffbfc
87806c90:	04040004 	streq	r0, [r4], #-4
87806c94:	00040400 	andeq	r0, r4, r0, lsl #8
87806c98:	03000c06 	movweq	r0, #3078	; 0xc06
87806c9c:	f00100f8 			; <UNDEFINED> instruction: 0xf00100f8
	...
87806ca8:	ff01807f 			; <UNDEFINED> instruction: 0xff01807f
87806cac:	708003e0 	addvc	r0, r0, r0, ror #7
87806cb0:	04880006 	streq	r0, [r8], #6
87806cb4:	00048800 	andeq	r8, r4, r0, lsl #16
87806cb8:	3c0006c8 	stccc	6, cr0, [r0], {200}	; 0xc8
87806cbc:	013e0003 	teqeq	lr, r3
87806cc0:	7f00e6ff 	svcvc	0x0000e6ff
87806cc4:	00000084 	andeq	r0, r0, r4, lsl #1
87806cc8:	07080004 	streq	r0, [r8, -r4]
87806ccc:	ff07f8ff 			; <UNDEFINED> instruction: 0xff07f8ff
87806cd0:	080804f8 	stmdaeq	r8, {r3, r4, r5, r6, r7, sl}
87806cd4:	04000804 	streq	r0, [r0], #-2052	; 0xfffff7fc
87806cd8:	0f04000c 	svceq	0x0004000c
87806cdc:	c00b0400 	andgt	r0, fp, r0, lsl #8
87806ce0:	03f01006 	mvnseq	r1, #6
87806ce4:	e00138f0 	strd	r3, [r1], -r0
87806ce8:	08000008 	stmdaeq	r0, {r3}
87806cec:	01000000 	mrseq	r0, (UNDEF: 0)
87806cf0:	f003f8e0 			; <UNDEFINED> instruction: 0xf003f8e0
87806cf4:	10300630 	eorsne	r0, r0, r0, lsr r6
87806cf8:	04081804 	streq	r1, [r8], #-2052	; 0xfffff7fc
87806cfc:	0c040818 	stceq	8, cr0, [r4], {24}
87806d00:	080c0408 	stmdaeq	ip, {r3, sl}
87806d04:	02180602 	andseq	r0, r8, #2097152	; 0x200000
87806d08:	8107f007 	tsthi	r7, r7	; <UNPREDICTABLE>
87806d0c:	000000e0 	andeq	r0, r0, r0, ror #1
87806d10:	06008001 	streq	r8, [r0], -r1
87806d14:	00040000 	andeq	r0, r4, r0
87806d18:	00000400 	andeq	r0, r0, r0, lsl #8
87806d1c:	07080004 	streq	r0, [r8, -r4]
87806d20:	ff07f8ff 			; <UNDEFINED> instruction: 0xff07f8ff
87806d24:	080004f8 	stmdaeq	r0, {r3, r4, r5, r6, r7, sl}
87806d28:	04000004 	streq	r0, [r0], #-4
87806d2c:	00060000 	andeq	r0, r6, r0
87806d30:	00800100 	addeq	r0, r0, r0, lsl #2
87806d34:	07000004 	streq	r0, [r0, -r4]
87806d38:	ff07e0ff 			; <UNDEFINED> instruction: 0xff07e0ff
87806d3c:	180004f0 	stmdane	r0, {r4, r5, r6, r7, sl}
87806d40:	00080000 	andeq	r0, r8, r0
87806d44:	00000800 	andeq	r0, r0, r0, lsl #16
87806d48:	08000008 	stmdaeq	r0, {r3}
87806d4c:	04080000 	streq	r0, [r8], #-0
87806d50:	ff071000 			; <UNDEFINED> instruction: 0xff071000
87806d54:	000004e0 	andeq	r0, r0, r0, ror #9
87806d58:	06000004 	streq	r0, [r0], -r4
87806d5c:	e0070000 	and	r0, r7, r0
87806d60:	00fe0700 	rscseq	r0, lr, r0, lsl #14
87806d64:	00e01f04 	rsceq	r1, r0, r4, lsl #30
87806d68:	0000f801 	andeq	pc, r0, r1, lsl #16
87806d6c:	e0010038 	and	r0, r1, r8, lsr r0
87806d70:	07003e04 	streq	r3, [r0, -r4, lsl #28]
87806d74:	000600c0 	andeq	r0, r6, r0, asr #1
87806d78:	00000400 	andeq	r0, r0, r0, lsl #8
87806d7c:	07000004 	streq	r0, [r0, -r4]
87806d80:	ff0700e0 			; <UNDEFINED> instruction: 0xff0700e0
87806d84:	f81f04c0 			; <UNDEFINED> instruction: 0xf81f04c0
87806d88:	07c00700 	strbeq	r0, [r0, r0, lsl #14]
87806d8c:	ff0700f8 			; <UNDEFINED> instruction: 0xff0700f8
87806d90:	f83f0480 			; <UNDEFINED> instruction: 0xf83f0480
87806d94:	04c00700 	strbeq	r0, [r0], #1792	; 0x700
87806d98:	000700f8 	strdeq	r0, [r7], -r8
87806d9c:	00000400 	andeq	r0, r0, r0, lsl #8
87806da0:	04000000 	streq	r0, [r0], #-0
87806da4:	00060800 	andeq	r0, r6, r0, lsl #16
87806da8:	78c00718 	stmiavc	r0, {r3, r4, r8, r9, sl}^
87806dac:	00c8f105 	sbceq	pc, r8, r5, lsl #2
87806db0:	1f00003e 	svcne	0x0000003e
87806db4:	e8630480 	stmda	r3!, {r7, sl}^
87806db8:	06f88007 	ldrbteq	r8, [r8], r7
87806dbc:	00041800 	andeq	r1, r4, r0, lsl #16
87806dc0:	00000008 	andeq	r0, r0, r8
87806dc4:	06000004 	streq	r0, [r0], -r4
87806dc8:	80070000 	andhi	r0, r7, r0
87806dcc:	08e00700 	stmiaeq	r0!, {r8, r9, sl}^
87806dd0:	00087c04 	andeq	r7, r8, r4, lsl #24
87806dd4:	0700f81f 	smuadeq	r0, pc, r8	; <UNPREDICTABLE>
87806dd8:	081800f8 	ldmdaeq	r8, {r3, r4, r5, r6, r7}
87806ddc:	0708e004 	streq	lr, [r8, -r4]
87806de0:	00060000 	andeq	r0, r6, r0
87806de4:	00000400 	andeq	r0, r0, r0, lsl #8
87806de8:	01000000 	mrseq	r0, (UNDEF: 0)
87806dec:	00060800 	andeq	r0, r6, r0, lsl #16
87806df0:	f8000438 			; <UNDEFINED> instruction: 0xf8000438
87806df4:	04e80304 	strbteq	r0, [r8], #772	; 0x304
87806df8:	7c04080f 	stcvc	8, cr0, [r4], {15}
87806dfc:	08f00508 	ldmeq	r0!, {r3, r8, sl}^
87806e00:	0708c007 	streq	ip, [r8, -r7]
87806e04:	00041800 	andeq	r1, r4, r0, lsl #16
87806e08:	00000060 	andeq	r0, r0, r0, rrx
	...
87806e18:	3f000000 	svccc	0x00000000
87806e1c:	0020feff 	strdeq	pc, [r0], -pc	; <UNPREDICTABLE>
87806e20:	02002002 	andeq	r2, r0, #2
87806e24:	20020020 	andcs	r0, r2, r0, lsr #32
87806e28:	00200200 	eoreq	r0, r0, r0, lsl #4
87806e2c:	00000002 	andeq	r0, r0, r2
87806e30:	00000000 	andeq	r0, r0, r0
87806e34:	00080000 	andeq	r0, r8, r0
87806e38:	00000700 	andeq	r0, r0, r0, lsl #14
87806e3c:	0000c000 	andeq	ip, r0, r0
87806e40:	06000038 			; <UNDEFINED> instruction: 0x06000038
87806e44:	c0010000 	andgt	r0, r1, r0
87806e48:	00300000 	eorseq	r0, r0, r0
87806e4c:	00000e00 	andeq	r0, r0, r0, lsl #28
87806e50:	00000001 	andeq	r0, r0, r1
87806e54:	00000000 	andeq	r0, r0, r0
87806e58:	00200000 	eoreq	r0, r0, r0
87806e5c:	02002002 	andeq	r2, r0, #2
87806e60:	20020020 	andcs	r0, r2, r0, lsr #32
87806e64:	00200200 	eoreq	r0, r0, r0, lsl #4
87806e68:	feff3f02 	cdp2	15, 15, cr3, cr15, cr2, {0}
	...
87806e80:	00000800 	andeq	r0, r0, r0, lsl #16
87806e84:	30000010 	andcc	r0, r0, r0, lsl r0
87806e88:	00200000 	eoreq	r0, r0, r0
87806e8c:	00003000 	andeq	r3, r0, r0
87806e90:	08000010 	stmdaeq	r0, {r4}
	...
87806e9c:	00010000 	andeq	r0, r1, r0
87806ea0:	00000100 	andeq	r0, r0, r0, lsl #2
87806ea4:	01000001 	tsteq	r0, r1
87806ea8:	00010000 	andeq	r0, r1, r0
87806eac:	00000100 	andeq	r0, r0, r0, lsl #2
87806eb0:	01000001 	tsteq	r0, r1
87806eb4:	00010000 	andeq	r0, r1, r0
87806eb8:	00000100 	andeq	r0, r0, r0, lsl #2
87806ebc:	01000001 	tsteq	r0, r1
	...
87806ec8:	00002000 	andeq	r2, r0, r0
87806ecc:	10000020 	andne	r0, r0, r0, lsr #32
87806ed0:	00100000 	andseq	r0, r0, r0
	...
87806ee8:	1900f000 	stmdbne	r0, {ip, sp, lr, pc}
87806eec:	181b00f8 	ldmdane	fp, {r3, r4, r5, r6, r7}
87806ef0:	00082200 	andeq	r2, r8, r0, lsl #4
87806ef4:	24000826 	strcs	r0, [r0], #-2086	; 0xfffff7da
87806ef8:	10240008 	eorne	r0, r4, r8
87806efc:	00f83f00 	rscseq	r3, r8, r0, lsl #30
87806f00:	0000f81f 	andeq	pc, r0, pc, lsl r8	; <UNPREDICTABLE>
87806f04:	18000008 	stmdane	r0, {r3}
87806f08:	04000000 	streq	r0, [r0], #-0
87806f0c:	ff070000 			; <UNDEFINED> instruction: 0xff070000
87806f10:	f0ff0ff8 			; <UNDEFINED> instruction: 0xf0ff0ff8
87806f14:	00181800 	andseq	r1, r8, r0, lsl #16
87806f18:	20000810 	andcs	r0, r0, r0, lsl r8
87806f1c:	08200008 	stmdaeq	r0!, {r3}
87806f20:	00183000 	andseq	r3, r8, r0
87806f24:	0f00f01f 	svceq	0x0000f01f
87806f28:	000000c0 	andeq	r0, r0, r0, asr #1
87806f2c:	00000000 	andeq	r0, r0, r0
87806f30:	1f00c007 	svcne	0x0000c007
87806f34:	301800f0 	ldrshcc	r0, [r8], -r0	; <UNPREDICTABLE>
87806f38:	00082000 	andeq	r2, r8, r0
87806f3c:	20000820 	andcs	r0, r0, r0, lsr #16
87806f40:	083c0008 	ldmdaeq	ip!, {r3}
87806f44:	00101c00 	andseq	r1, r0, r0, lsl #24
87806f48:	00006000 	andeq	r6, r0, r0
	...
87806f54:	1f00c007 	svcne	0x0000c007
87806f58:	183800f0 	ldmdane	r8!, {r4, r5, r6, r7}
87806f5c:	00082000 	andeq	r2, r8, r0
87806f60:	20000820 	andcs	r0, r0, r0, lsr #16
87806f64:	10100408 	andsne	r0, r0, r8, lsl #8
87806f68:	0ff8ff07 	svceq	0x00f8ff07
87806f6c:	0000f0ff 	strdeq	pc, [r0], -pc	; <UNPREDICTABLE>
87806f70:	00000010 	andeq	r0, r0, r0, lsl r0
87806f74:	00000000 	andeq	r0, r0, r0
87806f78:	07000000 	streq	r0, [r0, -r0]
87806f7c:	f01f00c0 			; <UNDEFINED> instruction: 0xf01f00c0
87806f80:	00301200 	eorseq	r1, r0, r0, lsl #4
87806f84:	22001822 	andcs	r1, r0, #2228224	; 0x220000
87806f88:	08220008 	stmdaeq	r2!, {r3}
87806f8c:	00083200 	andeq	r3, r8, r0, lsl #4
87806f90:	0e00101e 	mcreq	0, 0, r1, cr0, cr14, {0}
87806f94:	00000020 	andeq	r0, r0, r0, lsr #32
87806f98:	00000000 	andeq	r0, r0, r0
87806f9c:	20000020 	andcs	r0, r0, r0, lsr #32
87806fa0:	08200008 	stmdaeq	r0!, {r3}
87806fa4:	03f8ff01 	mvnseq	pc, #1, 30
87806fa8:	2006f8ff 	strdcs	pc, [r6], -pc	; <UNPREDICTABLE>
87806fac:	08200408 	stmdaeq	r0!, {r3, sl}
87806fb0:	07082004 	streq	r2, [r8, -r4]
87806fb4:	00030020 	andeq	r0, r3, r0, lsr #32
	...
87806fc0:	0e000e00 	cdpeq	14, 0, cr0, cr0, cr0, {0}
87806fc4:	f31f006e 	vhadd.u16	q0, <illegal reg q7.5>, q15
87806fc8:	00b13100 	adcseq	r3, r1, r0, lsl #2
87806fcc:	2000b120 	andcs	fp, r0, r0, lsr #2
87806fd0:	913100b1 	ldrhls	r0, [r1, -r1]!
87806fd4:	00131f00 	andseq	r1, r3, r0, lsl #30
87806fd8:	20001e2e 	andcs	r1, r0, lr, lsr #28
87806fdc:	0030000e 	eorseq	r0, r0, lr
87806fe0:	04000000 	streq	r0, [r0], #-0
87806fe4:	ff070800 			; <UNDEFINED> instruction: 0xff070800
87806fe8:	f8ff0ff8 			; <UNDEFINED> instruction: 0xf8ff0ff8
87806fec:	00081000 	andeq	r1, r8, r0
87806ff0:	20000020 	andcs	r0, r0, r0, lsr #32
87806ff4:	08200000 	stmdaeq	r0!, {}	; <UNPREDICTABLE>
87806ff8:	00f83f00 	rscseq	r3, r8, r0, lsl #30
87806ffc:	0000f81f 	andeq	pc, r0, pc, lsl r8	; <UNPREDICTABLE>
87807000:	00000008 	andeq	r0, r0, r8
87807004:	00000000 	andeq	r0, r0, r0
87807008:	20000000 	andcs	r0, r0, r0
8780700c:	08200008 	stmdaeq	r0!, {r3}
87807010:	06082000 	streq	r2, [r8], -r0
87807014:	3f06f83f 	svccc	0x0006f83f
87807018:	080000f8 	stmdaeq	r0, {r3, r4, r5, r6, r7}
8780701c:	00080000 	andeq	r0, r8, r0
87807020:	00000800 	andeq	r0, r0, r0, lsl #16
	...
87807030:	03000003 	movweq	r0, #3
87807034:	00012000 	andeq	r2, r1, r0
87807038:	20000120 	andcs	r0, r0, r0, lsr #2
8780703c:	fe3f0603 	cdp2	6, 3, cr0, cr15, cr3, {0}
87807040:	00fc3f06 	rscseq	r3, ip, r6, lsl #30
	...
8780704c:	04000000 	streq	r0, [r0], #-0
87807050:	ff070800 			; <UNDEFINED> instruction: 0xff070800
87807054:	f8ff0ff8 			; <UNDEFINED> instruction: 0xf8ff0ff8
87807058:	00880100 	addeq	r0, r8, r0, lsl #2
8780705c:	2f000003 	svccs	0x00000003
87807060:	f83800c0 			; <UNDEFINED> instruction: 0xf83800c0
87807064:	00382000 	eorseq	r2, r8, r0
87807068:	00000820 	andeq	r0, r0, r0, lsr #16
8780706c:	00000008 	andeq	r0, r0, r8
87807070:	00000000 	andeq	r0, r0, r0
87807074:	00040000 	andeq	r0, r4, r0
87807078:	08000408 	stmdaeq	r0, {r3, sl}
8780707c:	07080004 	streq	r0, [r8, -r4]
87807080:	ff0ff8ff 			; <UNDEFINED> instruction: 0xff0ff8ff
87807084:	080000f8 	stmdaeq	r0, {r3, r4, r5, r6, r7}
87807088:	00080000 	andeq	r0, r8, r0
8780708c:	00000800 	andeq	r0, r0, r0, lsl #16
87807090:	00000000 	andeq	r0, r0, r0
87807094:	00082000 	andeq	r2, r8, r0
87807098:	3f00f83f 	svccc	0x0000f83f
8780709c:	081000f8 	ldmdaeq	r0, {r3, r4, r5, r6, r7}
878070a0:	00002000 	andeq	r2, r0, r0
878070a4:	3f00f83f 	svccc	0x0000f83f
878070a8:	081000f8 	ldmdaeq	r0, {r3, r4, r5, r6, r7}
878070ac:	00002000 	andeq	r2, r0, r0
878070b0:	3f00f83f 	svccc	0x0000f83f
878070b4:	080000f8 	stmdaeq	r0, {r3, r4, r5, r6, r7}
878070b8:	00000000 	andeq	r0, r0, r0
878070bc:	3f000820 	svccc	0x00000820
878070c0:	f83f00f8 			; <UNDEFINED> instruction: 0xf83f00f8
878070c4:	00081000 	andeq	r1, r8, r0
878070c8:	20000010 	andcs	r0, r0, r0, lsl r0
878070cc:	08200000 	stmdaeq	r0!, {}	; <UNPREDICTABLE>
878070d0:	00f83f00 	rscseq	r3, r8, r0, lsl #30
878070d4:	0000f81f 	andeq	pc, r0, pc, lsl r8	; <UNPREDICTABLE>
878070d8:	00000008 	andeq	r0, r0, r8
878070dc:	00000000 	andeq	r0, r0, r0
878070e0:	0f00c007 	svceq	0x0000c007
878070e4:	301800f0 	ldrshcc	r0, [r8], -r0	; <UNPREDICTABLE>
878070e8:	00083000 	andeq	r3, r8, r0
878070ec:	20000820 	andcs	r0, r0, r0, lsr #16
878070f0:	08300008 	ldmdaeq	r0!, {r3}
878070f4:	00301800 	eorseq	r1, r0, r0, lsl #16
878070f8:	0700f00f 	streq	pc, [r0, -pc]
878070fc:	000000c0 	andeq	r0, r0, r0, asr #1
87807100:	00000000 	andeq	r0, r0, r0
87807104:	3f000120 	svccc	0x00000120
87807108:	ff3f00ff 			; <UNDEFINED> instruction: 0xff3f00ff
8780710c:	00111000 	andseq	r1, r1, r0
87807110:	20000920 	andcs	r0, r0, r0, lsr #18
87807114:	08200008 	stmdaeq	r0!, {r3}
87807118:	00383000 	eorseq	r3, r8, r0
8780711c:	0f00f01f 	svceq	0x0000f01f
87807120:	000000c0 	andeq	r0, r0, r0, asr #1
87807124:	00000000 	andeq	r0, r0, r0
87807128:	1f00c007 	svcne	0x0000c007
8780712c:	183800f0 	ldmdane	r8!, {r4, r5, r6, r7}
87807130:	00082000 	andeq	r2, r8, r0
87807134:	20000820 	andcs	r0, r0, r0, lsr #16
87807138:	11100009 	tstne	r0, r9
8780713c:	00ff1f00 	rscseq	r1, pc, r0, lsl #30
87807140:	0000ff3f 	andeq	pc, r0, pc, lsr pc	; <UNPREDICTABLE>
87807144:	00000001 	andeq	r0, r0, r1
87807148:	00082000 	andeq	r2, r8, r0
8780714c:	20000820 	andcs	r0, r0, r0, lsr #16
87807150:	f83f0008 			; <UNDEFINED> instruction: 0xf83f0008
87807154:	00f83f00 	rscseq	r3, r8, r0, lsl #30
87807158:	10000808 	andne	r0, r0, r8, lsl #16
8780715c:	08200008 	stmdaeq	r0!, {r3}
87807160:	00002000 	andeq	r2, r0, r0
87807164:	30000030 	andcc	r0, r0, r0, lsr r0
	...
87807170:	0c000000 	stceq	0, cr0, [r0], {-0}
87807174:	181e0078 	ldmdane	lr, {r3, r4, r5, r6}
87807178:	00083300 	andeq	r3, r8, r0, lsl #6
8780717c:	21000823 	tstcs	r0, r3, lsr #16
87807180:	88210008 	stmdahi	r1!, {r3}
87807184:	00982100 	addseq	r2, r8, r0, lsl #2
87807188:	3800f030 	stmdacc	r0, {r4, r5, ip, sp, lr, pc}
8780718c:	00000060 	andeq	r0, r0, r0, rrx
87807190:	00000000 	andeq	r0, r0, r0
87807194:	20000020 	andcs	r0, r0, r0, lsr #32
87807198:	00200000 	eoreq	r0, r0, r0
8780719c:	03f0ff00 	mvnseq	pc, #0, 30
878071a0:	2000f8ff 	strdcs	pc, [r0], -pc	; <UNPREDICTABLE>
878071a4:	08200008 	stmdaeq	r0!, {r3}
878071a8:	00082000 	andeq	r2, r8, r0
878071ac:	00003000 	andeq	r3, r0, r0
	...
878071b8:	3f000020 	svccc	0x00000020
878071bc:	f87f00f0 			; <UNDEFINED> instruction: 0xf87f00f0
878071c0:	00180000 	andseq	r0, r8, r0
878071c4:	00000800 	andeq	r0, r0, r0, lsl #16
878071c8:	10200008 	eorne	r0, r0, r8
878071cc:	00f83f00 	rscseq	r3, r8, r0, lsl #30
878071d0:	0000f07f 	andeq	pc, r0, pc, ror r0	; <UNPREDICTABLE>
878071d4:	00000010 	andeq	r0, r0, r0, lsl r0
878071d8:	00000000 	andeq	r0, r0, r0
878071dc:	30000020 	andcc	r0, r0, r0, lsr #32
878071e0:	003c0000 	eorseq	r0, ip, r0
878071e4:	00803f00 	addeq	r3, r0, r0, lsl #30
878071e8:	0000f023 	andeq	pc, r0, r3, lsr #32
878071ec:	70000078 	andvc	r0, r0, r8, ror r0
878071f0:	00802300 	addeq	r2, r0, r0, lsl #6
878071f4:	3000003c 	andcc	r0, r0, ip, lsr r0
878071f8:	00200000 	eoreq	r0, r0, r0
878071fc:	00002000 	andeq	r2, r0, r0
87807200:	3f00003c 	svccc	0x0000003c
87807204:	f82300e0 			; <UNDEFINED> instruction: 0xf82300e0
87807208:	00e00000 	rsceq	r0, r0, r0
8780720c:	3e000027 	cdpcc	0, 0, cr0, cr0, cr7, {1}
87807210:	e03f0000 	eors	r0, pc, r0
87807214:	00f82100 	rscseq	r2, r8, r0, lsl #2
87807218:	3e00e001 	cdpcc	0, 0, cr14, cr0, cr1, {0}
8780721c:	00200000 	eoreq	r0, r0, r0
87807220:	00000000 	andeq	r0, r0, r0
87807224:	20000820 	andcs	r0, r0, r0, lsr #16
87807228:	38380008 	ldmdacc	r8!, {r3}
8780722c:	00683e00 	rsbeq	r3, r8, r0, lsl #28
87807230:	03008027 	movweq	r8, #39	; 0x27
87807234:	f82c00c8 			; <UNDEFINED> instruction: 0xf82c00c8
87807238:	00383800 	eorseq	r3, r8, r0, lsl #16
8780723c:	20001820 	andcs	r1, r0, r0, lsr #16
87807240:	00000008 	andeq	r0, r0, r8
87807244:	00000000 	andeq	r0, r0, r0
87807248:	30000020 	andcc	r0, r0, r0, lsr #32
8780724c:	013c0003 	teqeq	ip, r3
87807250:	00833f00 	addeq	r3, r3, r0, lsl #30
87807254:	0000ec23 	andeq	lr, r0, r3, lsr #24
87807258:	80230070 	eorhi	r0, r3, r0, ror r0
8780725c:	00003c00 	andeq	r3, r0, r0, lsl #24
87807260:	20000020 	andcs	r0, r0, r0, lsr #32
	...
8780726c:	38000000 	stmdacc	r0, {}	; <UNPREDICTABLE>
87807270:	38200008 	stmdacc	r0!, {r3}
87807274:	00f82000 	rscseq	r2, r8, r0
87807278:	2f00e823 	svccs	0x0000e823
8780727c:	083e0088 	ldmdaeq	lr!, {r3, r7}
87807280:	00083800 	andeq	r3, r8, r0, lsl #16
87807284:	00001820 	andeq	r1, r0, r0, lsr #16
87807288:	00000070 	andeq	r0, r0, r0, ror r0
	...
8780729c:	14000008 	strne	r0, [r0], #-8
878072a0:	fcf71f00 	ldc2l	15, cr1, [r7]
878072a4:	20060030 	andcs	r0, r6, r0, lsr r0
878072a8:	00000200 	andeq	r0, r0, r0, lsl #4
	...
878072c0:	ffff0000 			; <UNDEFINED> instruction: 0xffff0000
878072c4:	000000ff 	strdeq	r0, [r0], -pc	; <UNPREDICTABLE>
	...
878072d8:	00200000 	eoreq	r0, r0, r0
878072dc:	06003002 	streq	r3, [r0], -r2
878072e0:	00fcf71f 	rscseq	pc, ip, pc, lsl r7	; <UNPREDICTABLE>
878072e4:	08000014 	stmdaeq	r0, {r2, r4}
	...
878072f8:	18000000 	stmdane	r0, {}	; <UNPREDICTABLE>
878072fc:	00600000 	rsbeq	r0, r0, r0
87807300:	00004000 	andeq	r4, r0, r0
87807304:	20000040 	andcs	r0, r0, r0, asr #32
87807308:	00100000 	andseq	r0, r0, r0
8780730c:	00000800 	andeq	r0, r0, r0, lsl #16
87807310:	04000004 	streq	r0, [r0], #-4
87807314:	000c0000 	andeq	r0, ip, r0
87807318:	00001000 	andeq	r1, r0, r0

8780731c <asc2_3216>:
	...
878073b4:	c000f007 	andgt	pc, r0, r7
878073b8:	e0e1ff07 	rsc	pc, r1, r7, lsl #30
878073bc:	e001f007 	and	pc, r1, r7
878073c0:	c0000000 	andgt	r0, r0, r0
	...
87807424:	00002000 	andeq	r2, r0, r0
87807428:	0000c001 	andeq	ip, r0, r1
8780742c:	00008007 	andeq	r8, r0, r7
87807430:	0000001f 	andeq	r0, r0, pc, lsl r0
87807434:	0000001e 	andeq	r0, r0, lr, lsl r0
87807438:	0000201c 	andeq	r2, r0, ip, lsl r0
8780743c:	0000c001 	andeq	ip, r0, r1
87807440:	00008007 	andeq	r8, r0, r7
87807444:	0000001f 	andeq	r0, r0, pc, lsl r0
87807448:	0000001e 	andeq	r0, r0, lr, lsl r0
8780744c:	0000001c 	andeq	r0, r0, ip, lsl r0
	...
878074a0:	000c1800 	andeq	r1, ip, r0, lsl #16
878074a4:	000c1800 	andeq	r1, ip, r0, lsl #16
878074a8:	e00f1800 	and	r1, pc, r0, lsl #16
878074ac:	00fc1f00 	rscseq	r1, ip, r0, lsl #30
878074b0:	000cf803 	andeq	pc, ip, r3, lsl #16
878074b4:	000c1800 	andeq	r1, ip, r0, lsl #16
878074b8:	000c1800 	andeq	r1, ip, r0, lsl #16
878074bc:	000c1800 	andeq	r1, ip, r0, lsl #16
878074c0:	000c1800 	andeq	r1, ip, r0, lsl #16
878074c4:	e00f1800 	and	r1, pc, r0, lsl #16
878074c8:	00fc1f00 	rscseq	r1, ip, r0, lsl #30
878074cc:	000cf803 	andeq	pc, ip, r3, lsl #16
878074d0:	000c1800 	andeq	r1, ip, r0, lsl #16
878074d4:	000c1800 	andeq	r1, ip, r0, lsl #16
	...
87807524:	80070000 	andhi	r0, r7, r0
87807528:	c0077800 	andgt	r7, r7, r0, lsl #16
8780752c:	4006fc00 	andmi	pc, r6, r0, lsl #24
87807530:	20000e01 	andcs	r0, r0, r1, lsl #28
87807534:	20000703 	andcs	r0, r0, r3, lsl #14
87807538:	20800302 	addcs	r0, r0, r2, lsl #6
8780753c:	fcffff0f 	ldc2l	15, cr15, [pc], #60	; 87807580 <asc2_3216+0x264>
87807540:	20c00102 	sbccs	r0, r0, r2, lsl #2
87807544:	60e00002 	rscvs	r0, r0, r2
87807548:	40703001 	rsbsmi	r3, r0, r1
8780754c:	803ff001 	eorshi	pc, pc, r1
87807550:	001ff000 	andseq	pc, pc, r0
	...
8780759c:	0000fe00 	andeq	pc, r0, r0, lsl #28
878075a0:	0000ff01 	andeq	pc, r0, r1, lsl #30
878075a4:	00800103 	addeq	r0, r0, r3, lsl #2
878075a8:	60800002 	addvs	r0, r0, r2
878075ac:	c0810103 	addgt	r0, r1, r3, lsl #2
878075b0:	0007ff01 	andeq	pc, r7, r1, lsl #30
878075b4:	0018fe00 	andseq	pc, r8, r0, lsl #28
878075b8:	00e00000 	rsceq	r0, r0, r0
878075bc:	00bf0300 	adcseq	r0, pc, r0, lsl #6
878075c0:	c0ff0c00 	rscsgt	r0, pc, r0, lsl #24
878075c4:	60807100 	addvs	r7, r0, r0, lsl #2
878075c8:	2000c101 	andcs	ip, r0, r1, lsl #2
878075cc:	60800103 	addvs	r0, r0, r3, lsl #2
878075d0:	c0ff0000 	rscsgt	r0, pc, r0
878075d4:	003f0000 	eorseq	r0, pc, r0
	...
8780761c:	001f0000 	andseq	r0, pc, r0
87807620:	c07f0000 	rsbsgt	r0, pc, r0
87807624:	c0c0fc00 	sbcgt	pc, r0, r0, lsl #24
87807628:	6080ff01 	addvs	pc, r0, r1, lsl #30
8780762c:	20e00303 	rsccs	r0, r0, r3, lsl #6
87807630:	20780202 	rsbscs	r0, r8, r2, lsl #4
87807634:	201e0602 	andscs	r0, lr, r2, lsl #12
87807638:	4007fc03 	andmi	pc, r7, r3, lsl #24
8780763c:	8003f001 	andhi	pc, r3, r1
87807640:	c0030100 	andgt	r0, r3, r0, lsl #2
87807644:	601c0100 	andsvs	r0, ip, r0, lsl #2
87807648:	20e00100 	rsccs	r0, r0, r0, lsl #2
8780764c:	20000100 	andcs	r0, r0, r0, lsl #2
87807650:	40000100 	andmi	r0, r0, r0, lsl #2
87807654:	80010000 	andhi	r0, r1, r0
	...
878076a0:	00002000 	andeq	r2, r0, r0
878076a4:	0000601c 	andeq	r6, r0, ip, lsl r0
878076a8:	0000401c 	andeq	r4, r0, ip, lsl r0
878076ac:	0000801f 	andeq	r8, r0, pc, lsl r0
878076b0:	0000000f 	andeq	r0, r0, pc
	...
87807738:	00f80700 	rscseq	r0, r8, r0, lsl #14
8780773c:	00ff3f00 	rscseq	r3, pc, r0, lsl #30
87807740:	c0077800 	andgt	r7, r7, r0, lsl #16
87807744:	e000c001 	and	ip, r0, r1
87807748:	30000003 	andcc	r0, r0, r3
8780774c:	08000004 	stmdaeq	r0, {r2}
87807750:	04000008 	streq	r0, [r0], #-8
87807754:	02000010 	andeq	r0, r0, #16
	...
878077a0:	02000010 	andeq	r0, r0, #16
878077a4:	04000008 	streq	r0, [r0], #-8
878077a8:	08000004 	stmdaeq	r0, {r2}
878077ac:	30000003 	andcc	r0, r0, r3
878077b0:	e000c001 	and	ip, r0, r1
878077b4:	c0077800 	andgt	r7, r7, r0, lsl #16
878077b8:	00ff3f00 	rscseq	r3, pc, r0, lsl #30
878077bc:	00f80700 	rscseq	r0, r8, r0, lsl #14
	...
87807824:	00180c00 	andseq	r0, r8, r0, lsl #24
87807828:	00380e00 	eorseq	r0, r8, r0, lsl #28
8780782c:	00380e00 	eorseq	r0, r8, r0, lsl #28
87807830:	00300600 	eorseq	r0, r0, r0, lsl #12
87807834:	00600300 	rsbeq	r0, r0, r0, lsl #6
87807838:	80436100 	subhi	r6, r3, r0, lsl #2
8780783c:	80ffff00 	rscshi	pc, pc, r0, lsl #30
87807840:	00436100 	subeq	r6, r3, r0, lsl #2
87807844:	00600300 	rsbeq	r0, r0, r0, lsl #6
87807848:	00300600 	eorseq	r0, r0, r0, lsl #12
8780784c:	00380e00 	eorseq	r0, r8, r0, lsl #28
87807850:	00380e00 	eorseq	r0, r8, r0, lsl #28
87807854:	00180c00 	andseq	r0, r8, r0, lsl #24
	...
878078a4:	00800000 	addeq	r0, r0, r0
878078a8:	00800000 	addeq	r0, r0, r0
878078ac:	00800000 	addeq	r0, r0, r0
878078b0:	00800000 	addeq	r0, r0, r0
878078b4:	00800000 	addeq	r0, r0, r0
878078b8:	00800000 	addeq	r0, r0, r0
878078bc:	00ff7f00 	rscseq	r7, pc, r0, lsl #30
878078c0:	00800000 	addeq	r0, r0, r0
878078c4:	00800000 	addeq	r0, r0, r0
878078c8:	00800000 	addeq	r0, r0, r0
878078cc:	00800000 	addeq	r0, r0, r0
878078d0:	00800000 	addeq	r0, r0, r0
878078d4:	00800000 	addeq	r0, r0, r0
	...
87807920:	01000000 	mrseq	r0, (UNDEF: 0)
87807924:	e3000000 	movw	r0, #0
87807928:	e2000000 	and	r0, r0, #0
8780792c:	fc000000 	stc2	0, cr0, [r0], {-0}
87807930:	78000000 	stmdavc	r0, {}	; <UNPREDICTABLE>
	...
878079a0:	00800000 	addeq	r0, r0, r0
878079a4:	00800000 	addeq	r0, r0, r0
878079a8:	00800000 	addeq	r0, r0, r0
878079ac:	00800000 	addeq	r0, r0, r0
878079b0:	00800000 	addeq	r0, r0, r0
878079b4:	00800000 	addeq	r0, r0, r0
878079b8:	00800000 	addeq	r0, r0, r0
878079bc:	00800000 	addeq	r0, r0, r0
878079c0:	00800000 	addeq	r0, r0, r0
878079c4:	00800000 	addeq	r0, r0, r0
878079c8:	00800000 	addeq	r0, r0, r0
878079cc:	00800000 	addeq	r0, r0, r0
878079d0:	00800000 	addeq	r0, r0, r0
878079d4:	00800000 	addeq	r0, r0, r0
	...
87807a24:	c0000000 	andgt	r0, r0, r0
87807a28:	e0010000 	and	r0, r1, r0
87807a2c:	e0010000 	and	r0, r1, r0
87807a30:	c0000000 	andgt	r0, r0, r0
	...
87807aa0:	0c000000 	stceq	0, cr0, [r0], {-0}
87807aa4:	38000000 	stmdacc	r0, {}	; <UNPREDICTABLE>
87807aa8:	e0000000 	and	r0, r0, r0
87807aac:	80030000 	andhi	r0, r3, r0
87807ab0:	000e0000 	andeq	r0, lr, r0
87807ab4:	00380000 	eorseq	r0, r8, r0
87807ab8:	00e00000 	rsceq	r0, r0, r0
87807abc:	00800300 	addeq	r0, r0, r0, lsl #6
87807ac0:	00000e00 	andeq	r0, r0, r0, lsl #28
87807ac4:	00003800 	andeq	r3, r0, r0, lsl #16
87807ac8:	0000e000 	andeq	lr, r0, r0
87807acc:	00008003 	andeq	r8, r0, r3
87807ad0:	0000000e 	andeq	r0, r0, lr
87807ad4:	00000018 	andeq	r0, r0, r8, lsl r0
	...
87807b24:	00f80f00 	rscseq	r0, r8, r0, lsl #30
87807b28:	00ff7f00 	rscseq	r7, pc, r0, lsl #30
87807b2c:	8007f000 	andhi	pc, r7, r0
87807b30:	c0008001 	andgt	r8, r0, r1
87807b34:	60000003 	andvs	r0, r0, r3
87807b38:	20000002 	andcs	r0, r0, r2
87807b3c:	20000002 	andcs	r0, r0, r2
87807b40:	20000002 	andcs	r0, r0, r2
87807b44:	60000003 	andvs	r0, r0, r3
87807b48:	c0008001 	andgt	r8, r0, r1
87807b4c:	8003e000 	andhi	lr, r3, r0
87807b50:	00ff7f00 	rscseq	r7, pc, r0, lsl #30
87807b54:	00f80f00 	rscseq	r0, r8, r0, lsl #30
	...
87807ba8:	20008000 	andcs	r8, r0, r0
87807bac:	20008000 	andcs	r8, r0, r0
87807bb0:	20008000 	andcs	r8, r0, r0
87807bb4:	60008000 	andvs	r8, r0, r0
87807bb8:	e0ffff01 	rscs	pc, pc, r1, lsl #30
87807bbc:	e0ffff03 	rscs	pc, pc, r3, lsl #30
87807bc0:	60000000 	andvs	r0, r0, r0
87807bc4:	20000000 	andcs	r0, r0, r0
87807bc8:	20000000 	andcs	r0, r0, r0
87807bcc:	20000000 	andcs	r0, r0, r0
	...
87807c24:	e0007800 	and	r7, r0, r0, lsl #16
87807c28:	60019800 	andvs	r9, r1, r0, lsl #16
87807c2c:	60020001 	andvs	r0, r2, r1
87807c30:	60040002 	andvs	r0, r4, r2
87807c34:	60080002 	andvs	r0, r8, r2
87807c38:	60100002 	andsvs	r0, r0, r2
87807c3c:	60200002 	eorvs	r0, r0, r2
87807c40:	60400002 	subvs	r0, r0, r2
87807c44:	60800003 	addvs	r0, r0, r3
87807c48:	60008301 	andvs	r8, r0, r1, lsl #6
87807c4c:	e000fe01 	and	pc, r0, r1, lsl #28
87807c50:	80077c00 	andhi	r7, r7, r0, lsl #24
	...
87807ca4:	8007f000 	andhi	pc, r7, r0
87807ca8:	c007f001 	andgt	pc, r7, r1
87807cac:	40000001 	andmi	r0, r0, r1
87807cb0:	20000002 	andcs	r0, r0, r2
87807cb4:	20000102 	andcs	r0, r0, r2, lsl #2
87807cb8:	20000102 	andcs	r0, r0, r2, lsl #2
87807cbc:	20000102 	andcs	r0, r0, r2, lsl #2
87807cc0:	20800303 	addcs	r0, r0, r3, lsl #6
87807cc4:	40808601 	addmi	r8, r0, r1, lsl #12
87807cc8:	c0c0fc01 	sbcgt	pc, r0, r1, lsl #24
87807ccc:	807f7800 	rsbshi	r7, pc, r0, lsl #16
87807cd0:	001e0000 	andseq	r0, lr, r0
	...
87807d20:	00080000 	andeq	r0, r8, r0
87807d24:	00380000 	eorseq	r0, r8, r0
87807d28:	00480000 	subeq	r0, r8, r0
87807d2c:	00880100 	addeq	r0, r8, r0, lsl #2
87807d30:	00080600 	andeq	r0, r8, r0, lsl #12
87807d34:	10080c00 	andne	r0, r8, r0, lsl #24
87807d38:	10083000 	andne	r3, r8, r0
87807d3c:	10084000 	andne	r4, r8, r0
87807d40:	f0ffff01 			; <UNDEFINED> instruction: 0xf0ffff01
87807d44:	f0ffff03 			; <UNDEFINED> instruction: 0xf0ffff03
87807d48:	f0ffff03 			; <UNDEFINED> instruction: 0xf0ffff03
87807d4c:	10080000 	andne	r0, r8, r0
87807d50:	10080000 	andne	r0, r8, r0
87807d54:	10080000 	andne	r0, r8, r0
	...
87807da4:	80070000 	andhi	r0, r7, r0
87807da8:	40861f00 	addmi	r1, r6, r0, lsl #30
87807dac:	2000e103 	andcs	lr, r0, r3, lsl #2
87807db0:	20000203 	andcs	r0, r0, r3, lsl #4
87807db4:	20000403 	andcs	r0, r0, r3, lsl #8
87807db8:	20000403 	andcs	r0, r0, r3, lsl #8
87807dbc:	20000403 	andcs	r0, r0, r3, lsl #8
87807dc0:	20000403 	andcs	r0, r0, r3, lsl #8
87807dc4:	40000603 	andmi	r0, r0, r3, lsl #12
87807dc8:	c0010303 	andgt	r0, r1, r3, lsl #6
87807dcc:	80ff0103 	rscshi	r0, pc, r3, lsl #2
87807dd0:	007e0003 	rsbseq	r0, lr, r3
	...
87807e24:	00fc0700 	rscseq	r0, ip, r0, lsl #14
87807e28:	00ff3f00 	rscseq	r3, pc, r0, lsl #30
87807e2c:	80c37000 	sbchi	r7, r3, r0
87807e30:	c0808100 	addgt	r8, r0, r0, lsl #2
87807e34:	60000101 	andvs	r0, r0, r1, lsl #2
87807e38:	20000203 	andcs	r0, r0, r3, lsl #4
87807e3c:	20000202 	andcs	r0, r0, r2, lsl #4
87807e40:	20000202 	andcs	r0, r0, r2, lsl #4
87807e44:	20000202 	andcs	r0, r0, r2, lsl #4
87807e48:	40000302 	andmi	r0, r0, r2, lsl #6
87807e4c:	c080c101 	addgt	ip, r0, r1, lsl #2
87807e50:	80ffc000 	rscshi	ip, pc, r0
87807e54:	007e0000 	rsbseq	r0, lr, r0
	...
87807ea4:	0000f000 	andeq	pc, r0, r0
87807ea8:	0000c003 	andeq	ip, r0, r3
87807eac:	00008003 	andeq	r8, r0, r3
87807eb0:	00000003 	andeq	r0, r0, r3
87807eb4:	e0070003 	and	r0, r7, r3
87807eb8:	e03f0003 	eors	r0, pc, r3
87807ebc:	00c00103 	sbceq	r0, r0, r3, lsl #2
87807ec0:	00000603 	andeq	r0, r0, r3, lsl #12
87807ec4:	00001803 	andeq	r1, r0, r3, lsl #16
87807ec8:	00006003 	andeq	r6, r0, r3
87807ecc:	00008003 	andeq	r8, r0, r3
87807ed0:	00000003 	andeq	r0, r0, r3
	...
87807f20:	001f0000 	andseq	r0, pc, r0
87807f24:	803f7800 	eorshi	r7, pc, r0, lsl #16
87807f28:	c060fc00 	rsbgt	pc, r0, r0, lsl #24
87807f2c:	40c08e01 	sbcmi	r8, r0, r1, lsl #28
87807f30:	20800703 	addcs	r0, r0, r3, lsl #14
87807f34:	20000302 	andcs	r0, r0, r2, lsl #6
87807f38:	20800102 	addcs	r0, r0, r2, lsl #2
87807f3c:	20800102 	addcs	r0, r0, r2, lsl #2
87807f40:	20c00102 	sbccs	r0, r0, r2, lsl #2
87807f44:	40e00103 	rscmi	r0, r0, r3, lsl #2
87807f48:	c0708601 	rsbsgt	r8, r0, r1, lsl #12
87807f4c:	803ffc00 	eorshi	pc, pc, r0, lsl #24
87807f50:	001f7800 	andseq	r7, pc, r0, lsl #16
	...
87807fa0:	00003f00 	andeq	r3, r0, r0, lsl #30
87807fa4:	c081ff00 	addgt	pc, r1, r0, lsl #30
87807fa8:	c0c1c001 	sbcgt	ip, r1, r1
87807fac:	20600001 	rsbcs	r0, r0, r1
87807fb0:	20200002 	eorcs	r0, r0, r2
87807fb4:	20200002 	eorcs	r0, r0, r2
87807fb8:	20200002 	eorcs	r0, r0, r2
87807fbc:	60200002 	eorvs	r0, r0, r2
87807fc0:	c0400002 	subgt	r0, r0, r2
87807fc4:	80c10001 	sbchi	r0, r1, r1
87807fc8:	008fc100 	addeq	ip, pc, r0, lsl #2
87807fcc:	00fe7f00 	rscseq	r7, lr, r0, lsl #30
87807fd0:	00f01f00 	rscseq	r1, r0, r0, lsl #30
	...
87808034:	c0000300 	andgt	r0, r0, r0, lsl #6
87808038:	e0810700 	add	r0, r1, r0, lsl #14
8780803c:	e0810700 	add	r0, r1, r0, lsl #14
87808040:	c0000300 	andgt	r0, r0, r0, lsl #6
	...
878080b4:	66000600 	strvs	r0, [r0], -r0, lsl #12
878080b8:	78000600 	stmdavc	r0, {r9, sl}
	...
87808124:	00800000 	addeq	r0, r0, r0
87808128:	00c00100 	sbceq	r0, r0, r0, lsl #2
8780812c:	00600300 	rsbeq	r0, r0, r0, lsl #6
87808130:	00300600 	eorseq	r0, r0, r0, lsl #12
87808134:	00180c00 	andseq	r0, r8, r0, lsl #24
87808138:	000c1800 	andeq	r1, ip, r0, lsl #16
8780813c:	00063000 	andeq	r3, r6, r0
87808140:	00036000 	andeq	r6, r3, r0
87808144:	8001c000 	andhi	ip, r1, r0
87808148:	40000001 	andmi	r0, r0, r1
8780814c:	20000002 	andcs	r0, r0, r2
87808150:	10000004 	andne	r0, r0, r4
	...
878081a0:	00100400 	andseq	r0, r0, r0, lsl #8
878081a4:	00100400 	andseq	r0, r0, r0, lsl #8
878081a8:	00100400 	andseq	r0, r0, r0, lsl #8
878081ac:	00100400 	andseq	r0, r0, r0, lsl #8
878081b0:	00100400 	andseq	r0, r0, r0, lsl #8
878081b4:	00100400 	andseq	r0, r0, r0, lsl #8
878081b8:	00100400 	andseq	r0, r0, r0, lsl #8
878081bc:	00100400 	andseq	r0, r0, r0, lsl #8
878081c0:	00100400 	andseq	r0, r0, r0, lsl #8
878081c4:	00100400 	andseq	r0, r0, r0, lsl #8
878081c8:	00100400 	andseq	r0, r0, r0, lsl #8
878081cc:	00100400 	andseq	r0, r0, r0, lsl #8
878081d0:	00100400 	andseq	r0, r0, r0, lsl #8
878081d4:	00100400 	andseq	r0, r0, r0, lsl #8
	...
87808224:	10000004 	andne	r0, r0, r4
87808228:	20000002 	andcs	r0, r0, r2
8780822c:	40000001 	andmi	r0, r0, r1
87808230:	8001c000 	andhi	ip, r1, r0
87808234:	00036000 	andeq	r6, r3, r0
87808238:	00063000 	andeq	r3, r6, r0
8780823c:	000c1800 	andeq	r1, ip, r0, lsl #16
87808240:	00180c00 	andseq	r0, r8, r0, lsl #24
87808244:	00300600 	eorseq	r0, r0, r0, lsl #12
87808248:	00600300 	rsbeq	r0, r0, r0, lsl #6
8780824c:	00c00100 	sbceq	r0, r0, r0, lsl #2
87808250:	00800000 	addeq	r0, r0, r0
	...
878082a4:	00007800 	andeq	r7, r0, r0, lsl #16
878082a8:	0000f801 	andeq	pc, r0, r1, lsl #16
878082ac:	00003802 	andeq	r3, r0, r2, lsl #16
878082b0:	00000002 	andeq	r0, r0, r2
878082b4:	c0000004 	andgt	r0, r0, r4
878082b8:	e0790004 	rsbs	r0, r9, r4
878082bc:	e0810004 	add	r0, r1, r4
878082c0:	c0000104 	andgt	r0, r0, r4, lsl #2
878082c4:	00000304 	andeq	r0, r0, r4, lsl #6
878082c8:	00000202 	andeq	r0, r0, r2, lsl #4
878082cc:	00000603 	andeq	r0, r0, r3, lsl #12
878082d0:	0000fc01 	andeq	pc, r0, r1, lsl #24
878082d4:	0000f800 	andeq	pc, r0, r0, lsl #16
	...
87808320:	00f80f00 	rscseq	r0, r8, r0, lsl #30
87808324:	00fe3f00 	rscseq	r3, lr, r0, lsl #30
87808328:	80077000 	andhi	r7, r7, r0
8780832c:	c000c000 	andgt	ip, r0, r0
87808330:	40f80101 	rscsmi	r0, r8, r1, lsl #2
87808334:	20fc0703 	rscscs	r0, ip, r3, lsl #14
87808338:	20041e02 	andcs	r1, r4, r2, lsl #28
8780833c:	20083002 	andcs	r3, r8, r2
87808340:	20302002 	eorscs	r2, r0, r2
87808344:	20fc3f02 	rscscs	r3, ip, r2, lsl #30
87808348:	40043f01 	andmi	r3, r4, r1, lsl #30
8780834c:	c00c8001 	andgt	r8, ip, r1
87808350:	8031e000 	eorshi	lr, r1, r0
87808354:	00c21f00 	sbceq	r1, r2, r0, lsl #30
	...
8780839c:	20000000 	andcs	r0, r0, r0
878083a0:	60000000 	andvs	r0, r0, r0
878083a4:	e0030000 	and	r0, r3, r0
878083a8:	203e0000 	eorscs	r0, lr, r0
878083ac:	20e00300 	rsccs	r0, r0, r0, lsl #6
878083b0:	00203e00 	eoreq	r3, r0, r0, lsl #28
878083b4:	0020e003 	eoreq	lr, r0, r3
878083b8:	00208003 	eoreq	r8, r0, r3
878083bc:	0020fc07 	eoreq	pc, r0, r7, lsl #24
878083c0:	00e03f00 	rsceq	r3, r0, r0, lsl #30
878083c4:	20fe0300 	rscscs	r0, lr, r0, lsl #6
878083c8:	e03f0000 	eors	r0, pc, r0
878083cc:	e0010000 	and	r0, r1, r0
878083d0:	20000000 	andcs	r0, r0, r0
878083d4:	20000000 	andcs	r0, r0, r0
	...
87808420:	20000002 	andcs	r0, r0, r2
87808424:	20000002 	andcs	r0, r0, r2
87808428:	e0ffff03 	rscs	pc, pc, r3, lsl #30
8780842c:	e0ffff03 	rscs	pc, pc, r3, lsl #30
87808430:	20000102 	andcs	r0, r0, r2, lsl #2
87808434:	20000102 	andcs	r0, r0, r2, lsl #2
87808438:	20000102 	andcs	r0, r0, r2, lsl #2
8780843c:	20000102 	andcs	r0, r0, r2, lsl #2
87808440:	20000102 	andcs	r0, r0, r2, lsl #2
87808444:	20000303 	andcs	r0, r0, r3, lsl #6
87808448:	60808601 	addvs	r8, r0, r1, lsl #12
8780844c:	c0c0fc01 	sbcgt	pc, r0, r1, lsl #24
87808450:	807ff800 	rsbshi	pc, pc, r0, lsl #16
87808454:	001f0000 	andseq	r0, pc, r0
	...
878084a0:	00f80700 	rscseq	r0, r8, r0, lsl #14
878084a4:	00ff3f00 	rscseq	r3, pc, r0, lsl #30
878084a8:	80077000 	andhi	r7, r7, r0
878084ac:	c000c000 	andgt	ip, r0, r0
878084b0:	40000001 	andmi	r0, r0, r1
878084b4:	20000003 	andcs	r0, r0, r3
878084b8:	20000002 	andcs	r0, r0, r2
878084bc:	20000002 	andcs	r0, r0, r2
878084c0:	20000002 	andcs	r0, r0, r2
878084c4:	20000002 	andcs	r0, r0, r2
878084c8:	40000001 	andmi	r0, r0, r1
878084cc:	c0008001 	andgt	r8, r0, r1
878084d0:	8001c003 	andhi	ip, r1, r3
878084d4:	00063000 	andeq	r3, r6, r0
	...
87808520:	20000002 	andcs	r0, r0, r2
87808524:	20000002 	andcs	r0, r0, r2
87808528:	e0ffff03 	rscs	pc, pc, r3, lsl #30
8780852c:	e0ffff03 	rscs	pc, pc, r3, lsl #30
87808530:	20000002 	andcs	r0, r0, r2
87808534:	20000002 	andcs	r0, r0, r2
87808538:	20000002 	andcs	r0, r0, r2
8780853c:	20000002 	andcs	r0, r0, r2
87808540:	60000003 	andvs	r0, r0, r3
87808544:	40000001 	andmi	r0, r0, r1
87808548:	c0008001 	andgt	r8, r0, r1
8780854c:	8007f000 	andhi	pc, r7, r0
87808550:	00fe7f00 	rscseq	r7, lr, r0, lsl #30
87808554:	00f80f00 	rscseq	r0, r8, r0, lsl #30
	...
878085a0:	20000002 	andcs	r0, r0, r2
878085a4:	20000002 	andcs	r0, r0, r2
878085a8:	e0ffff03 	rscs	pc, pc, r3, lsl #30
878085ac:	e0ffff03 	rscs	pc, pc, r3, lsl #30
878085b0:	20000102 	andcs	r0, r0, r2, lsl #2
878085b4:	20000102 	andcs	r0, r0, r2, lsl #2
878085b8:	20000102 	andcs	r0, r0, r2, lsl #2
878085bc:	20000102 	andcs	r0, r0, r2, lsl #2
878085c0:	20000102 	andcs	r0, r0, r2, lsl #2
878085c4:	20800302 	addcs	r0, r0, r2, lsl #6
878085c8:	20e00f02 	rsccs	r0, r0, r2, lsl #30
878085cc:	60000003 	andvs	r0, r0, r3
878085d0:	e000c003 	and	ip, r0, r3
878085d4:	00036000 	andeq	r6, r3, r0
	...
87808620:	20000002 	andcs	r0, r0, r2
87808624:	20000002 	andcs	r0, r0, r2
87808628:	e0ffff03 	rscs	pc, pc, r3, lsl #30
8780862c:	e0ffff03 	rscs	pc, pc, r3, lsl #30
87808630:	20000102 	andcs	r0, r0, r2, lsl #2
87808634:	20000102 	andcs	r0, r0, r2, lsl #2
87808638:	00000102 	andeq	r0, r0, r2, lsl #2
8780863c:	00000102 	andeq	r0, r0, r2, lsl #2
87808640:	00000102 	andeq	r0, r0, r2, lsl #2
87808644:	00000102 	andeq	r0, r0, r2, lsl #2
87808648:	00800302 	addeq	r0, r0, r2, lsl #6
8780864c:	00e00f03 	rsceq	r0, r0, r3, lsl #30
87808650:	00000003 	andeq	r0, r0, r3
87808654:	0000c003 	andeq	ip, r0, r3
87808658:	00006000 	andeq	r6, r0, r0
	...
878086a0:	00f80700 	rscseq	r0, r8, r0, lsl #14
878086a4:	00fe3f00 	rscseq	r3, lr, r0, lsl #30
878086a8:	80077000 	andhi	r7, r7, r0
878086ac:	c001c001 	andgt	ip, r1, r1
878086b0:	40000001 	andmi	r0, r0, r1
878086b4:	20000003 	andcs	r0, r0, r3
878086b8:	20000002 	andcs	r0, r0, r2
878086bc:	20000002 	andcs	r0, r0, r2
878086c0:	20000002 	andcs	r0, r0, r2
878086c4:	20200001 	eorcs	r0, r0, r1
878086c8:	40200001 	eormi	r0, r0, r1
878086cc:	803fc003 	eorshi	ip, pc, r3
878086d0:	803f3000 	eorshi	r3, pc, r0
878086d4:	00200000 	eoreq	r0, r0, r0
878086d8:	00200000 	eoreq	r0, r0, r0
	...
8780871c:	20000002 	andcs	r0, r0, r2
87808720:	20000002 	andcs	r0, r0, r2
87808724:	e0ffff03 	rscs	pc, pc, r3, lsl #30
87808728:	e0ffff03 	rscs	pc, pc, r3, lsl #30
8780872c:	20800002 	addcs	r0, r0, r2
87808730:	20800002 	addcs	r0, r0, r2
87808734:	00800000 	addeq	r0, r0, r0
87808738:	00800000 	addeq	r0, r0, r0
8780873c:	00800000 	addeq	r0, r0, r0
87808740:	20800002 	addcs	r0, r0, r2
87808744:	20800002 	addcs	r0, r0, r2
87808748:	e0ffff03 	rscs	pc, pc, r3, lsl #30
8780874c:	e0ffff03 	rscs	pc, pc, r3, lsl #30
87808750:	20000002 	andcs	r0, r0, r2
87808754:	20000002 	andcs	r0, r0, r2
	...
878087a8:	20000002 	andcs	r0, r0, r2
878087ac:	20000002 	andcs	r0, r0, r2
878087b0:	20000002 	andcs	r0, r0, r2
878087b4:	20000002 	andcs	r0, r0, r2
878087b8:	e0ffff03 	rscs	pc, pc, r3, lsl #30
878087bc:	e0ffff03 	rscs	pc, pc, r3, lsl #30
878087c0:	20000002 	andcs	r0, r0, r2
878087c4:	20000002 	andcs	r0, r0, r2
878087c8:	20000002 	andcs	r0, r0, r2
878087cc:	20000002 	andcs	r0, r0, r2
	...
87808820:	0e000000 	cdpeq	0, 0, cr0, cr0, cr0, {0}
87808824:	0f000000 	svceq	0x00000000
87808828:	0f000000 	svceq	0x00000000
8780882c:	01000000 	mrseq	r0, (UNDEF: 0)
87808830:	01000002 	tsteq	r0, r2
87808834:	01000002 	tsteq	r0, r2
87808838:	03000002 	movweq	r0, #2
8780883c:	06000002 	streq	r0, [r0], -r2
87808840:	fcffff03 	ldc2l	15, cr15, [pc], #12	; 87808854 <asc2_3216+0x1538>
87808844:	f8ffff03 			; <UNDEFINED> instruction: 0xf8ffff03
87808848:	00000002 	andeq	r0, r0, r2
8780884c:	00000002 	andeq	r0, r0, r2
87808850:	00000002 	andeq	r0, r0, r2
87808854:	00000002 	andeq	r0, r0, r2
	...
878088a0:	20000002 	andcs	r0, r0, r2
878088a4:	20000002 	andcs	r0, r0, r2
878088a8:	e0ffff03 	rscs	pc, pc, r3, lsl #30
878088ac:	e0ffff03 	rscs	pc, pc, r3, lsl #30
878088b0:	20c00002 	sbccs	r0, r0, r2
878088b4:	20000102 	andcs	r0, r0, r2, lsl #2
878088b8:	00800700 	addeq	r0, r0, r0, lsl #14
878088bc:	00e00f00 	rsceq	r0, r0, r0, lsl #30
878088c0:	00f83000 	rscseq	r3, r8, r0
878088c4:	203e6002 	eorscs	r6, lr, r2
878088c8:	200f8003 	andcs	r8, pc, r3
878088cc:	e0030003 	and	r0, r3, r3
878088d0:	e0000002 	and	r0, r0, r2
878088d4:	20000002 	andcs	r0, r0, r2
878088d8:	20000000 	andcs	r0, r0, r0
	...
87808920:	20000002 	andcs	r0, r0, r2
87808924:	20000002 	andcs	r0, r0, r2
87808928:	e0ffff03 	rscs	pc, pc, r3, lsl #30
8780892c:	e0ffff03 	rscs	pc, pc, r3, lsl #30
87808930:	20000002 	andcs	r0, r0, r2
87808934:	20000002 	andcs	r0, r0, r2
87808938:	20000000 	andcs	r0, r0, r0
8780893c:	20000000 	andcs	r0, r0, r0
87808940:	20000000 	andcs	r0, r0, r0
87808944:	20000000 	andcs	r0, r0, r0
87808948:	20000000 	andcs	r0, r0, r0
8780894c:	60000000 	andvs	r0, r0, r0
87808950:	e0000000 	and	r0, r0, r0
87808954:	00030000 	andeq	r0, r3, r0
	...
8780899c:	20000002 	andcs	r0, r0, r2
878089a0:	20000002 	andcs	r0, r0, r2
878089a4:	e0ffff03 	rscs	pc, pc, r3, lsl #30
878089a8:	2000e003 	andcs	lr, r0, r3
878089ac:	2000ff03 	andcs	pc, r0, r3, lsl #30
878089b0:	00f01f00 	rscseq	r1, r0, r0, lsl #30
878089b4:	80ff0100 	rscshi	r0, pc, r0, lsl #2
878089b8:	e00f0000 	and	r0, pc, r0
878089bc:	001e0000 	andseq	r0, lr, r0
878089c0:	00e00300 	rsceq	r0, r0, r0, lsl #6
878089c4:	20003e00 	andcs	r3, r0, r0, lsl #28
878089c8:	2000e003 	andcs	lr, r0, r3
878089cc:	e0ffff03 	rscs	pc, pc, r3, lsl #30
878089d0:	e0ffff03 	rscs	pc, pc, r3, lsl #30
878089d4:	20000002 	andcs	r0, r0, r2
878089d8:	20000002 	andcs	r0, r0, r2
	...
87808a1c:	20000002 	andcs	r0, r0, r2
87808a20:	20000002 	andcs	r0, r0, r2
87808a24:	e0ffff03 	rscs	pc, pc, r3, lsl #30
87808a28:	20008003 	andcs	r8, r0, r3
87808a2c:	2000f003 	andcs	pc, r0, r3
87808a30:	0000fc00 	andeq	pc, r0, r0, lsl #24
87808a34:	00001f00 	andeq	r1, r0, r0, lsl #30
87808a38:	00c00700 	sbceq	r0, r0, r0, lsl #14
87808a3c:	00f00100 	rscseq	r0, r0, r0, lsl #2
87808a40:	007c0000 	rsbseq	r0, ip, r0
87808a44:	801f0002 	andshi	r0, pc, r2
87808a48:	e0070002 	and	r0, r7, r2
87808a4c:	e0ffff03 	rscs	pc, pc, r3, lsl #30
87808a50:	00000002 	andeq	r0, r0, r2
87808a54:	00000002 	andeq	r0, r0, r2
	...
87808aa0:	00f80f00 	rscseq	r0, r8, r0, lsl #30
87808aa4:	00fe3f00 	rscseq	r3, lr, r0, lsl #30
87808aa8:	8007f000 	andhi	pc, r7, r0
87808aac:	c0008001 	andgt	r8, r0, r1
87808ab0:	40000001 	andmi	r0, r0, r1
87808ab4:	20000002 	andcs	r0, r0, r2
87808ab8:	20000002 	andcs	r0, r0, r2
87808abc:	20000002 	andcs	r0, r0, r2
87808ac0:	20000002 	andcs	r0, r0, r2
87808ac4:	40000001 	andmi	r0, r0, r1
87808ac8:	c0008001 	andgt	r8, r0, r1
87808acc:	8003f000 	andhi	pc, r3, r0
87808ad0:	00fe3f00 	rscseq	r3, lr, r0, lsl #30
87808ad4:	00f80f00 	rscseq	r0, r8, r0, lsl #30
	...
87808b20:	20000002 	andcs	r0, r0, r2
87808b24:	20000002 	andcs	r0, r0, r2
87808b28:	e0ffff03 	rscs	pc, pc, r3, lsl #30
87808b2c:	e0ffff03 	rscs	pc, pc, r3, lsl #30
87808b30:	20800002 	addcs	r0, r0, r2
87808b34:	20800002 	addcs	r0, r0, r2
87808b38:	00800002 	addeq	r0, r0, r2
87808b3c:	00800002 	addeq	r0, r0, r2
87808b40:	00800002 	addeq	r0, r0, r2
87808b44:	00800002 	addeq	r0, r0, r2
87808b48:	00800103 	addeq	r0, r0, r3, lsl #2
87808b4c:	00008301 	andeq	r8, r0, r1, lsl #6
87808b50:	0000fe00 	andeq	pc, r0, r0, lsl #28
87808b54:	00007c00 	andeq	r7, r0, r0, lsl #24
	...
87808ba0:	00f80f00 	rscseq	r0, r8, r0, lsl #30
87808ba4:	00ff7f00 	rscseq	r7, pc, r0, lsl #30
87808ba8:	8003f000 	andhi	pc, r3, r0
87808bac:	c0018001 	andgt	r8, r1, r1
87808bb0:	40060001 	andmi	r0, r6, r1
87808bb4:	20040002 	andcs	r0, r4, r2
87808bb8:	20040002 	andcs	r0, r4, r2
87808bbc:	20060002 	andcs	r0, r6, r2
87808bc0:	e0030002 	and	r0, r3, r2
87808bc4:	f8000001 			; <UNDEFINED> instruction: 0xf8000001
87808bc8:	5c008001 	stcpl	0, cr8, [r0], {1}
87808bcc:	8c03e000 	stchi	0, cr14, [r3], {-0}
87808bd0:	0cff3f00 	ldcleq	15, cr3, [pc]	; 87808bd8 <asc2_3216+0x18bc>
87808bd4:	18fc0f00 	ldmne	ip!, {r8, r9, sl, fp}^
	...
87808c20:	20000002 	andcs	r0, r0, r2
87808c24:	20000002 	andcs	r0, r0, r2
87808c28:	e0ffff03 	rscs	pc, pc, r3, lsl #30
87808c2c:	e0ffff03 	rscs	pc, pc, r3, lsl #30
87808c30:	20000102 	andcs	r0, r0, r2, lsl #2
87808c34:	20000102 	andcs	r0, r0, r2, lsl #2
87808c38:	00800102 	addeq	r0, r0, r2, lsl #2
87808c3c:	00e00102 	rsceq	r0, r0, r2, lsl #2
87808c40:	00fc0102 	rscseq	r0, ip, r2, lsl #2
87808c44:	803f0303 	eorshi	r0, pc, r3, lsl #6
87808c48:	e0078601 	and	r8, r7, r1, lsl #12
87808c4c:	e000fc01 	and	pc, r0, r1, lsl #24
87808c50:	2000f800 	andcs	pc, r0, r0, lsl #16
87808c54:	20000000 	andcs	r0, r0, r0
	...
87808ca4:	00067800 	andeq	r7, r6, r0, lsl #16
87808ca8:	e001fe00 	and	pc, r1, r0, lsl #28
87808cac:	c0008601 	andgt	r8, r0, r1, lsl #12
87808cb0:	40000303 	andmi	r0, r0, r3, lsl #6
87808cb4:	20000302 	andcs	r0, r0, r2, lsl #6
87808cb8:	20800102 	addcs	r0, r0, r2, lsl #2
87808cbc:	20800102 	addcs	r0, r0, r2, lsl #2
87808cc0:	20c00102 	sbccs	r0, r0, r2, lsl #2
87808cc4:	20c00002 	sbccs	r0, r0, r2
87808cc8:	60e00001 	rscvs	r0, r0, r1
87808ccc:	c0708001 	rsbsgt	r8, r0, r1
87808cd0:	803fe003 	eorshi	lr, pc, r3
87808cd4:	001f0000 	andseq	r0, pc, r0
	...
87808d20:	00006000 	andeq	r6, r0, r0
87808d24:	00008003 	andeq	r8, r0, r3
87808d28:	00000003 	andeq	r0, r0, r3
87808d2c:	00000002 	andeq	r0, r0, r2
87808d30:	20000002 	andcs	r0, r0, r2
87808d34:	20000002 	andcs	r0, r0, r2
87808d38:	e0ffff03 	rscs	pc, pc, r3, lsl #30
87808d3c:	e0ffff03 	rscs	pc, pc, r3, lsl #30
87808d40:	20000002 	andcs	r0, r0, r2
87808d44:	20000002 	andcs	r0, r0, r2
87808d48:	00000002 	andeq	r0, r0, r2
87808d4c:	00000002 	andeq	r0, r0, r2
87808d50:	00008003 	andeq	r8, r0, r3
87808d54:	0000e000 	andeq	lr, r0, r0
	...
87808d9c:	00000002 	andeq	r0, r0, r2
87808da0:	00000002 	andeq	r0, r0, r2
87808da4:	00ffff03 	rscseq	pc, pc, r3, lsl #30
87808da8:	c0ffff03 	rscsgt	pc, pc, r3, lsl #30
87808dac:	40000002 	andmi	r0, r0, r2
87808db0:	60000002 	andvs	r0, r0, r2
87808db4:	20000000 	andcs	r0, r0, r0
87808db8:	20000000 	andcs	r0, r0, r0
87808dbc:	20000000 	andcs	r0, r0, r0
87808dc0:	20000000 	andcs	r0, r0, r0
87808dc4:	40000002 	andmi	r0, r0, r2
87808dc8:	80000002 	andhi	r0, r0, r2
87808dcc:	00ffff03 	rscseq	pc, pc, r3, lsl #30
87808dd0:	00000002 	andeq	r0, r0, r2
87808dd4:	00000002 	andeq	r0, r0, r2
	...
87808e20:	00000002 	andeq	r0, r0, r2
87808e24:	00000002 	andeq	r0, r0, r2
87808e28:	0000c003 	andeq	ip, r0, r3
87808e2c:	0000fc03 	andeq	pc, r0, r3, lsl #24
87808e30:	00c03f02 	sbceq	r3, r0, r2, lsl #30
87808e34:	00f80300 	rscseq	r0, r8, r0, lsl #6
87808e38:	807f0000 	rsbshi	r0, pc, r0
87808e3c:	e0070000 	and	r0, r7, r0
87808e40:	80070000 	andhi	r0, r7, r0
87808e44:	00780000 	rsbseq	r0, r8, r0
87808e48:	00c00302 	sbceq	r0, r0, r2, lsl #6
87808e4c:	00003c02 	andeq	r3, r0, r2, lsl #24
87808e50:	0000c003 	andeq	ip, r0, r3
87808e54:	00000002 	andeq	r0, r0, r2
87808e58:	00000002 	andeq	r0, r0, r2
	...
87808e9c:	00000002 	andeq	r0, r0, r2
87808ea0:	0000c003 	andeq	ip, r0, r3
87808ea4:	0080ff03 	addeq	pc, r0, r3, lsl #30
87808ea8:	00fe3f02 	rscseq	r3, lr, r2, lsl #30
87808eac:	e07f0002 	rsbs	r0, pc, r2
87808eb0:	000f0000 	andeq	r0, pc, r0
87808eb4:	00f00002 	rscseq	r0, r0, r2
87808eb8:	0000ef03 	andeq	lr, r0, r3, lsl #30
87808ebc:	0080ff03 	addeq	pc, r0, r3, lsl #30
87808ec0:	00fe0f02 	rscseq	r0, lr, r2, lsl #30
87808ec4:	e03f0000 	eors	r0, pc, r0
87808ec8:	001f0000 	andseq	r0, pc, r0
87808ecc:	00e00702 	rsceq	r0, r0, r2, lsl #14
87808ed0:	0000f803 	andeq	pc, r0, r3, lsl #16
87808ed4:	00000003 	andeq	r0, r0, r3
87808ed8:	00000002 	andeq	r0, r0, r2
	...
87808f20:	20000002 	andcs	r0, r0, r2
87808f24:	20000002 	andcs	r0, r0, r2
87808f28:	e0008003 	and	r8, r0, r3
87808f2c:	2003f003 	andcs	pc, r3, r3
87808f30:	200cfc02 	andcs	pc, ip, r2, lsl #24
87808f34:	00301f02 	eorseq	r1, r0, r2, lsl #30
87808f38:	00c00700 	sbceq	r0, r0, r0, lsl #14
87808f3c:	00f00700 	rscseq	r0, r0, r0, lsl #14
87808f40:	007c1802 	rsbseq	r1, ip, r2, lsl #16
87808f44:	201f6002 	andscs	r6, pc, r2
87808f48:	e0038003 	and	r8, r3, r3
87808f4c:	e0000002 	and	r0, r0, r2
87808f50:	20000002 	andcs	r0, r0, r2
87808f54:	20000000 	andcs	r0, r0, r0
	...
87808fa0:	00000002 	andeq	r0, r0, r2
87808fa4:	00000003 	andeq	r0, r0, r3
87808fa8:	0000c003 	andeq	ip, r0, r3
87808fac:	0000f803 	andeq	pc, r0, r3, lsl #16
87808fb0:	20003e02 	andcs	r3, r0, r2, lsl #28
87808fb4:	20c00f02 	sbccs	r0, r0, r2, lsl #30
87808fb8:	e0ff0100 	rscs	r0, pc, r0, lsl #2
87808fbc:	e07f0000 	rsbs	r0, pc, r0
87808fc0:	20800300 	addcs	r0, r0, r0, lsl #6
87808fc4:	20001c02 	andcs	r1, r0, r2, lsl #24
87808fc8:	00007002 	andeq	r7, r0, r2
87808fcc:	00008003 	andeq	r8, r0, r3
87808fd0:	00000002 	andeq	r0, r0, r2
87808fd4:	00000002 	andeq	r0, r0, r2
	...
87809020:	20000000 	andcs	r0, r0, r0
87809024:	e0006000 	and	r6, r0, r0
87809028:	e0038003 	and	r8, r3, r3
8780902c:	a00f0003 	andge	r0, pc, r3
87809030:	203e0002 	eorscs	r0, lr, r2
87809034:	20f80002 	rscscs	r0, r8, r2
87809038:	20e00302 	rsccs	r0, r0, r2, lsl #6
8780903c:	20800f02 	addcs	r0, r0, r2, lsl #30
87809040:	20003e02 	andcs	r3, r0, r2, lsl #28
87809044:	20007802 	andcs	r7, r0, r2, lsl #16
87809048:	6000e003 	andvs	lr, r0, r3
8780904c:	e0008003 	and	r8, r0, r3
87809050:	00030002 	andeq	r0, r3, r2
	...
878090b4:	fcffff1f 	ldc2l	15, cr15, [pc], #124	; 87809138 <asc2_3216+0x1e1c>
878090b8:	04000010 	streq	r0, [r0], #-16
878090bc:	04000010 	streq	r0, [r0], #-16
878090c0:	04000010 	streq	r0, [r0], #-16
878090c4:	04000010 	streq	r0, [r0], #-16
878090c8:	04000010 	streq	r0, [r0], #-16
878090cc:	04000010 	streq	r0, [r0], #-16
878090d0:	04000010 	streq	r0, [r0], #-16
	...
87809128:	00000007 	andeq	r0, r0, r7
8780912c:	0000c003 	andeq	ip, r0, r3
87809130:	00007800 	andeq	r7, r0, r0, lsl #16
87809134:	00001e00 	andeq	r1, r0, r0, lsl #28
87809138:	00c00300 	sbceq	r0, r0, r0, lsl #6
8780913c:	00f00000 	rscseq	r0, r0, r0
87809140:	001e0000 	andseq	r0, lr, r0
87809144:	80070000 	andhi	r0, r7, r0
87809148:	f0000000 			; <UNDEFINED> instruction: 0xf0000000
8780914c:	3c000000 	stccc	0, cr0, [r0], {-0}
87809150:	06000000 	streq	r0, [r0], -r0
	...
878091a4:	04000010 	streq	r0, [r0], #-16
878091a8:	04000010 	streq	r0, [r0], #-16
878091ac:	04000010 	streq	r0, [r0], #-16
878091b0:	04000010 	streq	r0, [r0], #-16
878091b4:	04000010 	streq	r0, [r0], #-16
878091b8:	04000010 	streq	r0, [r0], #-16
878091bc:	04000010 	streq	r0, [r0], #-16
878091c0:	fcffff1f 	ldc2l	15, cr15, [pc], #124	; 87809244 <asc2_3216+0x1f28>
	...
8780922c:	00000002 	andeq	r0, r0, r2
87809230:	00000004 	andeq	r0, r0, r4
87809234:	00000008 	andeq	r0, r0, r8
87809238:	00000018 	andeq	r0, r0, r8, lsl r0
8780923c:	00000010 	andeq	r0, r0, r0, lsl r0
87809240:	00000018 	andeq	r0, r0, r8, lsl r0
87809244:	00000018 	andeq	r0, r0, r8, lsl r0
87809248:	00000004 	andeq	r0, r0, r4
8780924c:	00000002 	andeq	r0, r0, r2
	...
8780929c:	01000000 	mrseq	r0, (UNDEF: 0)
878092a0:	01000000 	mrseq	r0, (UNDEF: 0)
878092a4:	01000000 	mrseq	r0, (UNDEF: 0)
878092a8:	01000000 	mrseq	r0, (UNDEF: 0)
878092ac:	01000000 	mrseq	r0, (UNDEF: 0)
878092b0:	01000000 	mrseq	r0, (UNDEF: 0)
878092b4:	01000000 	mrseq	r0, (UNDEF: 0)
878092b8:	01000000 	mrseq	r0, (UNDEF: 0)
878092bc:	01000000 	mrseq	r0, (UNDEF: 0)
878092c0:	01000000 	mrseq	r0, (UNDEF: 0)
878092c4:	01000000 	mrseq	r0, (UNDEF: 0)
878092c8:	01000000 	mrseq	r0, (UNDEF: 0)
878092cc:	01000000 	mrseq	r0, (UNDEF: 0)
878092d0:	01000000 	mrseq	r0, (UNDEF: 0)
878092d4:	01000000 	mrseq	r0, (UNDEF: 0)
878092d8:	01000000 	mrseq	r0, (UNDEF: 0)
	...
87809328:	00000010 	andeq	r0, r0, r0, lsl r0
8780932c:	00000010 	andeq	r0, r0, r0, lsl r0
87809330:	00000010 	andeq	r0, r0, r0, lsl r0
87809334:	00000018 	andeq	r0, r0, r8, lsl r0
87809338:	00000008 	andeq	r0, r0, r8
8780933c:	00000004 	andeq	r0, r0, r4
	...
878093a0:	80030000 	andhi	r0, r3, r0
878093a4:	c08f0100 	addgt	r0, pc, r0, lsl #2
878093a8:	608c0300 	addvs	r0, ip, r0, lsl #6
878093ac:	20180600 	andscs	r0, r8, r0, lsl #12
878093b0:	20100400 	andscs	r0, r0, r0, lsl #8
878093b4:	20100400 	andscs	r0, r0, r0, lsl #8
878093b8:	20200400 	eorcs	r0, r0, r0, lsl #8
878093bc:	40200400 	eormi	r0, r0, r0, lsl #8
878093c0:	40200600 	eormi	r0, r0, r0, lsl #12
878093c4:	c0ff0300 	rscsgt	r0, pc, r0, lsl #6
878093c8:	e0ff0100 	rscs	r0, pc, r0, lsl #2
878093cc:	20000000 	andcs	r0, r0, r0
878093d0:	20000000 	andcs	r0, r0, r0
878093d4:	c0000000 	andgt	r0, r0, r0
	...
87809420:	00000002 	andeq	r0, r0, r2
87809424:	00000002 	andeq	r0, r0, r2
87809428:	e0ffff03 	rscs	pc, pc, r3, lsl #30
8780942c:	c0ffff07 	rscsgt	pc, pc, r7, lsl #30
87809430:	c0800100 	addgt	r0, r0, r0, lsl #2
87809434:	60000200 	andvs	r0, r0, r0, lsl #4
87809438:	20000200 	andcs	r0, r0, r0, lsl #4
8780943c:	20000400 	andcs	r0, r0, r0, lsl #8
87809440:	20000400 	andcs	r0, r0, r0, lsl #8
87809444:	20000400 	andcs	r0, r0, r0, lsl #8
87809448:	40000600 	andmi	r0, r0, r0, lsl #12
8780944c:	c0000300 	andgt	r0, r0, r0, lsl #6
87809450:	80ff0100 	rscshi	r0, pc, r0, lsl #2
87809454:	00fe0000 	rscseq	r0, lr, r0
	...
878094a4:	007e0000 	rsbseq	r0, lr, r0
878094a8:	80ff0100 	rscshi	r0, pc, r0, lsl #2
878094ac:	c0810300 	addgt	r0, r1, r0, lsl #6
878094b0:	40000200 	andmi	r0, r0, r0, lsl #4
878094b4:	20000600 	andcs	r0, r0, r0, lsl #12
878094b8:	20000400 	andcs	r0, r0, r0, lsl #8
878094bc:	20000400 	andcs	r0, r0, r0, lsl #8
878094c0:	20000400 	andcs	r0, r0, r0, lsl #8
878094c4:	20000600 	andcs	r0, r0, r0, lsl #12
878094c8:	40c00300 	sbcmi	r0, r0, r0, lsl #6
878094cc:	80c00100 	sbchi	r0, r0, r0, lsl #2
878094d0:	00030000 	andeq	r0, r3, r0
	...
87809524:	007e0000 	rsbseq	r0, lr, r0
87809528:	80ff0100 	rscshi	r0, pc, r0, lsl #2
8780952c:	c0800300 	addgt	r0, r0, r0, lsl #6
87809530:	60000600 	andvs	r0, r0, r0, lsl #12
87809534:	20000400 	andcs	r0, r0, r0, lsl #8
87809538:	20000400 	andcs	r0, r0, r0, lsl #8
8780953c:	20000400 	andcs	r0, r0, r0, lsl #8
87809540:	40000402 	andmi	r0, r0, r2, lsl #8
87809544:	80000202 	andhi	r0, r0, r2, lsl #4
87809548:	e0ffff03 	rscs	pc, pc, r3, lsl #30
8780954c:	c0ffff07 	rscsgt	pc, pc, r7, lsl #30
87809550:	40000000 	andmi	r0, r0, r0
87809554:	40000000 	andmi	r0, r0, r0
	...
878095a4:	007e0000 	rsbseq	r0, lr, r0
878095a8:	80ff0100 	rscshi	r0, pc, r0, lsl #2
878095ac:	c0110300 	andsgt	r0, r1, r0, lsl #6
878095b0:	40100200 	andsmi	r0, r0, r0, lsl #4
878095b4:	60100400 	andsvs	r0, r0, r0, lsl #8
878095b8:	20100400 	andscs	r0, r0, r0, lsl #8
878095bc:	20100400 	andscs	r0, r0, r0, lsl #8
878095c0:	20100400 	andscs	r0, r0, r0, lsl #8
878095c4:	20100600 	andscs	r0, r0, r0, lsl #12
878095c8:	40100300 	andsmi	r0, r0, r0, lsl #6
878095cc:	c0f00100 	rscsgt	r0, r0, r0, lsl #2
878095d0:	00710000 	rsbseq	r0, r1, r0
	...
87809624:	00000400 	andeq	r0, r0, r0, lsl #8
87809628:	20000400 	andcs	r0, r0, r0, lsl #8
8780962c:	20000400 	andcs	r0, r0, r0, lsl #8
87809630:	20000400 	andcs	r0, r0, r0, lsl #8
87809634:	e0ff7f00 	rscs	r7, pc, r0, lsl #30
87809638:	e0ffff01 	rscs	pc, pc, r1, lsl #30
8780963c:	20000401 	andcs	r0, r0, r1, lsl #8
87809640:	20000403 	andcs	r0, r0, r3, lsl #8
87809644:	20000402 	andcs	r0, r0, r2, lsl #8
87809648:	20000402 	andcs	r0, r0, r2, lsl #8
8780964c:	00000402 	andeq	r0, r0, r2, lsl #8
87809650:	00000002 	andeq	r0, r0, r2
87809654:	0000c001 	andeq	ip, r0, r1
87809658:	0000c001 	andeq	ip, r0, r1
	...
878096a4:	1c000000 	stcne	0, cr0, [r0], {-0}
878096a8:	3ee30000 	cdpcc	0, 14, cr0, cr3, cr0, {0}
878096ac:	c2ff0300 	rscsgt	r0, pc, #0, 6
878096b0:	c30c0200 	movwgt	r0, #49664	; 0xc200
878096b4:	c1040400 	tstgt	r4, r0, lsl #8
878096b8:	c1040400 	tstgt	r4, r0, lsl #8
878096bc:	c1040400 	tstgt	r4, r0, lsl #8
878096c0:	c1040400 	tstgt	r4, r0, lsl #8
878096c4:	c10c0600 	tstgt	ip, r0, lsl #12
878096c8:	c3f80300 	mvnsgt	r0, #0, 6
878096cc:	62f00500 	rscsvs	r0, r0, #0, 10
878096d0:	7e000600 	cfmadd32vc	mvax0, mvfx0, mvfx0, mvfx0
878096d4:	3c000600 	stccc	6, cr0, [r0], {-0}
	...
87809720:	20000002 	andcs	r0, r0, r2
87809724:	20000002 	andcs	r0, r0, r2
87809728:	e0ffff03 	rscs	pc, pc, r3, lsl #30
8780972c:	e0ffff07 	rscs	pc, pc, r7, lsl #30
87809730:	20000100 	andcs	r0, r0, r0, lsl #2
87809734:	20000200 	andcs	r0, r0, r0, lsl #4
87809738:	00000600 	andeq	r0, r0, r0, lsl #12
8780973c:	00000400 	andeq	r0, r0, r0, lsl #8
87809740:	00000400 	andeq	r0, r0, r0, lsl #8
87809744:	20000400 	andcs	r0, r0, r0, lsl #8
87809748:	20000600 	andcs	r0, r0, r0, lsl #12
8780974c:	e0ff0300 	rscs	r0, pc, r0, lsl #6
87809750:	e0ff0100 	rscs	r0, pc, r0, lsl #2
87809754:	20000000 	andcs	r0, r0, r0
87809758:	20000000 	andcs	r0, r0, r0
	...
878097a8:	20000400 	andcs	r0, r0, r0, lsl #8
878097ac:	20000400 	andcs	r0, r0, r0, lsl #8
878097b0:	20000400 	andcs	r0, r0, r0, lsl #8
878097b4:	20000400 	andcs	r0, r0, r0, lsl #8
878097b8:	e0ff8703 	rscs	r8, pc, r3, lsl #14
878097bc:	e0ff8f03 	rscs	r8, pc, r3, lsl #30
878097c0:	20008003 	andcs	r8, r0, r3
878097c4:	20000000 	andcs	r0, r0, r0
878097c8:	20000000 	andcs	r0, r0, r0
878097cc:	20000000 	andcs	r0, r0, r0
	...
87809828:	06000000 	streq	r0, [r0], -r0
8780982c:	07000000 	streq	r0, [r0, -r0]
87809830:	01000000 	mrseq	r0, (UNDEF: 0)
87809834:	01000000 	mrseq	r0, (UNDEF: 0)
87809838:	01000400 	tsteq	r0, r0, lsl #8
8780983c:	01000400 	tsteq	r0, r0, lsl #8
87809840:	03000400 	movweq	r0, #1024	; 0x400
87809844:	06000400 	streq	r0, [r0], -r0, lsl #8
87809848:	fcff8703 	ldc2l	7, cr8, [pc], #12	; 8780985c <asc2_3216+0x2540>
8780984c:	f8ff8f03 			; <UNDEFINED> instruction: 0xf8ff8f03
87809850:	00008003 	andeq	r8, r0, r3
	...
878098a0:	20000002 	andcs	r0, r0, r2
878098a4:	20000002 	andcs	r0, r0, r2
878098a8:	e0ffff03 	rscs	pc, pc, r3, lsl #30
878098ac:	e0ffff07 	rscs	pc, pc, r7, lsl #30
878098b0:	20080000 	andcs	r0, r8, r0
878098b4:	20100000 	andscs	r0, r0, r0
878098b8:	00300000 	eorseq	r0, r0, r0
878098bc:	00fc0000 	rscseq	r0, ip, r0
878098c0:	008e0500 	addeq	r0, lr, r0, lsl #10
878098c4:	a0070700 	andge	r0, r7, r0, lsl #14
878098c8:	e0010600 	and	r0, r1, r0, lsl #12
878098cc:	e0000400 	and	r0, r0, r0, lsl #8
878098d0:	20000400 	andcs	r0, r0, r0, lsl #8
878098d4:	20000000 	andcs	r0, r0, r0
	...
87809928:	20000002 	andcs	r0, r0, r2
8780992c:	20000002 	andcs	r0, r0, r2
87809930:	20000002 	andcs	r0, r0, r2
87809934:	20000002 	andcs	r0, r0, r2
87809938:	e0ffff03 	rscs	pc, pc, r3, lsl #30
8780993c:	e0ffff07 	rscs	pc, pc, r7, lsl #30
87809940:	20000000 	andcs	r0, r0, r0
87809944:	20000000 	andcs	r0, r0, r0
87809948:	20000000 	andcs	r0, r0, r0
8780994c:	20000000 	andcs	r0, r0, r0
	...
878099a0:	20000400 	andcs	r0, r0, r0, lsl #8
878099a4:	e0ff0700 	rscs	r0, pc, r0, lsl #14
878099a8:	e0ff0f00 	rscs	r0, pc, r0, lsl #30
878099ac:	20000200 	andcs	r0, r0, r0, lsl #4
878099b0:	00000400 	andeq	r0, r0, r0, lsl #8
878099b4:	20000400 	andcs	r0, r0, r0, lsl #8
878099b8:	e0ff0700 	rscs	r0, pc, r0, lsl #14
878099bc:	e0ff0300 	rscs	r0, pc, r0, lsl #6
878099c0:	20000200 	andcs	r0, r0, r0, lsl #4
878099c4:	00000400 	andeq	r0, r0, r0, lsl #8
878099c8:	20000400 	andcs	r0, r0, r0, lsl #8
878099cc:	e0ff0700 	rscs	r0, pc, r0, lsl #14
878099d0:	e0ff0300 	rscs	r0, pc, r0, lsl #6
878099d4:	20000000 	andcs	r0, r0, r0
	...
87809a20:	20000400 	andcs	r0, r0, r0, lsl #8
87809a24:	20000400 	andcs	r0, r0, r0, lsl #8
87809a28:	e0ff0700 	rscs	r0, pc, r0, lsl #14
87809a2c:	e0ff0f00 	rscs	r0, pc, r0, lsl #30
87809a30:	20000100 	andcs	r0, r0, r0, lsl #2
87809a34:	20000200 	andcs	r0, r0, r0, lsl #4
87809a38:	00000200 	andeq	r0, r0, r0, lsl #4
87809a3c:	00000400 	andeq	r0, r0, r0, lsl #8
87809a40:	00000400 	andeq	r0, r0, r0, lsl #8
87809a44:	20000400 	andcs	r0, r0, r0, lsl #8
87809a48:	20000600 	andcs	r0, r0, r0, lsl #12
87809a4c:	e0ff0300 	rscs	r0, pc, r0, lsl #6
87809a50:	e0ff0100 	rscs	r0, pc, r0, lsl #2
87809a54:	20000000 	andcs	r0, r0, r0
87809a58:	20000000 	andcs	r0, r0, r0
	...
87809aa4:	007e0000 	rsbseq	r0, lr, r0
87809aa8:	80ff0000 	rscshi	r0, pc, r0
87809aac:	c0810300 	addgt	r0, r1, r0, lsl #6
87809ab0:	40000200 	andmi	r0, r0, r0, lsl #4
87809ab4:	20000600 	andcs	r0, r0, r0, lsl #12
87809ab8:	20000400 	andcs	r0, r0, r0, lsl #8
87809abc:	20000400 	andcs	r0, r0, r0, lsl #8
87809ac0:	20000400 	andcs	r0, r0, r0, lsl #8
87809ac4:	20000600 	andcs	r0, r0, r0, lsl #12
87809ac8:	40000200 	andmi	r0, r0, r0, lsl #4
87809acc:	c0810300 	addgt	r0, r1, r0, lsl #6
87809ad0:	80ff0100 	rscshi	r0, pc, r0, lsl #2
87809ad4:	007e0000 	rsbseq	r0, lr, r0
	...
87809b20:	01000400 	tsteq	r0, r0, lsl #8
87809b24:	01000400 	tsteq	r0, r0, lsl #8
87809b28:	ffff0700 			; <UNDEFINED> instruction: 0xffff0700
87809b2c:	ffff0f00 			; <UNDEFINED> instruction: 0xffff0f00
87809b30:	c1000100 	mrsgt	r0, (UNDEF: 16)
87809b34:	41000200 	mrsmi	r0, R8_usr
87809b38:	20000400 	andcs	r0, r0, r0, lsl #8
87809b3c:	20000400 	andcs	r0, r0, r0, lsl #8
87809b40:	20000400 	andcs	r0, r0, r0, lsl #8
87809b44:	20000400 	andcs	r0, r0, r0, lsl #8
87809b48:	40000600 	andmi	r0, r0, r0, lsl #12
87809b4c:	c0010300 	andgt	r0, r1, r0, lsl #6
87809b50:	80ff0100 	rscshi	r0, pc, r0, lsl #2
87809b54:	007e0000 	rsbseq	r0, lr, r0
	...
87809ba4:	007e0000 	rsbseq	r0, lr, r0
87809ba8:	80ff0100 	rscshi	r0, pc, r0, lsl #2
87809bac:	c0800300 	addgt	r0, r0, r0, lsl #6
87809bb0:	60000200 	andvs	r0, r0, r0, lsl #4
87809bb4:	20000400 	andcs	r0, r0, r0, lsl #8
87809bb8:	20000400 	andcs	r0, r0, r0, lsl #8
87809bbc:	20000400 	andcs	r0, r0, r0, lsl #8
87809bc0:	20000400 	andcs	r0, r0, r0, lsl #8
87809bc4:	41000200 	mrsmi	r0, R8_usr
87809bc8:	c1000300 	mrsgt	r0, LR_irq
87809bcc:	ffff0300 			; <UNDEFINED> instruction: 0xffff0300
87809bd0:	ffff0700 			; <UNDEFINED> instruction: 0xffff0700
87809bd4:	01000000 	mrseq	r0, (UNDEF: 0)
87809bd8:	01000000 	mrseq	r0, (UNDEF: 0)
	...
87809c20:	20000400 	andcs	r0, r0, r0, lsl #8
87809c24:	20000400 	andcs	r0, r0, r0, lsl #8
87809c28:	20000400 	andcs	r0, r0, r0, lsl #8
87809c2c:	20000400 	andcs	r0, r0, r0, lsl #8
87809c30:	e0ff0f00 	rscs	r0, pc, r0, lsl #30
87809c34:	e0ff0f00 	rscs	r0, pc, r0, lsl #30
87809c38:	20c00000 	sbccs	r0, r0, r0
87809c3c:	20000100 	andcs	r0, r0, r0, lsl #2
87809c40:	20000200 	andcs	r0, r0, r0, lsl #4
87809c44:	20000600 	andcs	r0, r0, r0, lsl #12
87809c48:	00000400 	andeq	r0, r0, r0, lsl #8
87809c4c:	00000400 	andeq	r0, r0, r0, lsl #8
87809c50:	00000700 	andeq	r0, r0, r0, lsl #14
87809c54:	00000300 	andeq	r0, r0, r0, lsl #6
	...
87809ca4:	e0030000 	and	r0, r3, r0
87809ca8:	e0c00100 	sbc	r0, r0, r0, lsl #2
87809cac:	40e00300 	rscmi	r0, r0, r0, lsl #6
87809cb0:	20300600 	eorscs	r0, r0, r0, lsl #12
87809cb4:	20300400 	eorscs	r0, r0, r0, lsl #8
87809cb8:	20180400 	andscs	r0, r8, r0, lsl #8
87809cbc:	20180400 	andscs	r0, r8, r0, lsl #8
87809cc0:	20180400 	andscs	r0, r8, r0, lsl #8
87809cc4:	200c0400 	andcs	r0, ip, r0, lsl #8
87809cc8:	600c0200 	andvs	r0, ip, r0, lsl #4
87809ccc:	c0070300 	andgt	r0, r7, r0, lsl #6
87809cd0:	80830700 	addhi	r0, r3, r0, lsl #14
	...
87809d24:	00000400 	andeq	r0, r0, r0, lsl #8
87809d28:	00000400 	andeq	r0, r0, r0, lsl #8
87809d2c:	00000400 	andeq	r0, r0, r0, lsl #8
87809d30:	00000c00 	andeq	r0, r0, r0, lsl #24
87809d34:	80ff1f00 	rscshi	r1, pc, r0, lsl #30
87809d38:	c0ffff00 	rscsgt	pc, pc, r0, lsl #30
87809d3c:	60000400 	andvs	r0, r0, r0, lsl #8
87809d40:	20000400 	andcs	r0, r0, r0, lsl #8
87809d44:	20000400 	andcs	r0, r0, r0, lsl #8
87809d48:	20000400 	andcs	r0, r0, r0, lsl #8
87809d4c:	40000400 	andmi	r0, r0, r0, lsl #8
87809d50:	80010000 	andhi	r0, r1, r0
	...
87809da0:	00000400 	andeq	r0, r0, r0, lsl #8
87809da4:	00000400 	andeq	r0, r0, r0, lsl #8
87809da8:	80ff0700 	rscshi	r0, pc, r0, lsl #14
87809dac:	c0ff0f00 	rscsgt	r0, pc, r0, lsl #30
87809db0:	60000000 	andvs	r0, r0, r0
87809db4:	20000000 	andcs	r0, r0, r0
87809db8:	20000000 	andcs	r0, r0, r0
87809dbc:	20000000 	andcs	r0, r0, r0
87809dc0:	20000000 	andcs	r0, r0, r0
87809dc4:	40000400 	andmi	r0, r0, r0, lsl #8
87809dc8:	80000400 	andhi	r0, r0, r0, lsl #8
87809dcc:	e0ff0700 	rscs	r0, pc, r0, lsl #14
87809dd0:	c0ff0f00 	rscsgt	r0, pc, r0, lsl #30
87809dd4:	40000000 	andmi	r0, r0, r0
87809dd8:	40000000 	andmi	r0, r0, r0
	...
87809e20:	00000400 	andeq	r0, r0, r0, lsl #8
87809e24:	00000400 	andeq	r0, r0, r0, lsl #8
87809e28:	00800700 	addeq	r0, r0, r0, lsl #14
87809e2c:	00f00700 	rscseq	r0, r0, r0, lsl #14
87809e30:	00fe0400 	rscseq	r0, lr, r0, lsl #8
87809e34:	c01f0400 	andsgt	r0, pc, r0, lsl #8
87809e38:	e0030000 	and	r0, r3, r0
87809e3c:	80030000 	andhi	r0, r3, r0
87809e40:	001c0000 	andseq	r0, ip, r0
87809e44:	00600400 	rsbeq	r0, r0, r0, lsl #8
87809e48:	00800700 	addeq	r0, r0, r0, lsl #14
87809e4c:	00000600 	andeq	r0, r0, r0, lsl #12
87809e50:	00000400 	andeq	r0, r0, r0, lsl #8
	...
87809e9c:	00000400 	andeq	r0, r0, r0, lsl #8
87809ea0:	00000600 	andeq	r0, r0, r0, lsl #12
87809ea4:	00c00700 	sbceq	r0, r0, r0, lsl #14
87809ea8:	00fc0700 	rscseq	r0, ip, r0, lsl #14
87809eac:	803f0400 	eorshi	r0, pc, r0, lsl #8
87809eb0:	e0030000 	and	r0, r3, r0
87809eb4:	800f0400 	andhi	r0, pc, r0, lsl #8
87809eb8:	00f00600 	rscseq	r0, r0, r0, lsl #12
87809ebc:	00f00700 	rscseq	r0, r0, r0, lsl #14
87809ec0:	80ff0700 	rscshi	r0, pc, r0, lsl #14
87809ec4:	e00f0400 	and	r0, pc, r0, lsl #8
87809ec8:	80030000 	andhi	r0, r3, r0
87809ecc:	003c0400 	eorseq	r0, ip, r0, lsl #8
87809ed0:	00c00700 	sbceq	r0, r0, r0, lsl #14
87809ed4:	00000600 	andeq	r0, r0, r0, lsl #12
87809ed8:	00000400 	andeq	r0, r0, r0, lsl #8
	...
87809f20:	20000000 	andcs	r0, r0, r0
87809f24:	20000400 	andcs	r0, r0, r0, lsl #8
87809f28:	60000400 	andvs	r0, r0, r0, lsl #8
87809f2c:	e0000700 	and	r0, r0, r0, lsl #14
87809f30:	20830700 	addcs	r0, r3, r0, lsl #14
87809f34:	00e60700 	rsceq	r0, r6, r0, lsl #14
87809f38:	00f80400 	rscseq	r0, r8, r0, lsl #8
87809f3c:	003c0000 	eorseq	r0, ip, r0
87809f40:	205e0400 	subscs	r0, lr, r0, lsl #8
87809f44:	a0870500 	addge	r0, r7, r0, lsl #10
87809f48:	e0010600 	and	r0, r1, r0, lsl #12
87809f4c:	60000400 	andvs	r0, r0, r0, lsl #8
87809f50:	20000400 	andcs	r0, r0, r0, lsl #8
87809f54:	20000000 	andcs	r0, r0, r0
	...
87809fa0:	00000400 	andeq	r0, r0, r0, lsl #8
87809fa4:	03000400 	movweq	r0, #1024	; 0x400
87809fa8:	03000700 	movweq	r0, #1792	; 0x700
87809fac:	01e00700 	mvneq	r0, r0, lsl #14
87809fb0:	01f80400 	mvnseq	r0, r0, lsl #8
87809fb4:	021f0400 	andseq	r0, pc, #0, 8
87809fb8:	fc070000 	stc2	0, cr0, [r7], {-0}
87809fbc:	e0000000 	and	r0, r0, r0
87809fc0:	00070000 	andeq	r0, r7, r0
87809fc4:	00380400 	eorseq	r0, r8, r0, lsl #8
87809fc8:	00c00700 	sbceq	r0, r0, r0, lsl #14
87809fcc:	00000600 	andeq	r0, r0, r0, lsl #12
87809fd0:	00000400 	andeq	r0, r0, r0, lsl #8
87809fd4:	00000400 	andeq	r0, r0, r0, lsl #8
	...
8780a024:	60800700 	addvs	r0, r0, r0, lsl #14
8780a028:	e0000600 	and	r0, r0, r0, lsl #12
8780a02c:	e0030400 	and	r0, r3, r0, lsl #8
8780a030:	a0070400 	andge	r0, r7, r0, lsl #8
8780a034:	200e0400 	andcs	r0, lr, r0, lsl #8
8780a038:	203c0400 	eorscs	r0, ip, r0, lsl #8
8780a03c:	20700400 	rsbscs	r0, r0, r0, lsl #8
8780a040:	20e00500 	rsccs	r0, r0, r0, lsl #10
8780a044:	20800700 	addcs	r0, r0, r0, lsl #14
8780a048:	60000700 	andvs	r0, r0, r0, lsl #14
8780a04c:	e0000400 	and	r0, r0, r0, lsl #8
8780a050:	80030000 	andhi	r0, r3, r0
	...
8780a0b8:	00800000 	addeq	r0, r0, r0
8780a0bc:	00800000 	addeq	r0, r0, r0
8780a0c0:	00400100 	subeq	r0, r0, r0, lsl #2
8780a0c4:	f83ffe07 			; <UNDEFINED> instruction: 0xf83ffe07
8780a0c8:	04000008 	streq	r0, [r0], #-8
8780a0cc:	02000010 	andeq	r0, r0, #16
8780a0d0:	02000010 	andeq	r0, r0, #16
	...
8780a13c:	ffffffff 			; <UNDEFINED> instruction: 0xffffffff
	...
8780a1a4:	02000010 	andeq	r0, r0, #16
8780a1a8:	02000010 	andeq	r0, r0, #16
8780a1ac:	04000008 	streq	r0, [r0], #-8
8780a1b0:	f83ffe07 			; <UNDEFINED> instruction: 0xf83ffe07
8780a1b4:	00400100 	subeq	r0, r0, r0, lsl #2
8780a1b8:	00800000 	addeq	r0, r0, r0
8780a1bc:	00800000 	addeq	r0, r0, r0
	...
8780a220:	00000018 	andeq	r0, r0, r8, lsl r0
8780a224:	00000030 	andeq	r0, r0, r0, lsr r0
8780a228:	00000040 	andeq	r0, r0, r0, asr #32
8780a22c:	00000040 	andeq	r0, r0, r0, asr #32
8780a230:	00000040 	andeq	r0, r0, r0, asr #32
8780a234:	00000020 	andeq	r0, r0, r0, lsr #32
8780a238:	00000030 	andeq	r0, r0, r0, lsr r0
8780a23c:	00000008 	andeq	r0, r0, r8
8780a240:	00000004 	andeq	r0, r0, r4
8780a244:	00000002 	andeq	r0, r0, r2
8780a248:	00000002 	andeq	r0, r0, r2
8780a24c:	00000002 	andeq	r0, r0, r2
8780a250:	0000000c 	andeq	r0, r0, ip
8780a254:	00000018 	andeq	r0, r0, r8, lsl r0
	...
8780a29c:	2044434c 	subcs	r4, r4, ip, asr #6
8780a2a0:	253d4449 	ldrcs	r4, [sp, #-1097]!	; 0xfffffbb7
8780a2a4:	0a0d5823 	beq	87b60338 <irqTable+0x3556f8>
	...
8780a2b0:	003b001f 	eorseq	r0, fp, pc, lsl r0
8780a2b4:	0078005a 	rsbseq	r0, r8, sl, asr r0
8780a2b8:	00b50097 	umlalseq	r0, r5, r7, r0
8780a2bc:	00f300d4 	ldrsbteq	r0, [r3], #4
8780a2c0:	01300111 	teqeq	r0, r1, lsl r1
8780a2c4:	0000014e 	andeq	r0, r0, lr, asr #2
8780a2c8:	1f1c1f00 	svcne	0x001c1f00
8780a2cc:	1f1e1f1e 	svcne	0x001e1f1e
8780a2d0:	1e1f1e1f 	mrcne	14, 0, r1, cr15, cr15, {0}
8780a2d4:	0000001f 	andeq	r0, r0, pc, lsl r0
8780a2d8:	4c554e3c 	mrrcmi	14, 3, r4, r5, cr12
8780a2dc:	00003e4c 	andeq	r3, r0, ip, asr #28

8780a2e0 <digits.0>:
8780a2e0:	33323130 	teqcc	r2, #48, 2
8780a2e4:	37363534 			; <UNDEFINED> instruction: 0x37363534
8780a2e8:	42413938 	submi	r3, r1, #56, 18	; 0xe0000
8780a2ec:	46454443 	strbmi	r4, [r5], -r3, asr #8

Disassembly of section .ARM.exidx:

8780a2f0 <__exidx_start>:
8780a2f0:	7fffb6ec 	svcvc	0x00ffb6ec
8780a2f4:	00000001 	andeq	r0, r0, r1

Disassembly of section .data:

8780a2f8 <state>:
8780a2f8:	000000ff 	strdeq	r0, [r0], -pc	; <UNPREDICTABLE>

8780a2fc <_ctype>:
8780a2fc:	08080808 	stmdaeq	r8, {r3, fp}
8780a300:	08080808 	stmdaeq	r8, {r3, fp}
8780a304:	28282808 	stmdacs	r8!, {r3, fp, sp}
8780a308:	08082828 	stmdaeq	r8, {r3, r5, fp, sp}
8780a30c:	08080808 	stmdaeq	r8, {r3, fp}
8780a310:	08080808 	stmdaeq	r8, {r3, fp}
8780a314:	08080808 	stmdaeq	r8, {r3, fp}
8780a318:	08080808 	stmdaeq	r8, {r3, fp}
8780a31c:	101010a0 	andsne	r1, r0, r0, lsr #1
8780a320:	10101010 	andsne	r1, r0, r0, lsl r0
8780a324:	10101010 	andsne	r1, r0, r0, lsl r0
8780a328:	10101010 	andsne	r1, r0, r0, lsl r0
8780a32c:	04040404 	streq	r0, [r4], #-1028	; 0xfffffbfc
8780a330:	04040404 	streq	r0, [r4], #-1028	; 0xfffffbfc
8780a334:	10100404 	andsne	r0, r0, r4, lsl #8
8780a338:	10101010 	andsne	r1, r0, r0, lsl r0
8780a33c:	41414110 	cmpmi	r1, r0, lsl r1
8780a340:	01414141 	cmpeq	r1, r1, asr #2
8780a344:	01010101 	tsteq	r1, r1, lsl #2
8780a348:	01010101 	tsteq	r1, r1, lsl #2
8780a34c:	01010101 	tsteq	r1, r1, lsl #2
8780a350:	01010101 	tsteq	r1, r1, lsl #2
8780a354:	10010101 	andne	r0, r1, r1, lsl #2
8780a358:	10101010 	andsne	r1, r0, r0, lsl r0
8780a35c:	42424210 	submi	r4, r2, #16, 4
8780a360:	02424242 	subeq	r4, r2, #536870916	; 0x20000004
8780a364:	02020202 	andeq	r0, r2, #536870912	; 0x20000000
8780a368:	02020202 	andeq	r0, r2, #536870912	; 0x20000000
8780a36c:	02020202 	andeq	r0, r2, #536870912	; 0x20000000
8780a370:	02020202 	andeq	r0, r2, #536870912	; 0x20000000
8780a374:	10020202 	andne	r0, r2, r2, lsl #4
8780a378:	08101010 	ldmdaeq	r0, {r4, ip}
	...
8780a39c:	101010a0 	andsne	r1, r0, r0, lsr #1
8780a3a0:	10101010 	andsne	r1, r0, r0, lsl r0
8780a3a4:	10101010 	andsne	r1, r0, r0, lsl r0
8780a3a8:	10101010 	andsne	r1, r0, r0, lsl r0
8780a3ac:	10101010 	andsne	r1, r0, r0, lsl r0
8780a3b0:	10101010 	andsne	r1, r0, r0, lsl r0
8780a3b4:	10101010 	andsne	r1, r0, r0, lsl r0
8780a3b8:	10101010 	andsne	r1, r0, r0, lsl r0
8780a3bc:	01010101 	tsteq	r1, r1, lsl #2
8780a3c0:	01010101 	tsteq	r1, r1, lsl #2
8780a3c4:	01010101 	tsteq	r1, r1, lsl #2
8780a3c8:	01010101 	tsteq	r1, r1, lsl #2
8780a3cc:	01010101 	tsteq	r1, r1, lsl #2
8780a3d0:	10010101 	andne	r0, r1, r1, lsl #2
8780a3d4:	01010101 	tsteq	r1, r1, lsl #2
8780a3d8:	02010101 	andeq	r0, r1, #1073741824	; 0x40000000
8780a3dc:	02020202 	andeq	r0, r2, #536870912	; 0x20000000
8780a3e0:	02020202 	andeq	r0, r2, #536870912	; 0x20000000
8780a3e4:	02020202 	andeq	r0, r2, #536870912	; 0x20000000
8780a3e8:	02020202 	andeq	r0, r2, #536870912	; 0x20000000
8780a3ec:	02020202 	andeq	r0, r2, #536870912	; 0x20000000
8780a3f0:	10020202 	andne	r0, r2, r2, lsl #4
8780a3f4:	02020202 	andeq	r0, r2, #536870912	; 0x20000000
8780a3f8:	02020202 	andeq	r0, r2, #536870912	; 0x20000000

Disassembly of section .got:

8780a3fc <.got>:
8780a3fc:	8780a2fc 			; <UNDEFINED> instruction: 0x8780a2fc
8780a400:	8780a414 	usada8hi	r0, r4, r4, sl

Disassembly of section .got.plt:

8780a404 <_GLOBAL_OFFSET_TABLE_>:
	...

Disassembly of section .bss:

8780a410 <key_flag>:
8780a410:	00000000 	andeq	r0, r0, r0

8780a414 <tftlcd_dev>:
	...

8780a438 <g_pcOutBuf>:
	...

8780a838 <g_pcInBuf>:
	...

8780ac38 <___strtok>:
8780ac38:	00000000 	andeq	r0, r0, r0

8780ac3c <irqNesting>:
8780ac3c:	00000000 	andeq	r0, r0, r0

8780ac40 <irqTable>:
	...

Disassembly of section .ARM.attributes:

00000000 <.ARM.attributes>:
   0:	00002e41 	andeq	r2, r0, r1, asr #28
   4:	61656100 	cmnvs	r5, r0, lsl #2
   8:	01006962 	tsteq	r0, r2, ror #18
   c:	00000024 	andeq	r0, r0, r4, lsr #32
  10:	412d3705 			; <UNDEFINED> instruction: 0x412d3705
  14:	070a0600 	streq	r0, [sl, -r0, lsl #12]
  18:	09010841 	stmdbeq	r1, {r0, r6, fp}
  1c:	12040a02 	andne	r0, r4, #8192	; 0x2000
  20:	15011404 	strne	r1, [r1, #-1028]	; 0xfffffbfc
  24:	18031701 	stmdane	r3, {r0, r8, r9, sl, ip}
  28:	1c021a01 			; <UNDEFINED> instruction: 0x1c021a01
  2c:	Address 0x000000000000002c is out of bounds.


Disassembly of section .comment:

00000000 <.comment>:
   0:	3a434347 	bcc	10d0d24 <shift+0x10d0d24>
   4:	62552820 	subsvs	r2, r5, #32, 16	; 0x200000
   8:	75746e75 	ldrbvc	r6, [r4, #-3701]!	; 0xfffff18b
   c:	2e313120 	rsfcssp	f3, f1, f0
  10:	2d302e34 	ldccs	14, cr2, [r0, #-208]!	; 0xffffff30
  14:	75627531 	strbvc	r7, [r2, #-1329]!	; 0xfffffacf
  18:	3175746e 	cmncc	r5, lr, ror #8
  1c:	2e32327e 	mrccs	2, 1, r3, cr2, cr14, {3}
  20:	20293430 	eorcs	r3, r9, r0, lsr r4
  24:	342e3131 	strtcc	r3, [lr], #-305	; 0xfffffecf
  28:	Address 0x0000000000000028 is out of bounds.

